---
triple:          'arm64-apple-darwin'
binary-path:     '/Users/nate/Documents/projects/vr_ogl_windows/vr_ogl/src/physics_node3d'
relocations:
  - { offsetInCU: 0x26, offset: 0x26, size: 0x8, addend: 0x0, symName: __ZN3EBOC2ERNSt3__16vectorIjNS0_9allocatorIjEEEE, symObjAddr: 0x0, symBinAddr: 0x10000459C, symSize: 0xA0 }
  - { offsetInCU: 0x19EF, offset: 0x19EF, size: 0x8, addend: 0x0, symName: __ZNSt3__112__to_addressB8ue170006IjEEPT_S2_, symObjAddr: 0x1C4, symBinAddr: 0x100004760, symSize: 0x14 }
  - { offsetInCU: 0x3EA3, offset: 0x3EA3, size: 0x8, addend: 0x0, symName: __ZN3EBOC2ERNSt3__16vectorIjNS0_9allocatorIjEEEE, symObjAddr: 0x0, symBinAddr: 0x10000459C, symSize: 0xA0 }
  - { offsetInCU: 0x3EDB, offset: 0x3EDB, size: 0x8, addend: 0x0, symName: __ZNKSt3__16vectorIjNS_9allocatorIjEEE4sizeB8ue170006Ev, symObjAddr: 0xA0, symBinAddr: 0x10000463C, symSize: 0x28 }
  - { offsetInCU: 0x3EFF, offset: 0x3EFF, size: 0x8, addend: 0x0, symName: __ZNSt3__16vectorIjNS_9allocatorIjEEE4dataB8ue170006Ev, symObjAddr: 0xC8, symBinAddr: 0x100004664, symSize: 0x28 }
  - { offsetInCU: 0x3F23, offset: 0x3F23, size: 0x8, addend: 0x0, symName: __ZN3EBOC1ERNSt3__16vectorIjNS0_9allocatorIjEEEE, symObjAddr: 0xF0, symBinAddr: 0x10000468C, symSize: 0x34 }
  - { offsetInCU: 0x3F5B, offset: 0x3F5B, size: 0x8, addend: 0x0, symName: __ZN3EBO4BindEv, symObjAddr: 0x124, symBinAddr: 0x1000046C0, symSize: 0x38 }
  - { offsetInCU: 0x3F81, offset: 0x3F81, size: 0x8, addend: 0x0, symName: __ZN3EBO6UnbindEv, symObjAddr: 0x15C, symBinAddr: 0x1000046F8, symSize: 0x34 }
  - { offsetInCU: 0x3FA7, offset: 0x3FA7, size: 0x8, addend: 0x0, symName: __ZN3EBO6DeleteEv, symObjAddr: 0x190, symBinAddr: 0x10000472C, symSize: 0x34 }
  - { offsetInCU: 0x3F, offset: 0x401B, size: 0x8, addend: 0x0, symName: _main_camera, symObjAddr: 0x73470, symBinAddr: 0x1000DE738, symSize: 0x0 }
  - { offsetInCU: 0x1953, offset: 0x592F, size: 0x8, addend: 0x0, symName: __ZN3glm5orthoIfEENS_3matILi4ELi4ET_LNS_9qualifierE0EEES2_S2_S2_S2_S2_S2_, symObjAddr: 0x18F4, symBinAddr: 0x100006068, symSize: 0x4C }
  - { offsetInCU: 0x19CE, offset: 0x59AA, size: 0x8, addend: 0x0, symName: __ZN3glm6lookAtIfLNS_9qualifierE0EEENS_3matILi4ELi4ET_XT0_EEERKNS_3vecILi3ES3_XT0_EEES8_S8_, symObjAddr: 0x1940, symBinAddr: 0x1000060B4, symSize: 0x34 }
  - { offsetInCU: 0x1A29, offset: 0x5A05, size: 0x8, addend: 0x0, symName: __ZN3glmmlIfLNS_9qualifierE0EEENS_3vecILi3ET_XT0_EEES3_RKS4_, symObjAddr: 0x1974, symBinAddr: 0x1000060E8, symSize: 0x64 }
  - { offsetInCU: 0x1A79, offset: 0x5A55, size: 0x8, addend: 0x0, symName: __ZN3glmmlIfLNS_9qualifierE0EEENS_3matILi4ELi4ET_XT0_EEERKS4_S6_, symObjAddr: 0x19D8, symBinAddr: 0x10000614C, symSize: 0x5EC }
  - { offsetInCU: 0x1B57, offset: 0x5B33, size: 0x8, addend: 0x0, symName: __ZN3glm9value_ptrIfLNS_9qualifierE0EEEPT_RNS_3matILi4ELi4ES2_XT0_EEE, symObjAddr: 0x1FC4, symBinAddr: 0x100006738, symSize: 0x28 }
  - { offsetInCU: 0x1BA1, offset: 0x5B7D, size: 0x8, addend: 0x0, symName: __ZN3glm9value_ptrIfLNS_9qualifierE0EEEPT_RNS_3vecILi3ES2_XT0_EEE, symObjAddr: 0x23E0, symBinAddr: 0x100006B54, symSize: 0x14 }
  - { offsetInCU: 0x1BE0, offset: 0x5BBC, size: 0x8, addend: 0x0, symName: __ZN3glm9value_ptrIfLNS_9qualifierE0EEEPKT_RKNS_3vecILi3ES2_XT0_EEE, symObjAddr: 0x23F4, symBinAddr: 0x100006B68, symSize: 0x14 }
  - { offsetInCU: 0x1C1F, offset: 0x5BFB, size: 0x8, addend: 0x0, symName: __ZN3glm9value_ptrIfLNS_9qualifierE0EEEPT_RNS_3vecILi4ES2_XT0_EEE, symObjAddr: 0x2408, symBinAddr: 0x100006B7C, symSize: 0x14 }
  - { offsetInCU: 0x1C5E, offset: 0x5C3A, size: 0x8, addend: 0x0, symName: __ZN3glmplIfLNS_9qualifierE0EEENS_3vecILi4ET_XT0_EEERKS4_S6_, symObjAddr: 0x257C, symBinAddr: 0x100006CF0, symSize: 0x50 }
  - { offsetInCU: 0x1CAE, offset: 0x5C8A, size: 0x8, addend: 0x0, symName: __ZN3glmmlIfLNS_9qualifierE0EEENS_3vecILi4ET_XT0_EEERKS4_S3_, symObjAddr: 0x25CC, symBinAddr: 0x100006D40, symSize: 0x50 }
  - { offsetInCU: 0x1E4D, offset: 0x5E29, size: 0x8, addend: 0x0, symName: __ZN3glm10orthoRH_NOIfEENS_3matILi4ELi4ET_LNS_9qualifierE0EEES2_S2_S2_S2_S2_S2_, symObjAddr: 0x6FB0, symBinAddr: 0x10000B6E8, symSize: 0x1DC }
  - { offsetInCU: 0x1ED7, offset: 0x5EB3, size: 0x8, addend: 0x0, symName: __ZN3glm8lookAtRHIfLNS_9qualifierE0EEENS_3matILi4ELi4ET_XT0_EEERKNS_3vecILi3ES3_XT0_EEES8_S8_, symObjAddr: 0x72A8, symBinAddr: 0x10000B9E0, symSize: 0x2E4 }
  - { offsetInCU: 0x1F6C, offset: 0x5F48, size: 0x8, addend: 0x0, symName: __ZN3glm9normalizeILi3EfLNS_9qualifierE0EEENS_3vecIXT_ET0_XT1_EEERKS4_, symObjAddr: 0x758C, symBinAddr: 0x10000BCC4, symSize: 0x3C }
  - { offsetInCU: 0x1FB5, offset: 0x5F91, size: 0x8, addend: 0x0, symName: __ZN3glmmiIfLNS_9qualifierE0EEENS_3vecILi3ET_XT0_EEERKS4_S6_, symObjAddr: 0x75C8, symBinAddr: 0x10000BD00, symSize: 0x70 }
  - { offsetInCU: 0x2005, offset: 0x5FE1, size: 0x8, addend: 0x0, symName: __ZN3glm5crossIfLNS_9qualifierE0EEENS_3vecILi3ET_XT0_EEERKS4_S6_, symObjAddr: 0x7638, symBinAddr: 0x10000BD70, symSize: 0x44 }
  - { offsetInCU: 0x2052, offset: 0x602E, size: 0x8, addend: 0x0, symName: __ZN3glm3dotILi3EfLNS_9qualifierE0EEET0_RKNS_3vecIXT_ES2_XT1_EEES6_, symObjAddr: 0x767C, symBinAddr: 0x10000BDB4, symSize: 0x2C }
  - { offsetInCU: 0x20A9, offset: 0x6085, size: 0x8, addend: 0x0, symName: __ZN3glmmlIfLNS_9qualifierE0EEENS_3vecILi3ET_XT0_EEERKS4_S3_, symObjAddr: 0x76FC, symBinAddr: 0x10000BE34, symSize: 0x64 }
  - { offsetInCU: 0x20F9, offset: 0x60D5, size: 0x8, addend: 0x0, symName: __ZN3glm11inversesqrtIfEET_S1_, symObjAddr: 0x7760, symBinAddr: 0x10000BE98, symSize: 0x30 }
  - { offsetInCU: 0x212E, offset: 0x610A, size: 0x8, addend: 0x0, symName: __ZN3glmmlIfLNS_9qualifierE0EEENS_3vecILi3ET_XT0_EEERKS4_S6_, symObjAddr: 0x78A0, symBinAddr: 0x10000BFD8, symSize: 0x70 }
  - { offsetInCU: 0xAF0E, offset: 0xEEEA, size: 0x8, addend: 0x0, symName: __ZNSt3__124__put_character_sequenceB8ue170006IcNS_11char_traitsIcEEEERNS_13basic_ostreamIT_T0_EES7_PKS4_m, symObjAddr: 0x65E8, symBinAddr: 0x10000AD20, symSize: 0x1EC }
  - { offsetInCU: 0xCAB4, offset: 0x10A90, size: 0x8, addend: 0x0, symName: __ZNSt3__1lsB8ue170006INS_11char_traitsIcEEEERNS_13basic_ostreamIcT_EES6_PKc, symObjAddr: 0x15D4, symBinAddr: 0x100005D48, symSize: 0x48 }
  - { offsetInCU: 0xCAFA, offset: 0x10AD6, size: 0x8, addend: 0x0, symName: __ZNSt3__14endlB8ue170006IcNS_11char_traitsIcEEEERNS_13basic_ostreamIT_T0_EES7_, symObjAddr: 0x1648, symBinAddr: 0x100005DBC, symSize: 0x58 }
  - { offsetInCU: 0xCB3A, offset: 0x10B16, size: 0x8, addend: 0x0, symName: __ZNSt3__112__to_addressB8ue170006I4MeshEEPT_S3_, symObjAddr: 0x2ED8, symBinAddr: 0x10000764C, symSize: 0x14 }
  - { offsetInCU: 0xCB6F, offset: 0x10B4B, size: 0x8, addend: 0x0, symName: __ZNSt3__112__to_addressB8ue170006I7TextureEEPT_S3_, symObjAddr: 0x3380, symBinAddr: 0x100007AF4, symSize: 0x14 }
  - { offsetInCU: 0xCBA4, offset: 0x10B80, size: 0x8, addend: 0x0, symName: __ZNSt3__119__libcpp_deallocateB8ue170006EPvmm, symObjAddr: 0x345C, symBinAddr: 0x100007BD0, symSize: 0x60 }
  - { offsetInCU: 0xCC0B, offset: 0x10BE7, size: 0x8, addend: 0x0, symName: __ZNSt3__124__is_overaligned_for_newB8ue170006Em, symObjAddr: 0x34BC, symBinAddr: 0x100007C30, symSize: 0x20 }
  - { offsetInCU: 0xCC3A, offset: 0x10C16, size: 0x8, addend: 0x0, symName: __ZNSt3__127__do_deallocate_handle_sizeB8ue170006IJSt11align_val_tEEEvPvmDpT_, symObjAddr: 0x34DC, symBinAddr: 0x100007C50, symSize: 0x30 }
  - { offsetInCU: 0xCC8E, offset: 0x10C6A, size: 0x8, addend: 0x0, symName: __ZNSt3__127__do_deallocate_handle_sizeB8ue170006IJEEEvPvmDpT_, symObjAddr: 0x350C, symBinAddr: 0x100007C80, symSize: 0x28 }
  - { offsetInCU: 0xCCCE, offset: 0x10CAA, size: 0x8, addend: 0x0, symName: __ZNSt3__124__libcpp_operator_deleteB8ue170006IJPvSt11align_val_tEEEvDpT_, symObjAddr: 0x3534, symBinAddr: 0x100007CA8, symSize: 0x2C }
  - { offsetInCU: 0xCD18, offset: 0x10CF4, size: 0x8, addend: 0x0, symName: __ZNSt3__124__libcpp_operator_deleteB8ue170006IJPvEEEvDpT_, symObjAddr: 0x3560, symBinAddr: 0x100007CD4, symSize: 0x24 }
  - { offsetInCU: 0xCD4E, offset: 0x10D2A, size: 0x8, addend: 0x0, symName: __ZNSt3__112__to_addressB8ue170006I6VertexEEPT_S3_, symObjAddr: 0x3E60, symBinAddr: 0x100008598, symSize: 0x14 }
  - { offsetInCU: 0xCD83, offset: 0x10D5F, size: 0x8, addend: 0x0, symName: __ZNSt3__112__to_addressB8ue170006IP4NodeEEPT_S4_, symObjAddr: 0x44A8, symBinAddr: 0x100008BE0, symSize: 0x14 }
  - { offsetInCU: 0xCDB8, offset: 0x10D94, size: 0x8, addend: 0x0, symName: __ZNSt3__118__constexpr_strlenB8ue170006EPKc, symObjAddr: 0x47FC, symBinAddr: 0x100008F34, symSize: 0x24 }
  - { offsetInCU: 0xCDE4, offset: 0x10DC0, size: 0x8, addend: 0x0, symName: __ZNSt3__122__make_exception_guardB8ue170006INS_6vectorINS_12basic_stringIcNS_11char_traitsIcEENS_9allocatorIcEEEENS5_IS7_EEE16__destroy_vectorEEENS_28__exception_guard_exceptionsIT_EESC_, symObjAddr: 0x497C, symBinAddr: 0x1000090B4, symSize: 0x40 }
  - { offsetInCU: 0xCE19, offset: 0x10DF5, size: 0x8, addend: 0x0, symName: __ZNSt3__119__allocate_at_leastB8ue170006INS_9allocatorINS_12basic_stringIcNS_11char_traitsIcEENS1_IcEEEEEEEENS_19__allocation_resultINS_16allocator_traitsIT_E7pointerEEERSA_m, symObjAddr: 0x4D8C, symBinAddr: 0x1000094C4, symSize: 0x40 }
  - { offsetInCU: 0xCE5C, offset: 0x10E38, size: 0x8, addend: 0x0, symName: __ZNSt3__13minB8ue170006ImEERKT_S3_S3_, symObjAddr: 0x4EE4, symBinAddr: 0x10000961C, symSize: 0x2C }
  - { offsetInCU: 0xD089, offset: 0x11065, size: 0x8, addend: 0x0, symName: __ZNSt3__13minB8ue170006ImNS_6__lessIvvEEEERKT_S5_S5_T0_, symObjAddr: 0x4F70, symBinAddr: 0x1000096A8, symSize: 0x54 }
  - { offsetInCU: 0xD12A, offset: 0x11106, size: 0x8, addend: 0x0, symName: __ZNSt3__120__throw_length_errorB8ue170006EPKc, symObjAddr: 0x5050, symBinAddr: 0x100009788, symSize: 0x64 }
  - { offsetInCU: 0xD155, offset: 0x11131, size: 0x8, addend: 0x0, symName: __ZNSt3__117__libcpp_allocateB8ue170006Emm, symObjAddr: 0x51C4, symBinAddr: 0x1000098FC, symSize: 0x60 }
  - { offsetInCU: 0xD1B0, offset: 0x1118C, size: 0x8, addend: 0x0, symName: __ZNSt3__121__libcpp_operator_newB8ue170006IJmSt11align_val_tEEEPvDpT_, symObjAddr: 0x5224, symBinAddr: 0x10000995C, symSize: 0x2C }
  - { offsetInCU: 0xD1FD, offset: 0x111D9, size: 0x8, addend: 0x0, symName: __ZNSt3__121__libcpp_operator_newB8ue170006IJmEEEPvDpT_, symObjAddr: 0x5250, symBinAddr: 0x100009988, symSize: 0x24 }
  - { offsetInCU: 0xD236, offset: 0x11212, size: 0x8, addend: 0x0, symName: __ZNSt3__112__to_addressB8ue170006INS_12basic_stringIcNS_11char_traitsIcEENS_9allocatorIcEEEEEEPT_S8_, symObjAddr: 0x536C, symBinAddr: 0x100009AA4, symSize: 0x14 }
  - { offsetInCU: 0xD26B, offset: 0x11247, size: 0x8, addend: 0x0, symName: __ZNSt3__130__uninitialized_allocator_copyB8ue170006INS_9allocatorINS_12basic_stringIcNS_11char_traitsIcEENS1_IcEEEEEEPKS6_S9_PS6_EET2_RT_T0_T1_SB_, symObjAddr: 0x541C, symBinAddr: 0x100009B54, symSize: 0x80 }
  - { offsetInCU: 0xD308, offset: 0x112E4, size: 0x8, addend: 0x0, symName: __ZNSt3__114__unwrap_rangeB8ue170006IPKNS_12basic_stringIcNS_11char_traitsIcEENS_9allocatorIcEEEES8_EENS_4pairIT0_SA_EET_SC_, symObjAddr: 0x5514, symBinAddr: 0x100009C4C, symSize: 0x60 }
  - { offsetInCU: 0xD354, offset: 0x11330, size: 0x8, addend: 0x0, symName: __ZNSt3__135__uninitialized_allocator_copy_implB8ue170006INS_9allocatorINS_12basic_stringIcNS_11char_traitsIcEENS1_IcEEEEEEPKS6_S9_PS6_EET2_RT_T0_T1_SB_, symObjAddr: 0x5574, symBinAddr: 0x100009CAC, symSize: 0xF4 }
  - { offsetInCU: 0xD3F2, offset: 0x113CE, size: 0x8, addend: 0x0, symName: __ZNSt3__113__unwrap_iterB8ue170006IPNS_12basic_stringIcNS_11char_traitsIcEENS_9allocatorIcEEEENS_18__unwrap_iter_implIS7_Lb1EEELi0EEEDTclsrT0_8__unwrapclsr3stdE7declvalIT_EEEESB_, symObjAddr: 0x5668, symBinAddr: 0x100009DA0, symSize: 0x24 }
  - { offsetInCU: 0xD436, offset: 0x11412, size: 0x8, addend: 0x0, symName: __ZNSt3__113__rewrap_iterB8ue170006IPNS_12basic_stringIcNS_11char_traitsIcEENS_9allocatorIcEEEES7_NS_18__unwrap_iter_implIS7_Lb1EEEEET_SA_T0_, symObjAddr: 0x568C, symBinAddr: 0x100009DC4, symSize: 0x3C }
  - { offsetInCU: 0xD48B, offset: 0x11467, size: 0x8, addend: 0x0, symName: __ZNSt3__19make_pairB8ue170006IPKNS_12basic_stringIcNS_11char_traitsIcEENS_9allocatorIcEEEES8_EENS_4pairINS_18__unwrap_ref_decayIT_E4typeENSA_IT0_E4typeEEEOSB_OSE_, symObjAddr: 0x56C8, symBinAddr: 0x100009E00, symSize: 0x38 }
  - { offsetInCU: 0xD4DA, offset: 0x114B6, size: 0x8, addend: 0x0, symName: __ZNSt3__113__unwrap_iterB8ue170006IPKNS_12basic_stringIcNS_11char_traitsIcEENS_9allocatorIcEEEENS_18__unwrap_iter_implIS8_Lb1EEELi0EEEDTclsrT0_8__unwrapclsr3stdE7declvalIT_EEEESC_, symObjAddr: 0x5700, symBinAddr: 0x100009E38, symSize: 0x24 }
  - { offsetInCU: 0xD647, offset: 0x11623, size: 0x8, addend: 0x0, symName: __ZNSt3__112__to_addressB8ue170006IKNS_12basic_stringIcNS_11char_traitsIcEENS_9allocatorIcEEEEEEPT_S9_, symObjAddr: 0x57B8, symBinAddr: 0x100009EF0, symSize: 0x14 }
  - { offsetInCU: 0xD67C, offset: 0x11658, size: 0x8, addend: 0x0, symName: __ZNSt3__122__make_exception_guardB8ue170006INS_29_AllocatorDestroyRangeReverseINS_9allocatorINS_12basic_stringIcNS_11char_traitsIcEENS2_IcEEEEEEPS7_EEEENS_28__exception_guard_exceptionsIT_EESC_, symObjAddr: 0x57CC, symBinAddr: 0x100009F04, symSize: 0x4C }
  - { offsetInCU: 0xD6B2, offset: 0x1168E, size: 0x8, addend: 0x0, symName: __ZNSt3__119__allocator_destroyB8ue170006INS_9allocatorINS_12basic_stringIcNS_11char_traitsIcEENS1_IcEEEEEENS_16reverse_iteratorIPS6_EESA_EEvRT_T0_T1_, symObjAddr: 0x5A5C, symBinAddr: 0x10000A194, symSize: 0x70 }
  - { offsetInCU: 0xD716, offset: 0x116F2, size: 0x8, addend: 0x0, symName: __ZNSt3__1neB8ue170006IPNS_12basic_stringIcNS_11char_traitsIcEENS_9allocatorIcEEEES7_EEbRKNS_16reverse_iteratorIT_EERKNS8_IT0_EE, symObjAddr: 0x5B00, symBinAddr: 0x10000A238, symSize: 0x48 }
  - { offsetInCU: 0xD762, offset: 0x1173E, size: 0x8, addend: 0x0, symName: __ZNSt3__112__to_addressB8ue170006INS_16reverse_iteratorIPNS_12basic_stringIcNS_11char_traitsIcEENS_9allocatorIcEEEEEEvEEu7__decayIDTclsr19__to_address_helperIT_EE6__callclsr3stdE7declvalIRKSA_EEEEESC_, symObjAddr: 0x5B74, symBinAddr: 0x10000A2AC, symSize: 0x24 }
  - { offsetInCU: 0xD816, offset: 0x117F2, size: 0x8, addend: 0x0, symName: __ZNSt3__130__uninitialized_allocator_copyB8ue170006INS_9allocatorINS_12basic_stringIcNS_11char_traitsIcEENS1_IcEEEEEEPS6_S8_S8_EET2_RT_T0_T1_S9_, symObjAddr: 0x6308, symBinAddr: 0x10000AA40, symSize: 0x80 }
  - { offsetInCU: 0xD8B3, offset: 0x1188F, size: 0x8, addend: 0x0, symName: __ZNSt3__114__unwrap_rangeB8ue170006IPNS_12basic_stringIcNS_11char_traitsIcEENS_9allocatorIcEEEES7_EENS_4pairIT0_S9_EET_SB_, symObjAddr: 0x6388, symBinAddr: 0x10000AAC0, symSize: 0x60 }
  - { offsetInCU: 0xD8FF, offset: 0x118DB, size: 0x8, addend: 0x0, symName: __ZNSt3__135__uninitialized_allocator_copy_implB8ue170006INS_9allocatorINS_12basic_stringIcNS_11char_traitsIcEENS1_IcEEEEEEPS6_S8_S8_EET2_RT_T0_T1_S9_, symObjAddr: 0x63E8, symBinAddr: 0x10000AB20, symSize: 0xF4 }
  - { offsetInCU: 0xD99D, offset: 0x11979, size: 0x8, addend: 0x0, symName: __ZNSt3__19make_pairB8ue170006IPNS_12basic_stringIcNS_11char_traitsIcEENS_9allocatorIcEEEES7_EENS_4pairINS_18__unwrap_ref_decayIT_E4typeENS9_IT0_E4typeEEEOSA_OSD_, symObjAddr: 0x64DC, symBinAddr: 0x10000AC14, symSize: 0x38 }
  - { offsetInCU: 0xDAC1, offset: 0x11A9D, size: 0x8, addend: 0x0, symName: __ZNSt3__116__pad_and_outputB8ue170006IcNS_11char_traitsIcEEEENS_19ostreambuf_iteratorIT_T0_EES6_PKS4_S8_S8_RNS_8ios_baseES4_, symObjAddr: 0x67F0, symBinAddr: 0x10000AF28, symSize: 0x240 }
  - { offsetInCU: 0xDB90, offset: 0x11B6C, size: 0x8, addend: 0x0, symName: __ZNSt3__112__to_addressB8ue170006IcEEPT_S2_, symObjAddr: 0x6C60, symBinAddr: 0x10000B398, symSize: 0x14 }
  - { offsetInCU: 0xDBF8, offset: 0x11BD4, size: 0x8, addend: 0x0, symName: __ZNSt3__19use_facetB8ue170006INS_5ctypeIcEEEERKT_RKNS_6localeE, symObjAddr: 0x6F18, symBinAddr: 0x10000B650, symSize: 0x2C }
  - { offsetInCU: 0xE3AA, offset: 0x12386, size: 0x8, addend: 0x0, symName: __ZSt28__throw_bad_array_new_lengthB8ue170006v, symObjAddr: 0x5190, symBinAddr: 0x1000098C8, symSize: 0x34 }
  - { offsetInCU: 0x10F5C, offset: 0x14F38, size: 0x8, addend: 0x0, symName: _main, symObjAddr: 0x0, symBinAddr: 0x100004774, symSize: 0x11B0 }
  - { offsetInCU: 0x1DB51, offset: 0x21B2D, size: 0x8, addend: 0x0, symName: __Z12init_physicsv, symObjAddr: 0x11B0, symBinAddr: 0x100005924, symSize: 0x24C }
  - { offsetInCU: 0x1DCB7, offset: 0x21C93, size: 0x8, addend: 0x0, symName: __Z13init_rendereriiPKc, symObjAddr: 0x13FC, symBinAddr: 0x100005B70, symSize: 0x108 }
  - { offsetInCU: 0x1DD18, offset: 0x21CF4, size: 0x8, addend: 0x0, symName: __ZNSt3__112basic_stringIcNS_11char_traitsIcEENS_9allocatorIcEEEC1B8ue170006ILi0EEEPKc, symObjAddr: 0x1504, symBinAddr: 0x100005C78, symSize: 0x34 }
  - { offsetInCU: 0x1DD56, offset: 0x21D32, size: 0x8, addend: 0x0, symName: __ZNSt3__16vectorINS_12basic_stringIcNS_11char_traitsIcEENS_9allocatorIcEEEENS4_IS6_EEEC1B8ue170006ESt16initializer_listIS6_E, symObjAddr: 0x1538, symBinAddr: 0x100005CAC, symSize: 0x3C }
  - { offsetInCU: 0x1DD90, offset: 0x21D6C, size: 0x8, addend: 0x0, symName: __ZNSt3__16vectorINS_12basic_stringIcNS_11char_traitsIcEENS_9allocatorIcEEEENS4_IS6_EEEC1ERKS8_, symObjAddr: 0x1574, symBinAddr: 0x100005CE8, symSize: 0x34 }
  - { offsetInCU: 0x1DDCA, offset: 0x21DA6, size: 0x8, addend: 0x0, symName: __ZNSt3__16vectorINS_12basic_stringIcNS_11char_traitsIcEENS_9allocatorIcEEEENS4_IS6_EEED1B8ue170006Ev, symObjAddr: 0x15A8, symBinAddr: 0x100005D1C, symSize: 0x2C }
  - { offsetInCU: 0x1DDF3, offset: 0x21DCF, size: 0x8, addend: 0x0, symName: __ZNSt3__113basic_ostreamIcNS_11char_traitsIcEEElsB8ue170006EPFRS3_S4_E, symObjAddr: 0x161C, symBinAddr: 0x100005D90, symSize: 0x2C }
  - { offsetInCU: 0x1DE25, offset: 0x21E01, size: 0x8, addend: 0x0, symName: __ZN3glm3vecILi3EfLNS_9qualifierE0EEC1Efff, symObjAddr: 0x16A0, symBinAddr: 0x100005E14, symSize: 0x44 }
  - { offsetInCU: 0x1DE79, offset: 0x21E55, size: 0x8, addend: 0x0, symName: __ZN3glm3vecILi4EfLNS_9qualifierE0EEC1Effff, symObjAddr: 0x16E4, symBinAddr: 0x100005E58, symSize: 0x4C }
  - { offsetInCU: 0x1DEDA, offset: 0x21EB6, size: 0x8, addend: 0x0, symName: __Z24init_ubo_camera_matricesv, symObjAddr: 0x1730, symBinAddr: 0x100005EA4, symSize: 0xB4 }
  - { offsetInCU: 0x1DF06, offset: 0x21EE2, size: 0x8, addend: 0x0, symName: __Z21init_ubo_point_lightsi, symObjAddr: 0x17E4, symBinAddr: 0x100005F58, symSize: 0x110 }
  - { offsetInCU: 0x1DF95, offset: 0x21F71, size: 0x8, addend: 0x0, symName: __ZN3glm3vecILi3EfLNS_9qualifierE0EEC1IdddEET_T0_T1_, symObjAddr: 0x1FEC, symBinAddr: 0x100006760, symSize: 0x44 }
  - { offsetInCU: 0x1E004, offset: 0x21FE0, size: 0x8, addend: 0x0, symName: __Z26update_ubo_camera_matricesjR6Camera, symObjAddr: 0x2030, symBinAddr: 0x1000067A4, symSize: 0xE8 }
  - { offsetInCU: 0x1E03B, offset: 0x22017, size: 0x8, addend: 0x0, symName: __Z23update_ubo_point_lightsjPP10PointLighti, symObjAddr: 0x2118, symBinAddr: 0x10000688C, symSize: 0x1EC }
  - { offsetInCU: 0x1E33F, offset: 0x2231B, size: 0x8, addend: 0x0, symName: __ZN10PointLightD1Ev, symObjAddr: 0x2304, symBinAddr: 0x100006A78, symSize: 0x2C }
  - { offsetInCU: 0x1E456, offset: 0x22432, size: 0x8, addend: 0x0, symName: __ZN13PhysicsNode3DD1Ev, symObjAddr: 0x2330, symBinAddr: 0x100006AA4, symSize: 0x2C }
  - { offsetInCU: 0x1E480, offset: 0x2245C, size: 0x8, addend: 0x0, symName: __Z25framebuffer_size_callbackP10GLFWwindowii, symObjAddr: 0x235C, symBinAddr: 0x100006AD0, symSize: 0x84 }
  - { offsetInCU: 0x1E529, offset: 0x22505, size: 0x8, addend: 0x0, symName: __ZN34btDefaultCollisionConstructionInfoC1Ev, symObjAddr: 0x241C, symBinAddr: 0x100006B90, symSize: 0x2C }
  - { offsetInCU: 0x1E552, offset: 0x2252E, size: 0x8, addend: 0x0, symName: __ZN3glm3vecILi3EfLNS_9qualifierE0EEC2Efff, symObjAddr: 0x2448, symBinAddr: 0x100006BBC, symSize: 0x38 }
  - { offsetInCU: 0x1E5A7, offset: 0x22583, size: 0x8, addend: 0x0, symName: __ZN3glm3vecILi4EfLNS_9qualifierE0EEC2Effff, symObjAddr: 0x2480, symBinAddr: 0x100006BF4, symSize: 0x44 }
  - { offsetInCU: 0x1E60A, offset: 0x225E6, size: 0x8, addend: 0x0, symName: __ZNK3glm3matILi4ELi4EfLNS_9qualifierE0EEixEi, symObjAddr: 0x24C4, symBinAddr: 0x100006C38, symSize: 0xB8 }
  - { offsetInCU: 0x1E640, offset: 0x2261C, size: 0x8, addend: 0x0, symName: __ZNK3glm3vecILi4EfLNS_9qualifierE0EEixEi, symObjAddr: 0x261C, symBinAddr: 0x100006D90, symSize: 0x10C }
  - { offsetInCU: 0x1E676, offset: 0x22652, size: 0x8, addend: 0x0, symName: __ZN3glm3matILi4ELi4EfLNS_9qualifierE0EEixEi, symObjAddr: 0x2738, symBinAddr: 0x100006EAC, symSize: 0xAC }
  - { offsetInCU: 0x1E6AC, offset: 0x22688, size: 0x8, addend: 0x0, symName: __ZN3glm3matILi4ELi4EfLNS_9qualifierE0EE6lengthEv, symObjAddr: 0x27E4, symBinAddr: 0x100006F58, symSize: 0x8 }
  - { offsetInCU: 0x1E6C0, offset: 0x2269C, size: 0x8, addend: 0x0, symName: __ZN3glm3vecILi4EfLNS_9qualifierE0EEpLIfEERS2_RKNS0_ILi4ET_LS1_0EEE, symObjAddr: 0x27F8, symBinAddr: 0x100006F6C, symSize: 0x58 }
  - { offsetInCU: 0x1E700, offset: 0x226DC, size: 0x8, addend: 0x0, symName: __ZN3glm6detail16compute_vec4_addIfLNS_9qualifierE0ELb0EE4callERKNS_3vecILi4EfLS2_0EEES7_, symObjAddr: 0x2850, symBinAddr: 0x100006FC4, symSize: 0x88 }
  - { offsetInCU: 0x1E731, offset: 0x2270D, size: 0x8, addend: 0x0, symName: __ZN3glm3vecILi4EfLNS_9qualifierE0EEmLIfEERS2_T_, symObjAddr: 0x28D8, symBinAddr: 0x10000704C, symSize: 0x60 }
  - { offsetInCU: 0x1E771, offset: 0x2274D, size: 0x8, addend: 0x0, symName: __ZN3glm6detail16compute_vec4_mulIfLNS_9qualifierE0ELb0EE4callERKNS_3vecILi4EfLS2_0EEES7_, symObjAddr: 0x2938, symBinAddr: 0x1000070AC, symSize: 0x88 }
  - { offsetInCU: 0x1E7A2, offset: 0x2277E, size: 0x8, addend: 0x0, symName: __ZN3glm3vecILi4EfLNS_9qualifierE0EEC1Ef, symObjAddr: 0x29C0, symBinAddr: 0x100007134, symSize: 0x34 }
  - { offsetInCU: 0x1E7DA, offset: 0x227B6, size: 0x8, addend: 0x0, symName: __ZN3glm3vecILi4EfLNS_9qualifierE0EEC2Ef, symObjAddr: 0x29F4, symBinAddr: 0x100007168, symSize: 0x38 }
  - { offsetInCU: 0x1E813, offset: 0x227EF, size: 0x8, addend: 0x0, symName: __ZN3glm3vecILi4EfLNS_9qualifierE0EE6lengthEv, symObjAddr: 0x2A2C, symBinAddr: 0x1000071A0, symSize: 0x8 }
  - { offsetInCU: 0x1E827, offset: 0x22803, size: 0x8, addend: 0x0, symName: __ZN3glm3vecILi3EfLNS_9qualifierE0EEC2IdddEET_T0_T1_, symObjAddr: 0x2A34, symBinAddr: 0x1000071A8, symSize: 0x44 }
  - { offsetInCU: 0x1E897, offset: 0x22873, size: 0x8, addend: 0x0, symName: __ZN10PointLightD2Ev, symObjAddr: 0x2A78, symBinAddr: 0x1000071EC, symSize: 0x2C }
  - { offsetInCU: 0x1E8C1, offset: 0x2289D, size: 0x8, addend: 0x0, symName: __ZN5LightD2Ev, symObjAddr: 0x2AA4, symBinAddr: 0x100007218, symSize: 0x2C }
  - { offsetInCU: 0x1E8EB, offset: 0x228C7, size: 0x8, addend: 0x0, symName: __ZN6Node3DD2Ev, symObjAddr: 0x2AD0, symBinAddr: 0x100007244, symSize: 0x38 }
  - { offsetInCU: 0x1E915, offset: 0x228F1, size: 0x8, addend: 0x0, symName: __ZNSt3__16vectorI4MeshNS_9allocatorIS1_EEED1B8ue170006Ev, symObjAddr: 0x2B08, symBinAddr: 0x10000727C, symSize: 0x2C }
  - { offsetInCU: 0x1E93E, offset: 0x2291A, size: 0x8, addend: 0x0, symName: __ZN4NodeD2Ev, symObjAddr: 0x2B34, symBinAddr: 0x1000072A8, symSize: 0x2C }
  - { offsetInCU: 0x1E968, offset: 0x22944, size: 0x8, addend: 0x0, symName: __ZNSt3__16vectorI4MeshNS_9allocatorIS1_EEED2B8ue170006Ev, symObjAddr: 0x2B60, symBinAddr: 0x1000072D4, symSize: 0x44 }
  - { offsetInCU: 0x1E991, offset: 0x2296D, size: 0x8, addend: 0x0, symName: __ZNSt3__16vectorI4MeshNS_9allocatorIS1_EEE16__destroy_vectorC1B8ue170006ERS4_, symObjAddr: 0x2BA4, symBinAddr: 0x100007318, symSize: 0x34 }
  - { offsetInCU: 0x1E9C9, offset: 0x229A5, size: 0x8, addend: 0x0, symName: __ZNSt3__16vectorI4MeshNS_9allocatorIS1_EEE16__destroy_vectorclB8ue170006Ev, symObjAddr: 0x2BD8, symBinAddr: 0x10000734C, symSize: 0x90 }
  - { offsetInCU: 0x1E9ED, offset: 0x229C9, size: 0x8, addend: 0x0, symName: __ZNSt3__16vectorI4MeshNS_9allocatorIS1_EEE16__destroy_vectorC2B8ue170006ERS4_, symObjAddr: 0x2C68, symBinAddr: 0x1000073DC, symSize: 0x20 }
  - { offsetInCU: 0x1EA25, offset: 0x22A01, size: 0x8, addend: 0x0, symName: __ZNSt3__16vectorI4MeshNS_9allocatorIS1_EEE7__clearB8ue170006Ev, symObjAddr: 0x2C88, symBinAddr: 0x1000073FC, symSize: 0x28 }
  - { offsetInCU: 0x1EA49, offset: 0x22A25, size: 0x8, addend: 0x0, symName: __ZNKSt3__16vectorI4MeshNS_9allocatorIS1_EEE17__annotate_deleteB8ue170006Ev, symObjAddr: 0x2CB0, symBinAddr: 0x100007424, symSize: 0xD4 }
  - { offsetInCU: 0x1EA6D, offset: 0x22A49, size: 0x8, addend: 0x0, symName: __ZNSt3__116allocator_traitsINS_9allocatorI4MeshEEE10deallocateB8ue170006ERS3_PS2_m, symObjAddr: 0x2D84, symBinAddr: 0x1000074F8, symSize: 0x34 }
  - { offsetInCU: 0x1EAAF, offset: 0x22A8B, size: 0x8, addend: 0x0, symName: __ZNSt3__16vectorI4MeshNS_9allocatorIS1_EEE7__allocB8ue170006Ev, symObjAddr: 0x2DB8, symBinAddr: 0x10000752C, symSize: 0x28 }
  - { offsetInCU: 0x1EAD3, offset: 0x22AAF, size: 0x8, addend: 0x0, symName: __ZNKSt3__16vectorI4MeshNS_9allocatorIS1_EEE8capacityB8ue170006Ev, symObjAddr: 0x2DE0, symBinAddr: 0x100007554, symSize: 0x40 }
  - { offsetInCU: 0x1EAF7, offset: 0x22AD3, size: 0x8, addend: 0x0, symName: __ZNSt3__16vectorI4MeshNS_9allocatorIS1_EEE22__base_destruct_at_endB8ue170006EPS1_, symObjAddr: 0x2E20, symBinAddr: 0x100007594, symSize: 0x8C }
  - { offsetInCU: 0x1EB39, offset: 0x22B15, size: 0x8, addend: 0x0, symName: __ZNSt3__116allocator_traitsINS_9allocatorI4MeshEEE7destroyB8ue170006IS2_vEEvRS3_PT_, symObjAddr: 0x2EAC, symBinAddr: 0x100007620, symSize: 0x2C }
  - { offsetInCU: 0x1EB76, offset: 0x22B52, size: 0x8, addend: 0x0, symName: __ZNSt3__19allocatorI4MeshE7destroyB8ue170006EPS1_, symObjAddr: 0x2EEC, symBinAddr: 0x100007660, symSize: 0x28 }
  - { offsetInCU: 0x1EBA8, offset: 0x22B84, size: 0x8, addend: 0x0, symName: __ZN4MeshD1Ev, symObjAddr: 0x2F14, symBinAddr: 0x100007688, symSize: 0x2C }
  - { offsetInCU: 0x1EBD2, offset: 0x22BAE, size: 0x8, addend: 0x0, symName: __ZN4MeshD2Ev, symObjAddr: 0x2F40, symBinAddr: 0x1000076B4, symSize: 0x44 }
  - { offsetInCU: 0x1EBFC, offset: 0x22BD8, size: 0x8, addend: 0x0, symName: __ZNSt3__16vectorI7TextureNS_9allocatorIS1_EEED1B8ue170006Ev, symObjAddr: 0x2F84, symBinAddr: 0x1000076F8, symSize: 0x2C }
  - { offsetInCU: 0x1EC25, offset: 0x22C01, size: 0x8, addend: 0x0, symName: __ZNSt3__16vectorIjNS_9allocatorIjEEED1B8ue170006Ev, symObjAddr: 0x2FB0, symBinAddr: 0x100007724, symSize: 0x2C }
  - { offsetInCU: 0x1EC4E, offset: 0x22C2A, size: 0x8, addend: 0x0, symName: __ZNSt3__16vectorI6VertexNS_9allocatorIS1_EEED1B8ue170006Ev, symObjAddr: 0x2FDC, symBinAddr: 0x100007750, symSize: 0x2C }
  - { offsetInCU: 0x1EC77, offset: 0x22C53, size: 0x8, addend: 0x0, symName: __ZNSt3__16vectorI7TextureNS_9allocatorIS1_EEED2B8ue170006Ev, symObjAddr: 0x3008, symBinAddr: 0x10000777C, symSize: 0x44 }
  - { offsetInCU: 0x1ECA0, offset: 0x22C7C, size: 0x8, addend: 0x0, symName: __ZNSt3__16vectorI7TextureNS_9allocatorIS1_EEE16__destroy_vectorC1B8ue170006ERS4_, symObjAddr: 0x304C, symBinAddr: 0x1000077C0, symSize: 0x34 }
  - { offsetInCU: 0x1ECD8, offset: 0x22CB4, size: 0x8, addend: 0x0, symName: __ZNSt3__16vectorI7TextureNS_9allocatorIS1_EEE16__destroy_vectorclB8ue170006Ev, symObjAddr: 0x3080, symBinAddr: 0x1000077F4, symSize: 0x90 }
  - { offsetInCU: 0x1ECFC, offset: 0x22CD8, size: 0x8, addend: 0x0, symName: __ZNSt3__16vectorI7TextureNS_9allocatorIS1_EEE16__destroy_vectorC2B8ue170006ERS4_, symObjAddr: 0x3110, symBinAddr: 0x100007884, symSize: 0x20 }
  - { offsetInCU: 0x1ED34, offset: 0x22D10, size: 0x8, addend: 0x0, symName: __ZNSt3__16vectorI7TextureNS_9allocatorIS1_EEE7__clearB8ue170006Ev, symObjAddr: 0x3130, symBinAddr: 0x1000078A4, symSize: 0x28 }
  - { offsetInCU: 0x1ED58, offset: 0x22D34, size: 0x8, addend: 0x0, symName: __ZNKSt3__16vectorI7TextureNS_9allocatorIS1_EEE17__annotate_deleteB8ue170006Ev, symObjAddr: 0x3158, symBinAddr: 0x1000078CC, symSize: 0xD4 }
  - { offsetInCU: 0x1ED7C, offset: 0x22D58, size: 0x8, addend: 0x0, symName: __ZNSt3__116allocator_traitsINS_9allocatorI7TextureEEE10deallocateB8ue170006ERS3_PS2_m, symObjAddr: 0x322C, symBinAddr: 0x1000079A0, symSize: 0x34 }
  - { offsetInCU: 0x1EDBE, offset: 0x22D9A, size: 0x8, addend: 0x0, symName: __ZNSt3__16vectorI7TextureNS_9allocatorIS1_EEE7__allocB8ue170006Ev, symObjAddr: 0x3260, symBinAddr: 0x1000079D4, symSize: 0x28 }
  - { offsetInCU: 0x1EDE2, offset: 0x22DBE, size: 0x8, addend: 0x0, symName: __ZNKSt3__16vectorI7TextureNS_9allocatorIS1_EEE8capacityB8ue170006Ev, symObjAddr: 0x3288, symBinAddr: 0x1000079FC, symSize: 0x40 }
  - { offsetInCU: 0x1EE06, offset: 0x22DE2, size: 0x8, addend: 0x0, symName: __ZNSt3__16vectorI7TextureNS_9allocatorIS1_EEE22__base_destruct_at_endB8ue170006EPS1_, symObjAddr: 0x32C8, symBinAddr: 0x100007A3C, symSize: 0x8C }
  - { offsetInCU: 0x1EE48, offset: 0x22E24, size: 0x8, addend: 0x0, symName: __ZNSt3__116allocator_traitsINS_9allocatorI7TextureEEE7destroyB8ue170006IS2_vEEvRS3_PT_, symObjAddr: 0x3354, symBinAddr: 0x100007AC8, symSize: 0x2C }
  - { offsetInCU: 0x1EE85, offset: 0x22E61, size: 0x8, addend: 0x0, symName: __ZNSt3__19allocatorI7TextureE7destroyB8ue170006EPS1_, symObjAddr: 0x3394, symBinAddr: 0x100007B08, symSize: 0x14 }
  - { offsetInCU: 0x1EEB7, offset: 0x22E93, size: 0x8, addend: 0x0, symName: __ZNKSt3__16vectorI7TextureNS_9allocatorIS1_EEE31__annotate_contiguous_containerB8ue170006EPKvS6_S6_S6_, symObjAddr: 0x33A8, symBinAddr: 0x100007B1C, symSize: 0x20 }
  - { offsetInCU: 0x1EF0B, offset: 0x22EE7, size: 0x8, addend: 0x0, symName: __ZNKSt3__16vectorI7TextureNS_9allocatorIS1_EEE4dataB8ue170006Ev, symObjAddr: 0x33C8, symBinAddr: 0x100007B3C, symSize: 0x28 }
  - { offsetInCU: 0x1EF2F, offset: 0x22F0B, size: 0x8, addend: 0x0, symName: __ZNKSt3__16vectorI7TextureNS_9allocatorIS1_EEE4sizeB8ue170006Ev, symObjAddr: 0x33F0, symBinAddr: 0x100007B64, symSize: 0x28 }
  - { offsetInCU: 0x1EF53, offset: 0x22F2F, size: 0x8, addend: 0x0, symName: __ZNSt3__19allocatorI7TextureE10deallocateB8ue170006EPS1_m, symObjAddr: 0x3418, symBinAddr: 0x100007B8C, symSize: 0x44 }
  - { offsetInCU: 0x1EF93, offset: 0x22F6F, size: 0x8, addend: 0x0, symName: __ZNSt3__117__compressed_pairIP7TextureNS_9allocatorIS1_EEE6secondB8ue170006Ev, symObjAddr: 0x3584, symBinAddr: 0x100007CF8, symSize: 0x24 }
  - { offsetInCU: 0x1EFB7, offset: 0x22F93, size: 0x8, addend: 0x0, symName: __ZNSt3__122__compressed_pair_elemINS_9allocatorI7TextureEELi1ELb1EE5__getB8ue170006Ev, symObjAddr: 0x35A8, symBinAddr: 0x100007D1C, symSize: 0x14 }
  - { offsetInCU: 0x1EFDB, offset: 0x22FB7, size: 0x8, addend: 0x0, symName: __ZNKSt3__16vectorI7TextureNS_9allocatorIS1_EEE9__end_capB8ue170006Ev, symObjAddr: 0x35BC, symBinAddr: 0x100007D30, symSize: 0x28 }
  - { offsetInCU: 0x1EFFF, offset: 0x22FDB, size: 0x8, addend: 0x0, symName: __ZNKSt3__117__compressed_pairIP7TextureNS_9allocatorIS1_EEE5firstB8ue170006Ev, symObjAddr: 0x35E4, symBinAddr: 0x100007D58, symSize: 0x24 }
  - { offsetInCU: 0x1F023, offset: 0x22FFF, size: 0x8, addend: 0x0, symName: __ZNKSt3__122__compressed_pair_elemIP7TextureLi0ELb0EE5__getB8ue170006Ev, symObjAddr: 0x3608, symBinAddr: 0x100007D7C, symSize: 0x14 }
  - { offsetInCU: 0x1F047, offset: 0x23023, size: 0x8, addend: 0x0, symName: __ZNSt3__16vectorIjNS_9allocatorIjEEED2B8ue170006Ev, symObjAddr: 0x361C, symBinAddr: 0x100007D90, symSize: 0x44 }
  - { offsetInCU: 0x1F070, offset: 0x2304C, size: 0x8, addend: 0x0, symName: __ZNSt3__16vectorIjNS_9allocatorIjEEE16__destroy_vectorC1B8ue170006ERS3_, symObjAddr: 0x3660, symBinAddr: 0x100007DD4, symSize: 0x34 }
  - { offsetInCU: 0x1F0A8, offset: 0x23084, size: 0x8, addend: 0x0, symName: __ZNSt3__16vectorIjNS_9allocatorIjEEE16__destroy_vectorclB8ue170006Ev, symObjAddr: 0x3694, symBinAddr: 0x100007E08, symSize: 0x90 }
  - { offsetInCU: 0x1F0CC, offset: 0x230A8, size: 0x8, addend: 0x0, symName: __ZNSt3__16vectorIjNS_9allocatorIjEEE16__destroy_vectorC2B8ue170006ERS3_, symObjAddr: 0x3724, symBinAddr: 0x100007E98, symSize: 0x20 }
  - { offsetInCU: 0x1F104, offset: 0x230E0, size: 0x8, addend: 0x0, symName: __ZNSt3__16vectorIjNS_9allocatorIjEEE7__clearB8ue170006Ev, symObjAddr: 0x3744, symBinAddr: 0x100007EB8, symSize: 0x28 }
  - { offsetInCU: 0x1F128, offset: 0x23104, size: 0x8, addend: 0x0, symName: __ZNKSt3__16vectorIjNS_9allocatorIjEEE17__annotate_deleteB8ue170006Ev, symObjAddr: 0x376C, symBinAddr: 0x100007EE0, symSize: 0xB8 }
  - { offsetInCU: 0x1F14C, offset: 0x23128, size: 0x8, addend: 0x0, symName: __ZNSt3__116allocator_traitsINS_9allocatorIjEEE10deallocateB8ue170006ERS2_Pjm, symObjAddr: 0x3824, symBinAddr: 0x100007F98, symSize: 0x34 }
  - { offsetInCU: 0x1F18E, offset: 0x2316A, size: 0x8, addend: 0x0, symName: __ZNSt3__16vectorIjNS_9allocatorIjEEE7__allocB8ue170006Ev, symObjAddr: 0x3858, symBinAddr: 0x100007FCC, symSize: 0x28 }
  - { offsetInCU: 0x1F1B2, offset: 0x2318E, size: 0x8, addend: 0x0, symName: __ZNKSt3__16vectorIjNS_9allocatorIjEEE8capacityB8ue170006Ev, symObjAddr: 0x3880, symBinAddr: 0x100007FF4, symSize: 0x40 }
  - { offsetInCU: 0x1F1D6, offset: 0x231B2, size: 0x8, addend: 0x0, symName: __ZNSt3__16vectorIjNS_9allocatorIjEEE22__base_destruct_at_endB8ue170006EPj, symObjAddr: 0x38C0, symBinAddr: 0x100008034, symSize: 0x8C }
  - { offsetInCU: 0x1F218, offset: 0x231F4, size: 0x8, addend: 0x0, symName: __ZNSt3__116allocator_traitsINS_9allocatorIjEEE7destroyB8ue170006IjvEEvRS2_PT_, symObjAddr: 0x394C, symBinAddr: 0x1000080C0, symSize: 0x2C }
  - { offsetInCU: 0x1F255, offset: 0x23231, size: 0x8, addend: 0x0, symName: __ZNSt3__19allocatorIjE7destroyB8ue170006EPj, symObjAddr: 0x398C, symBinAddr: 0x1000080EC, symSize: 0x14 }
  - { offsetInCU: 0x1F287, offset: 0x23263, size: 0x8, addend: 0x0, symName: __ZNKSt3__16vectorIjNS_9allocatorIjEEE31__annotate_contiguous_containerB8ue170006EPKvS5_S5_S5_, symObjAddr: 0x39A0, symBinAddr: 0x100008100, symSize: 0x20 }
  - { offsetInCU: 0x1F2DB, offset: 0x232B7, size: 0x8, addend: 0x0, symName: __ZNKSt3__16vectorIjNS_9allocatorIjEEE4dataB8ue170006Ev, symObjAddr: 0x39C0, symBinAddr: 0x100008120, symSize: 0x28 }
  - { offsetInCU: 0x1F2FF, offset: 0x232DB, size: 0x8, addend: 0x0, symName: __ZNSt3__19allocatorIjE10deallocateB8ue170006EPjm, symObjAddr: 0x3A10, symBinAddr: 0x100008148, symSize: 0x40 }
  - { offsetInCU: 0x1F33F, offset: 0x2331B, size: 0x8, addend: 0x0, symName: __ZNSt3__117__compressed_pairIPjNS_9allocatorIjEEE6secondB8ue170006Ev, symObjAddr: 0x3A50, symBinAddr: 0x100008188, symSize: 0x24 }
  - { offsetInCU: 0x1F363, offset: 0x2333F, size: 0x8, addend: 0x0, symName: __ZNSt3__122__compressed_pair_elemINS_9allocatorIjEELi1ELb1EE5__getB8ue170006Ev, symObjAddr: 0x3A74, symBinAddr: 0x1000081AC, symSize: 0x14 }
  - { offsetInCU: 0x1F387, offset: 0x23363, size: 0x8, addend: 0x0, symName: __ZNKSt3__16vectorIjNS_9allocatorIjEEE9__end_capB8ue170006Ev, symObjAddr: 0x3A88, symBinAddr: 0x1000081C0, symSize: 0x28 }
  - { offsetInCU: 0x1F3AB, offset: 0x23387, size: 0x8, addend: 0x0, symName: __ZNKSt3__117__compressed_pairIPjNS_9allocatorIjEEE5firstB8ue170006Ev, symObjAddr: 0x3AB0, symBinAddr: 0x1000081E8, symSize: 0x24 }
  - { offsetInCU: 0x1F3CF, offset: 0x233AB, size: 0x8, addend: 0x0, symName: __ZNKSt3__122__compressed_pair_elemIPjLi0ELb0EE5__getB8ue170006Ev, symObjAddr: 0x3AD4, symBinAddr: 0x10000820C, symSize: 0x14 }
  - { offsetInCU: 0x1F3F3, offset: 0x233CF, size: 0x8, addend: 0x0, symName: __ZNSt3__16vectorI6VertexNS_9allocatorIS1_EEED2B8ue170006Ev, symObjAddr: 0x3AE8, symBinAddr: 0x100008220, symSize: 0x44 }
  - { offsetInCU: 0x1F41C, offset: 0x233F8, size: 0x8, addend: 0x0, symName: __ZNSt3__16vectorI6VertexNS_9allocatorIS1_EEE16__destroy_vectorC1B8ue170006ERS4_, symObjAddr: 0x3B2C, symBinAddr: 0x100008264, symSize: 0x34 }
  - { offsetInCU: 0x1F454, offset: 0x23430, size: 0x8, addend: 0x0, symName: __ZNSt3__16vectorI6VertexNS_9allocatorIS1_EEE16__destroy_vectorclB8ue170006Ev, symObjAddr: 0x3B60, symBinAddr: 0x100008298, symSize: 0x90 }
  - { offsetInCU: 0x1F478, offset: 0x23454, size: 0x8, addend: 0x0, symName: __ZNSt3__16vectorI6VertexNS_9allocatorIS1_EEE16__destroy_vectorC2B8ue170006ERS4_, symObjAddr: 0x3BF0, symBinAddr: 0x100008328, symSize: 0x20 }
  - { offsetInCU: 0x1F4B0, offset: 0x2348C, size: 0x8, addend: 0x0, symName: __ZNSt3__16vectorI6VertexNS_9allocatorIS1_EEE7__clearB8ue170006Ev, symObjAddr: 0x3C10, symBinAddr: 0x100008348, symSize: 0x28 }
  - { offsetInCU: 0x1F4D4, offset: 0x234B0, size: 0x8, addend: 0x0, symName: __ZNKSt3__16vectorI6VertexNS_9allocatorIS1_EEE17__annotate_deleteB8ue170006Ev, symObjAddr: 0x3C38, symBinAddr: 0x100008370, symSize: 0xD4 }
  - { offsetInCU: 0x1F4F8, offset: 0x234D4, size: 0x8, addend: 0x0, symName: __ZNSt3__116allocator_traitsINS_9allocatorI6VertexEEE10deallocateB8ue170006ERS3_PS2_m, symObjAddr: 0x3D0C, symBinAddr: 0x100008444, symSize: 0x34 }
  - { offsetInCU: 0x1F53A, offset: 0x23516, size: 0x8, addend: 0x0, symName: __ZNSt3__16vectorI6VertexNS_9allocatorIS1_EEE7__allocB8ue170006Ev, symObjAddr: 0x3D40, symBinAddr: 0x100008478, symSize: 0x28 }
  - { offsetInCU: 0x1F55E, offset: 0x2353A, size: 0x8, addend: 0x0, symName: __ZNKSt3__16vectorI6VertexNS_9allocatorIS1_EEE8capacityB8ue170006Ev, symObjAddr: 0x3D68, symBinAddr: 0x1000084A0, symSize: 0x40 }
  - { offsetInCU: 0x1F582, offset: 0x2355E, size: 0x8, addend: 0x0, symName: __ZNSt3__16vectorI6VertexNS_9allocatorIS1_EEE22__base_destruct_at_endB8ue170006EPS1_, symObjAddr: 0x3DA8, symBinAddr: 0x1000084E0, symSize: 0x8C }
  - { offsetInCU: 0x1F5C4, offset: 0x235A0, size: 0x8, addend: 0x0, symName: __ZNSt3__116allocator_traitsINS_9allocatorI6VertexEEE7destroyB8ue170006IS2_vEEvRS3_PT_, symObjAddr: 0x3E34, symBinAddr: 0x10000856C, symSize: 0x2C }
  - { offsetInCU: 0x1F601, offset: 0x235DD, size: 0x8, addend: 0x0, symName: __ZNSt3__19allocatorI6VertexE7destroyB8ue170006EPS1_, symObjAddr: 0x3E74, symBinAddr: 0x1000085AC, symSize: 0x14 }
  - { offsetInCU: 0x1F633, offset: 0x2360F, size: 0x8, addend: 0x0, symName: __ZNKSt3__16vectorI6VertexNS_9allocatorIS1_EEE31__annotate_contiguous_containerB8ue170006EPKvS6_S6_S6_, symObjAddr: 0x3E88, symBinAddr: 0x1000085C0, symSize: 0x20 }
  - { offsetInCU: 0x1F687, offset: 0x23663, size: 0x8, addend: 0x0, symName: __ZNKSt3__16vectorI6VertexNS_9allocatorIS1_EEE4dataB8ue170006Ev, symObjAddr: 0x3EA8, symBinAddr: 0x1000085E0, symSize: 0x28 }
  - { offsetInCU: 0x1F6AB, offset: 0x23687, size: 0x8, addend: 0x0, symName: __ZNKSt3__16vectorI6VertexNS_9allocatorIS1_EEE4sizeB8ue170006Ev, symObjAddr: 0x3ED0, symBinAddr: 0x100008608, symSize: 0x28 }
  - { offsetInCU: 0x1F6CF, offset: 0x236AB, size: 0x8, addend: 0x0, symName: __ZNSt3__19allocatorI6VertexE10deallocateB8ue170006EPS1_m, symObjAddr: 0x3EF8, symBinAddr: 0x100008630, symSize: 0x44 }
  - { offsetInCU: 0x1F70F, offset: 0x236EB, size: 0x8, addend: 0x0, symName: __ZNSt3__117__compressed_pairIP6VertexNS_9allocatorIS1_EEE6secondB8ue170006Ev, symObjAddr: 0x3F3C, symBinAddr: 0x100008674, symSize: 0x24 }
  - { offsetInCU: 0x1F733, offset: 0x2370F, size: 0x8, addend: 0x0, symName: __ZNSt3__122__compressed_pair_elemINS_9allocatorI6VertexEELi1ELb1EE5__getB8ue170006Ev, symObjAddr: 0x3F60, symBinAddr: 0x100008698, symSize: 0x14 }
  - { offsetInCU: 0x1F757, offset: 0x23733, size: 0x8, addend: 0x0, symName: __ZNKSt3__16vectorI6VertexNS_9allocatorIS1_EEE9__end_capB8ue170006Ev, symObjAddr: 0x3F74, symBinAddr: 0x1000086AC, symSize: 0x28 }
  - { offsetInCU: 0x1F77B, offset: 0x23757, size: 0x8, addend: 0x0, symName: __ZNKSt3__117__compressed_pairIP6VertexNS_9allocatorIS1_EEE5firstB8ue170006Ev, symObjAddr: 0x3F9C, symBinAddr: 0x1000086D4, symSize: 0x24 }
  - { offsetInCU: 0x1F79F, offset: 0x2377B, size: 0x8, addend: 0x0, symName: __ZNKSt3__122__compressed_pair_elemIP6VertexLi0ELb0EE5__getB8ue170006Ev, symObjAddr: 0x3FC0, symBinAddr: 0x1000086F8, symSize: 0x14 }
  - { offsetInCU: 0x1F7C3, offset: 0x2379F, size: 0x8, addend: 0x0, symName: __ZNKSt3__16vectorI4MeshNS_9allocatorIS1_EEE31__annotate_contiguous_containerB8ue170006EPKvS6_S6_S6_, symObjAddr: 0x3FD4, symBinAddr: 0x10000870C, symSize: 0x20 }
  - { offsetInCU: 0x1F817, offset: 0x237F3, size: 0x8, addend: 0x0, symName: __ZNKSt3__16vectorI4MeshNS_9allocatorIS1_EEE4dataB8ue170006Ev, symObjAddr: 0x3FF4, symBinAddr: 0x10000872C, symSize: 0x28 }
  - { offsetInCU: 0x1F83B, offset: 0x23817, size: 0x8, addend: 0x0, symName: __ZNKSt3__16vectorI4MeshNS_9allocatorIS1_EEE4sizeB8ue170006Ev, symObjAddr: 0x401C, symBinAddr: 0x100008754, symSize: 0x28 }
  - { offsetInCU: 0x1F85F, offset: 0x2383B, size: 0x8, addend: 0x0, symName: __ZNSt3__19allocatorI4MeshE10deallocateB8ue170006EPS1_m, symObjAddr: 0x4044, symBinAddr: 0x10000877C, symSize: 0x44 }
  - { offsetInCU: 0x1F89F, offset: 0x2387B, size: 0x8, addend: 0x0, symName: __ZNSt3__117__compressed_pairIP4MeshNS_9allocatorIS1_EEE6secondB8ue170006Ev, symObjAddr: 0x4088, symBinAddr: 0x1000087C0, symSize: 0x24 }
  - { offsetInCU: 0x1F8C3, offset: 0x2389F, size: 0x8, addend: 0x0, symName: __ZNSt3__122__compressed_pair_elemINS_9allocatorI4MeshEELi1ELb1EE5__getB8ue170006Ev, symObjAddr: 0x40AC, symBinAddr: 0x1000087E4, symSize: 0x14 }
  - { offsetInCU: 0x1F8E7, offset: 0x238C3, size: 0x8, addend: 0x0, symName: __ZNKSt3__16vectorI4MeshNS_9allocatorIS1_EEE9__end_capB8ue170006Ev, symObjAddr: 0x40C0, symBinAddr: 0x1000087F8, symSize: 0x28 }
  - { offsetInCU: 0x1F90B, offset: 0x238E7, size: 0x8, addend: 0x0, symName: __ZNKSt3__117__compressed_pairIP4MeshNS_9allocatorIS1_EEE5firstB8ue170006Ev, symObjAddr: 0x40E8, symBinAddr: 0x100008820, symSize: 0x24 }
  - { offsetInCU: 0x1F92F, offset: 0x2390B, size: 0x8, addend: 0x0, symName: __ZNKSt3__122__compressed_pair_elemIP4MeshLi0ELb0EE5__getB8ue170006Ev, symObjAddr: 0x410C, symBinAddr: 0x100008844, symSize: 0x14 }
  - { offsetInCU: 0x1F953, offset: 0x2392F, size: 0x8, addend: 0x0, symName: __ZNSt3__16vectorIP4NodeNS_9allocatorIS2_EEED1B8ue170006Ev, symObjAddr: 0x4120, symBinAddr: 0x100008858, symSize: 0x2C }
  - { offsetInCU: 0x1F97C, offset: 0x23958, size: 0x8, addend: 0x0, symName: __ZNSt3__16vectorIP4NodeNS_9allocatorIS2_EEED2B8ue170006Ev, symObjAddr: 0x414C, symBinAddr: 0x100008884, symSize: 0x44 }
  - { offsetInCU: 0x1F9A5, offset: 0x23981, size: 0x8, addend: 0x0, symName: __ZNSt3__16vectorIP4NodeNS_9allocatorIS2_EEE16__destroy_vectorC1B8ue170006ERS5_, symObjAddr: 0x4190, symBinAddr: 0x1000088C8, symSize: 0x34 }
  - { offsetInCU: 0x1F9DD, offset: 0x239B9, size: 0x8, addend: 0x0, symName: __ZNSt3__16vectorIP4NodeNS_9allocatorIS2_EEE16__destroy_vectorclB8ue170006Ev, symObjAddr: 0x41C4, symBinAddr: 0x1000088FC, symSize: 0x90 }
  - { offsetInCU: 0x1FA01, offset: 0x239DD, size: 0x8, addend: 0x0, symName: __ZNSt3__16vectorIP4NodeNS_9allocatorIS2_EEE16__destroy_vectorC2B8ue170006ERS5_, symObjAddr: 0x4254, symBinAddr: 0x10000898C, symSize: 0x20 }
  - { offsetInCU: 0x1FA39, offset: 0x23A15, size: 0x8, addend: 0x0, symName: __ZNSt3__16vectorIP4NodeNS_9allocatorIS2_EEE7__clearB8ue170006Ev, symObjAddr: 0x4274, symBinAddr: 0x1000089AC, symSize: 0x28 }
  - { offsetInCU: 0x1FA5D, offset: 0x23A39, size: 0x8, addend: 0x0, symName: __ZNKSt3__16vectorIP4NodeNS_9allocatorIS2_EEE17__annotate_deleteB8ue170006Ev, symObjAddr: 0x429C, symBinAddr: 0x1000089D4, symSize: 0xB8 }
  - { offsetInCU: 0x1FA81, offset: 0x23A5D, size: 0x8, addend: 0x0, symName: __ZNSt3__116allocator_traitsINS_9allocatorIP4NodeEEE10deallocateB8ue170006ERS4_PS3_m, symObjAddr: 0x4354, symBinAddr: 0x100008A8C, symSize: 0x34 }
  - { offsetInCU: 0x1FAC3, offset: 0x23A9F, size: 0x8, addend: 0x0, symName: __ZNSt3__16vectorIP4NodeNS_9allocatorIS2_EEE7__allocB8ue170006Ev, symObjAddr: 0x4388, symBinAddr: 0x100008AC0, symSize: 0x28 }
  - { offsetInCU: 0x1FAE7, offset: 0x23AC3, size: 0x8, addend: 0x0, symName: __ZNKSt3__16vectorIP4NodeNS_9allocatorIS2_EEE8capacityB8ue170006Ev, symObjAddr: 0x43B0, symBinAddr: 0x100008AE8, symSize: 0x40 }
  - { offsetInCU: 0x1FB0B, offset: 0x23AE7, size: 0x8, addend: 0x0, symName: __ZNSt3__16vectorIP4NodeNS_9allocatorIS2_EEE22__base_destruct_at_endB8ue170006EPS2_, symObjAddr: 0x43F0, symBinAddr: 0x100008B28, symSize: 0x8C }
  - { offsetInCU: 0x1FB4D, offset: 0x23B29, size: 0x8, addend: 0x0, symName: __ZNSt3__116allocator_traitsINS_9allocatorIP4NodeEEE7destroyB8ue170006IS3_vEEvRS4_PT_, symObjAddr: 0x447C, symBinAddr: 0x100008BB4, symSize: 0x2C }
  - { offsetInCU: 0x1FB8A, offset: 0x23B66, size: 0x8, addend: 0x0, symName: __ZNSt3__19allocatorIP4NodeE7destroyB8ue170006EPS2_, symObjAddr: 0x44BC, symBinAddr: 0x100008BF4, symSize: 0x14 }
  - { offsetInCU: 0x1FBBC, offset: 0x23B98, size: 0x8, addend: 0x0, symName: __ZNKSt3__16vectorIP4NodeNS_9allocatorIS2_EEE31__annotate_contiguous_containerB8ue170006EPKvS7_S7_S7_, symObjAddr: 0x44D0, symBinAddr: 0x100008C08, symSize: 0x20 }
  - { offsetInCU: 0x1FC10, offset: 0x23BEC, size: 0x8, addend: 0x0, symName: __ZNKSt3__16vectorIP4NodeNS_9allocatorIS2_EEE4dataB8ue170006Ev, symObjAddr: 0x44F0, symBinAddr: 0x100008C28, symSize: 0x28 }
  - { offsetInCU: 0x1FC34, offset: 0x23C10, size: 0x8, addend: 0x0, symName: __ZNKSt3__16vectorIP4NodeNS_9allocatorIS2_EEE4sizeB8ue170006Ev, symObjAddr: 0x4518, symBinAddr: 0x100008C50, symSize: 0x28 }
  - { offsetInCU: 0x1FC58, offset: 0x23C34, size: 0x8, addend: 0x0, symName: __ZNSt3__19allocatorIP4NodeE10deallocateB8ue170006EPS2_m, symObjAddr: 0x4540, symBinAddr: 0x100008C78, symSize: 0x40 }
  - { offsetInCU: 0x1FC98, offset: 0x23C74, size: 0x8, addend: 0x0, symName: __ZNSt3__117__compressed_pairIPP4NodeNS_9allocatorIS2_EEE6secondB8ue170006Ev, symObjAddr: 0x4580, symBinAddr: 0x100008CB8, symSize: 0x24 }
  - { offsetInCU: 0x1FCBC, offset: 0x23C98, size: 0x8, addend: 0x0, symName: __ZNSt3__122__compressed_pair_elemINS_9allocatorIP4NodeEELi1ELb1EE5__getB8ue170006Ev, symObjAddr: 0x45A4, symBinAddr: 0x100008CDC, symSize: 0x14 }
  - { offsetInCU: 0x1FCE0, offset: 0x23CBC, size: 0x8, addend: 0x0, symName: __ZNKSt3__16vectorIP4NodeNS_9allocatorIS2_EEE9__end_capB8ue170006Ev, symObjAddr: 0x45B8, symBinAddr: 0x100008CF0, symSize: 0x28 }
  - { offsetInCU: 0x1FD04, offset: 0x23CE0, size: 0x8, addend: 0x0, symName: __ZNKSt3__117__compressed_pairIPP4NodeNS_9allocatorIS2_EEE5firstB8ue170006Ev, symObjAddr: 0x45E0, symBinAddr: 0x100008D18, symSize: 0x24 }
  - { offsetInCU: 0x1FD28, offset: 0x23D04, size: 0x8, addend: 0x0, symName: __ZNKSt3__122__compressed_pair_elemIPP4NodeLi0ELb0EE5__getB8ue170006Ev, symObjAddr: 0x4604, symBinAddr: 0x100008D3C, symSize: 0x14 }
  - { offsetInCU: 0x1FD4C, offset: 0x23D28, size: 0x8, addend: 0x0, symName: __ZN13PhysicsNode3DD2Ev, symObjAddr: 0x4618, symBinAddr: 0x100008D50, symSize: 0x2C }
  - { offsetInCU: 0x1FD76, offset: 0x23D52, size: 0x8, addend: 0x0, symName: __ZN34btDefaultCollisionConstructionInfoC2Ev, symObjAddr: 0x4644, symBinAddr: 0x100008D7C, symSize: 0x34 }
  - { offsetInCU: 0x1FD9F, offset: 0x23D7B, size: 0x8, addend: 0x0, symName: __ZNSt3__112basic_stringIcNS_11char_traitsIcEENS_9allocatorIcEEEC2B8ue170006ILi0EEEPKc, symObjAddr: 0x4678, symBinAddr: 0x100008DB0, symSize: 0x58 }
  - { offsetInCU: 0x1FDE2, offset: 0x23DBE, size: 0x8, addend: 0x0, symName: __ZNSt3__117__compressed_pairINS_12basic_stringIcNS_11char_traitsIcEENS_9allocatorIcEEE5__repES5_EC1B8ue170006INS_18__default_init_tagESA_EEOT_OT0_, symObjAddr: 0x46D0, symBinAddr: 0x100008E08, symSize: 0x3C }
  - { offsetInCU: 0x1FE39, offset: 0x23E15, size: 0x8, addend: 0x0, symName: __ZNSt3__111char_traitsIcE6lengthB8ue170006EPKc, symObjAddr: 0x470C, symBinAddr: 0x100008E44, symSize: 0x34 }
  - { offsetInCU: 0x1FE5C, offset: 0x23E38, size: 0x8, addend: 0x0, symName: __ZNSt3__117__compressed_pairINS_12basic_stringIcNS_11char_traitsIcEENS_9allocatorIcEEE5__repES5_EC2B8ue170006INS_18__default_init_tagESA_EEOT_OT0_, symObjAddr: 0x4740, symBinAddr: 0x100008E78, symSize: 0x3C }
  - { offsetInCU: 0x1FEB3, offset: 0x23E8F, size: 0x8, addend: 0x0, symName: __ZNSt3__122__compressed_pair_elemINS_12basic_stringIcNS_11char_traitsIcEENS_9allocatorIcEEE5__repELi0ELb0EEC2B8ue170006ENS_18__default_init_tagE, symObjAddr: 0x477C, symBinAddr: 0x100008EB4, symSize: 0x14 }
  - { offsetInCU: 0x1FEE7, offset: 0x23EC3, size: 0x8, addend: 0x0, symName: __ZNSt3__122__compressed_pair_elemINS_9allocatorIcEELi1ELb1EEC2B8ue170006ENS_18__default_init_tagE, symObjAddr: 0x4790, symBinAddr: 0x100008EC8, symSize: 0x2C }
  - { offsetInCU: 0x1FF1B, offset: 0x23EF7, size: 0x8, addend: 0x0, symName: __ZNSt3__19allocatorIcEC2B8ue170006Ev, symObjAddr: 0x47BC, symBinAddr: 0x100008EF4, symSize: 0x2C }
  - { offsetInCU: 0x1FF44, offset: 0x23F20, size: 0x8, addend: 0x0, symName: __ZNSt3__116__non_trivial_ifILb1ENS_9allocatorIcEEEC2B8ue170006Ev, symObjAddr: 0x47E8, symBinAddr: 0x100008F20, symSize: 0x14 }
  - { offsetInCU: 0x1FF6D, offset: 0x23F49, size: 0x8, addend: 0x0, symName: __ZNSt3__16vectorINS_12basic_stringIcNS_11char_traitsIcEENS_9allocatorIcEEEENS4_IS6_EEEC2B8ue170006ESt16initializer_listIS6_E, symObjAddr: 0x4820, symBinAddr: 0x100008F58, symSize: 0x120 }
  - { offsetInCU: 0x1FFC1, offset: 0x23F9D, size: 0x8, addend: 0x0, symName: __ZNSt3__117__compressed_pairIPNS_12basic_stringIcNS_11char_traitsIcEENS_9allocatorIcEEEENS4_IS6_EEEC1B8ue170006IDnNS_18__default_init_tagEEEOT_OT0_, symObjAddr: 0x4940, symBinAddr: 0x100009078, symSize: 0x3C }
  - { offsetInCU: 0x20018, offset: 0x23FF4, size: 0x8, addend: 0x0, symName: __ZNSt3__16vectorINS_12basic_stringIcNS_11char_traitsIcEENS_9allocatorIcEEEENS4_IS6_EEE16__destroy_vectorC1B8ue170006ERS8_, symObjAddr: 0x49BC, symBinAddr: 0x1000090F4, symSize: 0x34 }
  - { offsetInCU: 0x20050, offset: 0x2402C, size: 0x8, addend: 0x0, symName: __ZNKSt16initializer_listINSt3__112basic_stringIcNS0_11char_traitsIcEENS0_9allocatorIcEEEEE4sizeB8ue170006Ev, symObjAddr: 0x49F0, symBinAddr: 0x100009128, symSize: 0x18 }
  - { offsetInCU: 0x20074, offset: 0x24050, size: 0x8, addend: 0x0, symName: __ZNSt3__16vectorINS_12basic_stringIcNS_11char_traitsIcEENS_9allocatorIcEEEENS4_IS6_EEE11__vallocateB8ue170006Em, symObjAddr: 0x4A08, symBinAddr: 0x100009140, symSize: 0xB4 }
  - { offsetInCU: 0x200B6, offset: 0x24092, size: 0x8, addend: 0x0, symName: __ZNSt3__16vectorINS_12basic_stringIcNS_11char_traitsIcEENS_9allocatorIcEEEENS4_IS6_EEE18__construct_at_endIPKS6_SB_EEvT_T0_m, symObjAddr: 0x4ABC, symBinAddr: 0x1000091F4, symSize: 0x8C }
  - { offsetInCU: 0x2012B, offset: 0x24107, size: 0x8, addend: 0x0, symName: __ZNKSt16initializer_listINSt3__112basic_stringIcNS0_11char_traitsIcEENS0_9allocatorIcEEEEE5beginB8ue170006Ev, symObjAddr: 0x4B48, symBinAddr: 0x100009280, symSize: 0x18 }
  - { offsetInCU: 0x2014F, offset: 0x2412B, size: 0x8, addend: 0x0, symName: __ZNKSt16initializer_listINSt3__112basic_stringIcNS0_11char_traitsIcEENS0_9allocatorIcEEEEE3endB8ue170006Ev, symObjAddr: 0x4B60, symBinAddr: 0x100009298, symSize: 0x28 }
  - { offsetInCU: 0x20173, offset: 0x2414F, size: 0x8, addend: 0x0, symName: __ZNSt3__128__exception_guard_exceptionsINS_6vectorINS_12basic_stringIcNS_11char_traitsIcEENS_9allocatorIcEEEENS5_IS7_EEE16__destroy_vectorEE10__completeB8ue170006Ev, symObjAddr: 0x4B88, symBinAddr: 0x1000092C0, symSize: 0x1C }
  - { offsetInCU: 0x20197, offset: 0x24173, size: 0x8, addend: 0x0, symName: __ZNSt3__128__exception_guard_exceptionsINS_6vectorINS_12basic_stringIcNS_11char_traitsIcEENS_9allocatorIcEEEENS5_IS7_EEE16__destroy_vectorEED1B8ue170006Ev, symObjAddr: 0x4BA4, symBinAddr: 0x1000092DC, symSize: 0x2C }
  - { offsetInCU: 0x201C0, offset: 0x2419C, size: 0x8, addend: 0x0, symName: __ZNSt3__117__compressed_pairIPNS_12basic_stringIcNS_11char_traitsIcEENS_9allocatorIcEEEENS4_IS6_EEEC2B8ue170006IDnNS_18__default_init_tagEEEOT_OT0_, symObjAddr: 0x4BD0, symBinAddr: 0x100009308, symSize: 0x40 }
  - { offsetInCU: 0x20217, offset: 0x241F3, size: 0x8, addend: 0x0, symName: __ZNSt3__122__compressed_pair_elemIPNS_12basic_stringIcNS_11char_traitsIcEENS_9allocatorIcEEEELi0ELb0EEC2B8ue170006IDnvEEOT_, symObjAddr: 0x4C10, symBinAddr: 0x100009348, symSize: 0x1C }
  - { offsetInCU: 0x20258, offset: 0x24234, size: 0x8, addend: 0x0, symName: __ZNSt3__122__compressed_pair_elemINS_9allocatorINS_12basic_stringIcNS_11char_traitsIcEENS1_IcEEEEEELi1ELb1EEC2B8ue170006ENS_18__default_init_tagE, symObjAddr: 0x4C2C, symBinAddr: 0x100009364, symSize: 0x2C }
  - { offsetInCU: 0x2028C, offset: 0x24268, size: 0x8, addend: 0x0, symName: __ZNSt3__19allocatorINS_12basic_stringIcNS_11char_traitsIcEENS0_IcEEEEEC2B8ue170006Ev, symObjAddr: 0x4C58, symBinAddr: 0x100009390, symSize: 0x2C }
  - { offsetInCU: 0x202B5, offset: 0x24291, size: 0x8, addend: 0x0, symName: __ZNSt3__116__non_trivial_ifILb1ENS_9allocatorINS_12basic_stringIcNS_11char_traitsIcEENS1_IcEEEEEEEC2B8ue170006Ev, symObjAddr: 0x4C84, symBinAddr: 0x1000093BC, symSize: 0x14 }
  - { offsetInCU: 0x202DE, offset: 0x242BA, size: 0x8, addend: 0x0, symName: __ZNSt3__128__exception_guard_exceptionsINS_6vectorINS_12basic_stringIcNS_11char_traitsIcEENS_9allocatorIcEEEENS5_IS7_EEE16__destroy_vectorEEC1B8ue170006ESA_, symObjAddr: 0x4C98, symBinAddr: 0x1000093D0, symSize: 0x34 }
  - { offsetInCU: 0x20315, offset: 0x242F1, size: 0x8, addend: 0x0, symName: __ZNSt3__128__exception_guard_exceptionsINS_6vectorINS_12basic_stringIcNS_11char_traitsIcEENS_9allocatorIcEEEENS5_IS7_EEE16__destroy_vectorEEC2B8ue170006ESA_, symObjAddr: 0x4CCC, symBinAddr: 0x100009404, symSize: 0x24 }
  - { offsetInCU: 0x2034C, offset: 0x24328, size: 0x8, addend: 0x0, symName: __ZNSt3__16vectorINS_12basic_stringIcNS_11char_traitsIcEENS_9allocatorIcEEEENS4_IS6_EEE16__destroy_vectorC2B8ue170006ERS8_, symObjAddr: 0x4CF0, symBinAddr: 0x100009428, symSize: 0x20 }
  - { offsetInCU: 0x20384, offset: 0x24360, size: 0x8, addend: 0x0, symName: __ZNKSt3__16vectorINS_12basic_stringIcNS_11char_traitsIcEENS_9allocatorIcEEEENS4_IS6_EEE8max_sizeEv, symObjAddr: 0x4D10, symBinAddr: 0x100009448, symSize: 0x60 }
  - { offsetInCU: 0x203AB, offset: 0x24387, size: 0x8, addend: 0x0, symName: __ZNKSt3__16vectorINS_12basic_stringIcNS_11char_traitsIcEENS_9allocatorIcEEEENS4_IS6_EEE20__throw_length_errorB8ue170006Ev, symObjAddr: 0x4D70, symBinAddr: 0x1000094A8, symSize: 0x1C }
  - { offsetInCU: 0x203CF, offset: 0x243AB, size: 0x8, addend: 0x0, symName: __ZNSt3__16vectorINS_12basic_stringIcNS_11char_traitsIcEENS_9allocatorIcEEEENS4_IS6_EEE7__allocB8ue170006Ev, symObjAddr: 0x4DCC, symBinAddr: 0x100009504, symSize: 0x28 }
  - { offsetInCU: 0x203F3, offset: 0x243CF, size: 0x8, addend: 0x0, symName: __ZNSt3__16vectorINS_12basic_stringIcNS_11char_traitsIcEENS_9allocatorIcEEEENS4_IS6_EEE9__end_capB8ue170006Ev, symObjAddr: 0x4DF4, symBinAddr: 0x10000952C, symSize: 0x28 }
  - { offsetInCU: 0x20417, offset: 0x243F3, size: 0x8, addend: 0x0, symName: __ZNKSt3__16vectorINS_12basic_stringIcNS_11char_traitsIcEENS_9allocatorIcEEEENS4_IS6_EEE14__annotate_newB8ue170006Em, symObjAddr: 0x4E1C, symBinAddr: 0x100009554, symSize: 0xC8 }
  - { offsetInCU: 0x20454, offset: 0x24430, size: 0x8, addend: 0x0, symName: __ZNSt3__116allocator_traitsINS_9allocatorINS_12basic_stringIcNS_11char_traitsIcEENS1_IcEEEEEEE8max_sizeB8ue170006IS7_vEEmRKS7_, symObjAddr: 0x4F10, symBinAddr: 0x100009648, symSize: 0x24 }
  - { offsetInCU: 0x20482, offset: 0x2445E, size: 0x8, addend: 0x0, symName: __ZNKSt3__16vectorINS_12basic_stringIcNS_11char_traitsIcEENS_9allocatorIcEEEENS4_IS6_EEE7__allocB8ue170006Ev, symObjAddr: 0x4F34, symBinAddr: 0x10000966C, symSize: 0x28 }
  - { offsetInCU: 0x204A6, offset: 0x24482, size: 0x8, addend: 0x0, symName: __ZNSt3__114numeric_limitsIlE3maxB8ue170006Ev, symObjAddr: 0x4F5C, symBinAddr: 0x100009694, symSize: 0x14 }
  - { offsetInCU: 0x204CE, offset: 0x244AA, size: 0x8, addend: 0x0, symName: __ZNKSt3__16__lessIvvEclB8ue170006ImmEEbRKT_RKT0_, symObjAddr: 0x4FC4, symBinAddr: 0x1000096FC, symSize: 0x34 }
  - { offsetInCU: 0x20520, offset: 0x244FC, size: 0x8, addend: 0x0, symName: __ZNKSt3__19allocatorINS_12basic_stringIcNS_11char_traitsIcEENS0_IcEEEEE8max_sizeB8ue170006Ev, symObjAddr: 0x4FF8, symBinAddr: 0x100009730, symSize: 0x18 }
  - { offsetInCU: 0x20544, offset: 0x24520, size: 0x8, addend: 0x0, symName: __ZNKSt3__117__compressed_pairIPNS_12basic_stringIcNS_11char_traitsIcEENS_9allocatorIcEEEENS4_IS6_EEE6secondB8ue170006Ev, symObjAddr: 0x5010, symBinAddr: 0x100009748, symSize: 0x24 }
  - { offsetInCU: 0x20568, offset: 0x24544, size: 0x8, addend: 0x0, symName: __ZNKSt3__122__compressed_pair_elemINS_9allocatorINS_12basic_stringIcNS_11char_traitsIcEENS1_IcEEEEEELi1ELb1EE5__getB8ue170006Ev, symObjAddr: 0x5034, symBinAddr: 0x10000976C, symSize: 0x14 }
  - { offsetInCU: 0x2058C, offset: 0x24568, size: 0x8, addend: 0x0, symName: __ZNSt3__123__libcpp_numeric_limitsIlLb1EE3maxB8ue170006Ev, symObjAddr: 0x5048, symBinAddr: 0x100009780, symSize: 0x8 }
  - { offsetInCU: 0x205A0, offset: 0x2457C, size: 0x8, addend: 0x0, symName: __ZNSt12length_errorC1B8ue170006EPKc, symObjAddr: 0x50B4, symBinAddr: 0x1000097EC, symSize: 0x34 }
  - { offsetInCU: 0x205D7, offset: 0x245B3, size: 0x8, addend: 0x0, symName: __ZNSt12length_errorC2B8ue170006EPKc, symObjAddr: 0x50E8, symBinAddr: 0x100009820, symSize: 0x4C }
  - { offsetInCU: 0x2060E, offset: 0x245EA, size: 0x8, addend: 0x0, symName: __ZNSt3__19allocatorINS_12basic_stringIcNS_11char_traitsIcEENS0_IcEEEEE8allocateB8ue170006Em, symObjAddr: 0x5134, symBinAddr: 0x10000986C, symSize: 0x5C }
  - { offsetInCU: 0x20640, offset: 0x2461C, size: 0x8, addend: 0x0, symName: __ZNSt3__117__compressed_pairIPNS_12basic_stringIcNS_11char_traitsIcEENS_9allocatorIcEEEENS4_IS6_EEE6secondB8ue170006Ev, symObjAddr: 0x5274, symBinAddr: 0x1000099AC, symSize: 0x24 }
  - { offsetInCU: 0x20664, offset: 0x24640, size: 0x8, addend: 0x0, symName: __ZNSt3__122__compressed_pair_elemINS_9allocatorINS_12basic_stringIcNS_11char_traitsIcEENS1_IcEEEEEELi1ELb1EE5__getB8ue170006Ev, symObjAddr: 0x5298, symBinAddr: 0x1000099D0, symSize: 0x14 }
  - { offsetInCU: 0x20688, offset: 0x24664, size: 0x8, addend: 0x0, symName: __ZNSt3__117__compressed_pairIPNS_12basic_stringIcNS_11char_traitsIcEENS_9allocatorIcEEEENS4_IS6_EEE5firstB8ue170006Ev, symObjAddr: 0x52AC, symBinAddr: 0x1000099E4, symSize: 0x24 }
  - { offsetInCU: 0x206AC, offset: 0x24688, size: 0x8, addend: 0x0, symName: __ZNSt3__122__compressed_pair_elemIPNS_12basic_stringIcNS_11char_traitsIcEENS_9allocatorIcEEEELi0ELb0EE5__getB8ue170006Ev, symObjAddr: 0x52D0, symBinAddr: 0x100009A08, symSize: 0x14 }
  - { offsetInCU: 0x206D0, offset: 0x246AC, size: 0x8, addend: 0x0, symName: __ZNKSt3__16vectorINS_12basic_stringIcNS_11char_traitsIcEENS_9allocatorIcEEEENS4_IS6_EEE31__annotate_contiguous_containerB8ue170006EPKvSA_SA_SA_, symObjAddr: 0x52E4, symBinAddr: 0x100009A1C, symSize: 0x20 }
  - { offsetInCU: 0x20724, offset: 0x24700, size: 0x8, addend: 0x0, symName: __ZNKSt3__16vectorINS_12basic_stringIcNS_11char_traitsIcEENS_9allocatorIcEEEENS4_IS6_EEE4dataB8ue170006Ev, symObjAddr: 0x5304, symBinAddr: 0x100009A3C, symSize: 0x28 }
  - { offsetInCU: 0x20748, offset: 0x24724, size: 0x8, addend: 0x0, symName: __ZNKSt3__16vectorINS_12basic_stringIcNS_11char_traitsIcEENS_9allocatorIcEEEENS4_IS6_EEE8capacityB8ue170006Ev, symObjAddr: 0x532C, symBinAddr: 0x100009A64, symSize: 0x40 }
  - { offsetInCU: 0x2076C, offset: 0x24748, size: 0x8, addend: 0x0, symName: __ZNKSt3__16vectorINS_12basic_stringIcNS_11char_traitsIcEENS_9allocatorIcEEEENS4_IS6_EEE9__end_capB8ue170006Ev, symObjAddr: 0x5380, symBinAddr: 0x100009AB8, symSize: 0x28 }
  - { offsetInCU: 0x20790, offset: 0x2476C, size: 0x8, addend: 0x0, symName: __ZNKSt3__117__compressed_pairIPNS_12basic_stringIcNS_11char_traitsIcEENS_9allocatorIcEEEENS4_IS6_EEE5firstB8ue170006Ev, symObjAddr: 0x53A8, symBinAddr: 0x100009AE0, symSize: 0x24 }
  - { offsetInCU: 0x207B4, offset: 0x24790, size: 0x8, addend: 0x0, symName: __ZNKSt3__122__compressed_pair_elemIPNS_12basic_stringIcNS_11char_traitsIcEENS_9allocatorIcEEEELi0ELb0EE5__getB8ue170006Ev, symObjAddr: 0x53CC, symBinAddr: 0x100009B04, symSize: 0x14 }
  - { offsetInCU: 0x207F1, offset: 0x247CD, size: 0x8, addend: 0x0, symName: __ZNSt3__16vectorINS_12basic_stringIcNS_11char_traitsIcEENS_9allocatorIcEEEENS4_IS6_EEE21_ConstructTransactionC1B8ue170006ERS8_m, symObjAddr: 0x53E0, symBinAddr: 0x100009B18, symSize: 0x3C }
  - { offsetInCU: 0x20838, offset: 0x24814, size: 0x8, addend: 0x0, symName: __ZNSt3__16vectorINS_12basic_stringIcNS_11char_traitsIcEENS_9allocatorIcEEEENS4_IS6_EEE21_ConstructTransactionD1B8ue170006Ev, symObjAddr: 0x549C, symBinAddr: 0x100009BD4, symSize: 0x2C }
  - { offsetInCU: 0x20861, offset: 0x2483D, size: 0x8, addend: 0x0, symName: __ZNSt3__16vectorINS_12basic_stringIcNS_11char_traitsIcEENS_9allocatorIcEEEENS4_IS6_EEE21_ConstructTransactionC2B8ue170006ERS8_m, symObjAddr: 0x54C8, symBinAddr: 0x100009C00, symSize: 0x4C }
  - { offsetInCU: 0x208C6, offset: 0x248A2, size: 0x8, addend: 0x0, symName: __ZNSt3__14pairIPKNS_12basic_stringIcNS_11char_traitsIcEENS_9allocatorIcEEEES8_EC1B8ue170006IS8_S8_LPv0EEEOT_OT0_, symObjAddr: 0x5724, symBinAddr: 0x100009E5C, symSize: 0x3C }
  - { offsetInCU: 0x20924, offset: 0x24900, size: 0x8, addend: 0x0, symName: __ZNSt3__14pairIPKNS_12basic_stringIcNS_11char_traitsIcEENS_9allocatorIcEEEES8_EC2B8ue170006IS8_S8_LPv0EEEOT_OT0_, symObjAddr: 0x5760, symBinAddr: 0x100009E98, symSize: 0x34 }
  - { offsetInCU: 0x20982, offset: 0x2495E, size: 0x8, addend: 0x0, symName: __ZNSt3__118__unwrap_iter_implIPKNS_12basic_stringIcNS_11char_traitsIcEENS_9allocatorIcEEEELb1EE8__unwrapB8ue170006ES8_, symObjAddr: 0x5794, symBinAddr: 0x100009ECC, symSize: 0x24 }
  - { offsetInCU: 0x209A5, offset: 0x24981, size: 0x8, addend: 0x0, symName: __ZNSt3__129_AllocatorDestroyRangeReverseINS_9allocatorINS_12basic_stringIcNS_11char_traitsIcEENS1_IcEEEEEEPS6_EC1B8ue170006ERS7_RS8_SB_, symObjAddr: 0x5818, symBinAddr: 0x100009F50, symSize: 0x44 }
  - { offsetInCU: 0x209FB, offset: 0x249D7, size: 0x8, addend: 0x0, symName: __ZNSt3__116allocator_traitsINS_9allocatorINS_12basic_stringIcNS_11char_traitsIcEENS1_IcEEEEEEE9constructB8ue170006IS6_JRKS6_EvEEvRS7_PT_DpOT0_, symObjAddr: 0x585C, symBinAddr: 0x100009F94, symSize: 0x34 }
  - { offsetInCU: 0x20A52, offset: 0x24A2E, size: 0x8, addend: 0x0, symName: __ZNSt3__128__exception_guard_exceptionsINS_29_AllocatorDestroyRangeReverseINS_9allocatorINS_12basic_stringIcNS_11char_traitsIcEENS2_IcEEEEEEPS7_EEE10__completeB8ue170006Ev, symObjAddr: 0x5890, symBinAddr: 0x100009FC8, symSize: 0x1C }
  - { offsetInCU: 0x20A76, offset: 0x24A52, size: 0x8, addend: 0x0, symName: __ZNSt3__128__exception_guard_exceptionsINS_29_AllocatorDestroyRangeReverseINS_9allocatorINS_12basic_stringIcNS_11char_traitsIcEENS2_IcEEEEEEPS7_EEED1B8ue170006Ev, symObjAddr: 0x58AC, symBinAddr: 0x100009FE4, symSize: 0x2C }
  - { offsetInCU: 0x20A9F, offset: 0x24A7B, size: 0x8, addend: 0x0, symName: __ZNSt3__128__exception_guard_exceptionsINS_29_AllocatorDestroyRangeReverseINS_9allocatorINS_12basic_stringIcNS_11char_traitsIcEENS2_IcEEEEEEPS7_EEEC1B8ue170006ESA_, symObjAddr: 0x58D8, symBinAddr: 0x10000A010, symSize: 0x34 }
  - { offsetInCU: 0x20AD7, offset: 0x24AB3, size: 0x8, addend: 0x0, symName: __ZNSt3__128__exception_guard_exceptionsINS_29_AllocatorDestroyRangeReverseINS_9allocatorINS_12basic_stringIcNS_11char_traitsIcEENS2_IcEEEEEEPS7_EEEC2B8ue170006ESA_, symObjAddr: 0x590C, symBinAddr: 0x10000A044, symSize: 0x30 }
  - { offsetInCU: 0x20B0F, offset: 0x24AEB, size: 0x8, addend: 0x0, symName: __ZNSt3__129_AllocatorDestroyRangeReverseINS_9allocatorINS_12basic_stringIcNS_11char_traitsIcEENS1_IcEEEEEEPS6_EC2B8ue170006ERS7_RS8_SB_, symObjAddr: 0x593C, symBinAddr: 0x10000A074, symSize: 0x38 }
  - { offsetInCU: 0x20B65, offset: 0x24B41, size: 0x8, addend: 0x0, symName: __ZNSt3__19allocatorINS_12basic_stringIcNS_11char_traitsIcEENS0_IcEEEEE9constructB8ue170006IS5_JRKS5_EEEvPT_DpOT0_, symObjAddr: 0x5974, symBinAddr: 0x10000A0AC, symSize: 0x30 }
  - { offsetInCU: 0x20BB9, offset: 0x24B95, size: 0x8, addend: 0x0, symName: __ZNSt3__128__exception_guard_exceptionsINS_29_AllocatorDestroyRangeReverseINS_9allocatorINS_12basic_stringIcNS_11char_traitsIcEENS2_IcEEEEEEPS7_EEED2B8ue170006Ev, symObjAddr: 0x59A4, symBinAddr: 0x10000A0DC, symSize: 0x50 }
  - { offsetInCU: 0x20BE2, offset: 0x24BBE, size: 0x8, addend: 0x0, symName: __ZNKSt3__129_AllocatorDestroyRangeReverseINS_9allocatorINS_12basic_stringIcNS_11char_traitsIcEENS1_IcEEEEEEPS6_EclB8ue170006Ev, symObjAddr: 0x59F4, symBinAddr: 0x10000A12C, symSize: 0x68 }
  - { offsetInCU: 0x20C06, offset: 0x24BE2, size: 0x8, addend: 0x0, symName: __ZNSt3__116reverse_iteratorIPNS_12basic_stringIcNS_11char_traitsIcEENS_9allocatorIcEEEEEC1B8ue170006ES7_, symObjAddr: 0x5ACC, symBinAddr: 0x10000A204, symSize: 0x34 }
  - { offsetInCU: 0x20C3D, offset: 0x24C19, size: 0x8, addend: 0x0, symName: __ZNSt3__116allocator_traitsINS_9allocatorINS_12basic_stringIcNS_11char_traitsIcEENS1_IcEEEEEEE7destroyB8ue170006IS6_vEEvRS7_PT_, symObjAddr: 0x5B48, symBinAddr: 0x10000A280, symSize: 0x2C }
  - { offsetInCU: 0x20C7A, offset: 0x24C56, size: 0x8, addend: 0x0, symName: __ZNSt3__116reverse_iteratorIPNS_12basic_stringIcNS_11char_traitsIcEENS_9allocatorIcEEEEEppB8ue170006Ev, symObjAddr: 0x5B98, symBinAddr: 0x10000A2D0, symSize: 0x20 }
  - { offsetInCU: 0x20C9E, offset: 0x24C7A, size: 0x8, addend: 0x0, symName: __ZNKSt3__116reverse_iteratorIPNS_12basic_stringIcNS_11char_traitsIcEENS_9allocatorIcEEEEE4baseB8ue170006Ev, symObjAddr: 0x5BB8, symBinAddr: 0x10000A2F0, symSize: 0x18 }
  - { offsetInCU: 0x20CC2, offset: 0x24C9E, size: 0x8, addend: 0x0, symName: __ZNSt3__19allocatorINS_12basic_stringIcNS_11char_traitsIcEENS0_IcEEEEE7destroyB8ue170006EPS5_, symObjAddr: 0x5BD0, symBinAddr: 0x10000A308, symSize: 0x28 }
  - { offsetInCU: 0x20CF9, offset: 0x24CD5, size: 0x8, addend: 0x0, symName: __ZNSt3__119__to_address_helperINS_16reverse_iteratorIPNS_12basic_stringIcNS_11char_traitsIcEENS_9allocatorIcEEEEEEvE6__callB8ue170006ERKS9_, symObjAddr: 0x5BF8, symBinAddr: 0x10000A330, symSize: 0x38 }
  - { offsetInCU: 0x20D1C, offset: 0x24CF8, size: 0x8, addend: 0x0, symName: __ZNKSt3__116reverse_iteratorIPNS_12basic_stringIcNS_11char_traitsIcEENS_9allocatorIcEEEEEptB8ue170006Ev, symObjAddr: 0x5C30, symBinAddr: 0x10000A368, symSize: 0x24 }
  - { offsetInCU: 0x20D40, offset: 0x24D1C, size: 0x8, addend: 0x0, symName: __ZNKSt3__116reverse_iteratorIPNS_12basic_stringIcNS_11char_traitsIcEENS_9allocatorIcEEEEEdeB8ue170006Ev, symObjAddr: 0x5C54, symBinAddr: 0x10000A38C, symSize: 0x28 }
  - { offsetInCU: 0x20D72, offset: 0x24D4E, size: 0x8, addend: 0x0, symName: __ZNSt3__116reverse_iteratorIPNS_12basic_stringIcNS_11char_traitsIcEENS_9allocatorIcEEEEEC2B8ue170006ES7_, symObjAddr: 0x5C7C, symBinAddr: 0x10000A3B4, symSize: 0x28 }
  - { offsetInCU: 0x20DA9, offset: 0x24D85, size: 0x8, addend: 0x0, symName: __ZNSt3__118__unwrap_iter_implIPNS_12basic_stringIcNS_11char_traitsIcEENS_9allocatorIcEEEELb1EE8__unwrapB8ue170006ES7_, symObjAddr: 0x5CA4, symBinAddr: 0x10000A3DC, symSize: 0x24 }
  - { offsetInCU: 0x20DCC, offset: 0x24DA8, size: 0x8, addend: 0x0, symName: __ZNSt3__118__unwrap_iter_implIPNS_12basic_stringIcNS_11char_traitsIcEENS_9allocatorIcEEEELb1EE8__rewrapB8ue170006ES7_S7_, symObjAddr: 0x5CC8, symBinAddr: 0x10000A400, symSize: 0x58 }
  - { offsetInCU: 0x20DFD, offset: 0x24DD9, size: 0x8, addend: 0x0, symName: __ZNSt3__16vectorINS_12basic_stringIcNS_11char_traitsIcEENS_9allocatorIcEEEENS4_IS6_EEE21_ConstructTransactionD2B8ue170006Ev, symObjAddr: 0x5D20, symBinAddr: 0x10000A458, symSize: 0x20 }
  - { offsetInCU: 0x20E26, offset: 0x24E02, size: 0x8, addend: 0x0, symName: __ZNSt3__128__exception_guard_exceptionsINS_6vectorINS_12basic_stringIcNS_11char_traitsIcEENS_9allocatorIcEEEENS5_IS7_EEE16__destroy_vectorEED2B8ue170006Ev, symObjAddr: 0x5D40, symBinAddr: 0x10000A478, symSize: 0x50 }
  - { offsetInCU: 0x20E4F, offset: 0x24E2B, size: 0x8, addend: 0x0, symName: __ZNSt3__16vectorINS_12basic_stringIcNS_11char_traitsIcEENS_9allocatorIcEEEENS4_IS6_EEE16__destroy_vectorclB8ue170006Ev, symObjAddr: 0x5D90, symBinAddr: 0x10000A4C8, symSize: 0x90 }
  - { offsetInCU: 0x20E73, offset: 0x24E4F, size: 0x8, addend: 0x0, symName: __ZNSt3__16vectorINS_12basic_stringIcNS_11char_traitsIcEENS_9allocatorIcEEEENS4_IS6_EEE7__clearB8ue170006Ev, symObjAddr: 0x5E20, symBinAddr: 0x10000A558, symSize: 0x28 }
  - { offsetInCU: 0x20E97, offset: 0x24E73, size: 0x8, addend: 0x0, symName: __ZNKSt3__16vectorINS_12basic_stringIcNS_11char_traitsIcEENS_9allocatorIcEEEENS4_IS6_EEE17__annotate_deleteB8ue170006Ev, symObjAddr: 0x5E48, symBinAddr: 0x10000A580, symSize: 0xD4 }
  - { offsetInCU: 0x20EBB, offset: 0x24E97, size: 0x8, addend: 0x0, symName: __ZNSt3__116allocator_traitsINS_9allocatorINS_12basic_stringIcNS_11char_traitsIcEENS1_IcEEEEEEE10deallocateB8ue170006ERS7_PS6_m, symObjAddr: 0x5F1C, symBinAddr: 0x10000A654, symSize: 0x34 }
  - { offsetInCU: 0x20EFD, offset: 0x24ED9, size: 0x8, addend: 0x0, symName: __ZNSt3__16vectorINS_12basic_stringIcNS_11char_traitsIcEENS_9allocatorIcEEEENS4_IS6_EEE22__base_destruct_at_endB8ue170006EPS6_, symObjAddr: 0x5F50, symBinAddr: 0x10000A688, symSize: 0x8C }
  - { offsetInCU: 0x20F3F, offset: 0x24F1B, size: 0x8, addend: 0x0, symName: __ZNKSt3__16vectorINS_12basic_stringIcNS_11char_traitsIcEENS_9allocatorIcEEEENS4_IS6_EEE4sizeB8ue170006Ev, symObjAddr: 0x5FDC, symBinAddr: 0x10000A714, symSize: 0x28 }
  - { offsetInCU: 0x20F63, offset: 0x24F3F, size: 0x8, addend: 0x0, symName: __ZNSt3__19allocatorINS_12basic_stringIcNS_11char_traitsIcEENS0_IcEEEEE10deallocateB8ue170006EPS5_m, symObjAddr: 0x6004, symBinAddr: 0x10000A73C, symSize: 0x44 }
  - { offsetInCU: 0x20FA3, offset: 0x24F7F, size: 0x8, addend: 0x0, symName: __ZNSt3__16vectorINS_12basic_stringIcNS_11char_traitsIcEENS_9allocatorIcEEEENS4_IS6_EEED2B8ue170006Ev, symObjAddr: 0x6048, symBinAddr: 0x10000A780, symSize: 0x40 }
  - { offsetInCU: 0x20FCC, offset: 0x24FA8, size: 0x8, addend: 0x0, symName: __ZNSt3__16vectorINS_12basic_stringIcNS_11char_traitsIcEENS_9allocatorIcEEEENS4_IS6_EEEC2ERKS8_, symObjAddr: 0x6088, symBinAddr: 0x10000A7C0, symSize: 0x94 }
  - { offsetInCU: 0x21006, offset: 0x24FE2, size: 0x8, addend: 0x0, symName: __ZNSt3__116allocator_traitsINS_9allocatorINS_12basic_stringIcNS_11char_traitsIcEENS1_IcEEEEEEE37select_on_container_copy_constructionB8ue170006IS7_vvEES7_RKS7_, symObjAddr: 0x611C, symBinAddr: 0x10000A854, symSize: 0x10 }
  - { offsetInCU: 0x2103A, offset: 0x25016, size: 0x8, addend: 0x0, symName: __ZNSt3__117__compressed_pairIPNS_12basic_stringIcNS_11char_traitsIcEENS_9allocatorIcEEEENS4_IS6_EEEC1B8ue170006IDnS8_EEOT_OT0_, symObjAddr: 0x612C, symBinAddr: 0x10000A864, symSize: 0x3C }
  - { offsetInCU: 0x21091, offset: 0x2506D, size: 0x8, addend: 0x0, symName: __ZNSt3__16vectorINS_12basic_stringIcNS_11char_traitsIcEENS_9allocatorIcEEEENS4_IS6_EEE16__init_with_sizeB8ue170006IPS6_SA_EEvT_T0_m, symObjAddr: 0x6168, symBinAddr: 0x10000A8A0, symSize: 0xB8 }
  - { offsetInCU: 0x21103, offset: 0x250DF, size: 0x8, addend: 0x0, symName: __ZNSt3__117__compressed_pairIPNS_12basic_stringIcNS_11char_traitsIcEENS_9allocatorIcEEEENS4_IS6_EEEC2B8ue170006IDnS8_EEOT_OT0_, symObjAddr: 0x6220, symBinAddr: 0x10000A958, symSize: 0x44 }
  - { offsetInCU: 0x2115A, offset: 0x25136, size: 0x8, addend: 0x0, symName: __ZNSt3__122__compressed_pair_elemINS_9allocatorINS_12basic_stringIcNS_11char_traitsIcEENS1_IcEEEEEELi1ELb1EEC2B8ue170006IS7_vEEOT_, symObjAddr: 0x6264, symBinAddr: 0x10000A99C, symSize: 0x18 }
  - { offsetInCU: 0x2119B, offset: 0x25177, size: 0x8, addend: 0x0, symName: __ZNSt3__16vectorINS_12basic_stringIcNS_11char_traitsIcEENS_9allocatorIcEEEENS4_IS6_EEE18__construct_at_endIPS6_SA_EEvT_T0_m, symObjAddr: 0x627C, symBinAddr: 0x10000A9B4, symSize: 0x8C }
  - { offsetInCU: 0x2122E, offset: 0x2520A, size: 0x8, addend: 0x0, symName: __ZNSt3__14pairIPNS_12basic_stringIcNS_11char_traitsIcEENS_9allocatorIcEEEES7_EC1B8ue170006IS7_S7_LPv0EEEOT_OT0_, symObjAddr: 0x6514, symBinAddr: 0x10000AC4C, symSize: 0x3C }
  - { offsetInCU: 0x2128C, offset: 0x25268, size: 0x8, addend: 0x0, symName: __ZNSt3__14pairIPNS_12basic_stringIcNS_11char_traitsIcEENS_9allocatorIcEEEES7_EC2B8ue170006IS7_S7_LPv0EEEOT_OT0_, symObjAddr: 0x6550, symBinAddr: 0x10000AC88, symSize: 0x34 }
  - { offsetInCU: 0x212EA, offset: 0x252C6, size: 0x8, addend: 0x0, symName: __ZNSt3__116allocator_traitsINS_9allocatorINS_12basic_stringIcNS_11char_traitsIcEENS1_IcEEEEEEE9constructB8ue170006IS6_JRS6_EvEEvRS7_PT_DpOT0_, symObjAddr: 0x6584, symBinAddr: 0x10000ACBC, symSize: 0x34 }
  - { offsetInCU: 0x21341, offset: 0x2531D, size: 0x8, addend: 0x0, symName: __ZNSt3__19allocatorINS_12basic_stringIcNS_11char_traitsIcEENS0_IcEEEEE9constructB8ue170006IS5_JRS5_EEEvPT_DpOT0_, symObjAddr: 0x65B8, symBinAddr: 0x10000ACF0, symSize: 0x30 }
  - { offsetInCU: 0x213B3, offset: 0x2538F, size: 0x8, addend: 0x0, symName: __ZNKSt3__113basic_ostreamIcNS_11char_traitsIcEEE6sentrycvbB8ue170006Ev, symObjAddr: 0x67D4, symBinAddr: 0x10000AF0C, symSize: 0x1C }
  - { offsetInCU: 0x213D7, offset: 0x253B3, size: 0x8, addend: 0x0, symName: __ZNSt3__119ostreambuf_iteratorIcNS_11char_traitsIcEEEC1B8ue170006ERNS_13basic_ostreamIcS2_EE, symObjAddr: 0x6A30, symBinAddr: 0x10000B168, symSize: 0x34 }
  - { offsetInCU: 0x2140E, offset: 0x253EA, size: 0x8, addend: 0x0, symName: __ZNKSt3__18ios_base5flagsB8ue170006Ev, symObjAddr: 0x6A64, symBinAddr: 0x10000B19C, symSize: 0x18 }
  - { offsetInCU: 0x21435, offset: 0x25411, size: 0x8, addend: 0x0, symName: __ZNKSt3__19basic_iosIcNS_11char_traitsIcEEE4fillB8ue170006Ev, symObjAddr: 0x6A7C, symBinAddr: 0x10000B1B4, symSize: 0x64 }
  - { offsetInCU: 0x2145C, offset: 0x25438, size: 0x8, addend: 0x0, symName: __ZNKSt3__119ostreambuf_iteratorIcNS_11char_traitsIcEEE6failedB8ue170006Ev, symObjAddr: 0x6AE0, symBinAddr: 0x10000B218, symSize: 0x24 }
  - { offsetInCU: 0x21480, offset: 0x2545C, size: 0x8, addend: 0x0, symName: __ZNSt3__19basic_iosIcNS_11char_traitsIcEEE8setstateB8ue170006Ej, symObjAddr: 0x6B04, symBinAddr: 0x10000B23C, symSize: 0x2C }
  - { offsetInCU: 0x214B3, offset: 0x2548F, size: 0x8, addend: 0x0, symName: __ZNKSt3__18ios_base5widthB8ue170006Ev, symObjAddr: 0x6B30, symBinAddr: 0x10000B268, symSize: 0x18 }
  - { offsetInCU: 0x214DA, offset: 0x254B6, size: 0x8, addend: 0x0, symName: __ZNSt3__115basic_streambufIcNS_11char_traitsIcEEE5sputnB8ue170006EPKcl, symObjAddr: 0x6B48, symBinAddr: 0x10000B280, symSize: 0x3C }
  - { offsetInCU: 0x2151A, offset: 0x254F6, size: 0x8, addend: 0x0, symName: __ZNSt3__112basic_stringIcNS_11char_traitsIcEENS_9allocatorIcEEEC1B8ue170006Emc, symObjAddr: 0x6B84, symBinAddr: 0x10000B2BC, symSize: 0x3C }
  - { offsetInCU: 0x21561, offset: 0x2553D, size: 0x8, addend: 0x0, symName: __ZNSt3__112basic_stringIcNS_11char_traitsIcEENS_9allocatorIcEEE4dataB8ue170006Ev, symObjAddr: 0x6BC0, symBinAddr: 0x10000B2F8, symSize: 0x28 }
  - { offsetInCU: 0x21585, offset: 0x25561, size: 0x8, addend: 0x0, symName: __ZNSt3__18ios_base5widthB8ue170006El, symObjAddr: 0x6BE8, symBinAddr: 0x10000B320, symSize: 0x2C }
  - { offsetInCU: 0x215CA, offset: 0x255A6, size: 0x8, addend: 0x0, symName: __ZNSt3__112basic_stringIcNS_11char_traitsIcEENS_9allocatorIcEEEC2B8ue170006Emc, symObjAddr: 0x6C14, symBinAddr: 0x10000B34C, symSize: 0x4C }
  - { offsetInCU: 0x21611, offset: 0x255ED, size: 0x8, addend: 0x0, symName: __ZNSt3__112basic_stringIcNS_11char_traitsIcEENS_9allocatorIcEEE13__get_pointerB8ue170006Ev, symObjAddr: 0x6C74, symBinAddr: 0x10000B3AC, symSize: 0x54 }
  - { offsetInCU: 0x21635, offset: 0x25611, size: 0x8, addend: 0x0, symName: __ZNKSt3__112basic_stringIcNS_11char_traitsIcEENS_9allocatorIcEEE9__is_longB8ue170006Ev, symObjAddr: 0x6CC8, symBinAddr: 0x10000B400, symSize: 0x38 }
  - { offsetInCU: 0x21659, offset: 0x25635, size: 0x8, addend: 0x0, symName: __ZNSt3__112basic_stringIcNS_11char_traitsIcEENS_9allocatorIcEEE18__get_long_pointerB8ue170006Ev, symObjAddr: 0x6D00, symBinAddr: 0x10000B438, symSize: 0x28 }
  - { offsetInCU: 0x2167D, offset: 0x25659, size: 0x8, addend: 0x0, symName: __ZNSt3__112basic_stringIcNS_11char_traitsIcEENS_9allocatorIcEEE19__get_short_pointerB8ue170006Ev, symObjAddr: 0x6D28, symBinAddr: 0x10000B460, symSize: 0x28 }
  - { offsetInCU: 0x216A1, offset: 0x2567D, size: 0x8, addend: 0x0, symName: __ZNKSt3__117__compressed_pairINS_12basic_stringIcNS_11char_traitsIcEENS_9allocatorIcEEE5__repES5_E5firstB8ue170006Ev, symObjAddr: 0x6D50, symBinAddr: 0x10000B488, symSize: 0x24 }
  - { offsetInCU: 0x216C5, offset: 0x256A1, size: 0x8, addend: 0x0, symName: __ZNKSt3__122__compressed_pair_elemINS_12basic_stringIcNS_11char_traitsIcEENS_9allocatorIcEEE5__repELi0ELb0EE5__getB8ue170006Ev, symObjAddr: 0x6D74, symBinAddr: 0x10000B4AC, symSize: 0x14 }
  - { offsetInCU: 0x216E9, offset: 0x256C5, size: 0x8, addend: 0x0, symName: __ZNSt3__117__compressed_pairINS_12basic_stringIcNS_11char_traitsIcEENS_9allocatorIcEEE5__repES5_E5firstB8ue170006Ev, symObjAddr: 0x6D88, symBinAddr: 0x10000B4C0, symSize: 0x24 }
  - { offsetInCU: 0x2170D, offset: 0x256E9, size: 0x8, addend: 0x0, symName: __ZNSt3__122__compressed_pair_elemINS_12basic_stringIcNS_11char_traitsIcEENS_9allocatorIcEEE5__repELi0ELb0EE5__getB8ue170006Ev, symObjAddr: 0x6DAC, symBinAddr: 0x10000B4E4, symSize: 0x14 }
  - { offsetInCU: 0x21731, offset: 0x2570D, size: 0x8, addend: 0x0, symName: __ZNSt3__114pointer_traitsIPcE10pointer_toB8ue170006ERc, symObjAddr: 0x6DC0, symBinAddr: 0x10000B4F8, symSize: 0x14 }
  - { offsetInCU: 0x21754, offset: 0x25730, size: 0x8, addend: 0x0, symName: __ZNSt3__119ostreambuf_iteratorIcNS_11char_traitsIcEEEC2B8ue170006ERNS_13basic_ostreamIcS2_EE, symObjAddr: 0x6DD4, symBinAddr: 0x10000B50C, symSize: 0x54 }
  - { offsetInCU: 0x2178B, offset: 0x25767, size: 0x8, addend: 0x0, symName: __ZNKSt3__19basic_iosIcNS_11char_traitsIcEEE5rdbufB8ue170006Ev, symObjAddr: 0x6E28, symBinAddr: 0x10000B560, symSize: 0x24 }
  - { offsetInCU: 0x217B2, offset: 0x2578E, size: 0x8, addend: 0x0, symName: __ZNKSt3__18ios_base5rdbufB8ue170006Ev, symObjAddr: 0x6E4C, symBinAddr: 0x10000B584, symSize: 0x18 }
  - { offsetInCU: 0x217D6, offset: 0x257B2, size: 0x8, addend: 0x0, symName: __ZNSt3__111char_traitsIcE11eq_int_typeB8ue170006Eii, symObjAddr: 0x6E64, symBinAddr: 0x10000B59C, symSize: 0x28 }
  - { offsetInCU: 0x21809, offset: 0x257E5, size: 0x8, addend: 0x0, symName: __ZNSt3__111char_traitsIcE3eofB8ue170006Ev, symObjAddr: 0x6E8C, symBinAddr: 0x10000B5C4, symSize: 0x8 }
  - { offsetInCU: 0x2181D, offset: 0x257F9, size: 0x8, addend: 0x0, symName: __ZNKSt3__19basic_iosIcNS_11char_traitsIcEEE5widenB8ue170006Ec, symObjAddr: 0x6E94, symBinAddr: 0x10000B5CC, symSize: 0x84 }
  - { offsetInCU: 0x2188A, offset: 0x25866, size: 0x8, addend: 0x0, symName: __ZNKSt3__15ctypeIcE5widenB8ue170006Ec, symObjAddr: 0x6F44, symBinAddr: 0x10000B67C, symSize: 0x38 }
  - { offsetInCU: 0x218BD, offset: 0x25899, size: 0x8, addend: 0x0, symName: __ZNSt3__18ios_base8setstateB8ue170006Ej, symObjAddr: 0x6F7C, symBinAddr: 0x10000B6B4, symSize: 0x34 }
  - { offsetInCU: 0x218F3, offset: 0x258CF, size: 0x8, addend: 0x0, symName: __ZN3glm3vecILi4EfLNS_9qualifierE0EEixEi, symObjAddr: 0x718C, symBinAddr: 0x10000B8C4, symSize: 0x10C }
  - { offsetInCU: 0x21929, offset: 0x25905, size: 0x8, addend: 0x0, symName: __ZN3glm6detail17compute_normalizeILi3EfLNS_9qualifierE0ELb0EE4callERKNS_3vecILi3EfLS2_0EEE, symObjAddr: 0x76A8, symBinAddr: 0x10000BDE0, symSize: 0x54 }
  - { offsetInCU: 0x2194B, offset: 0x25927, size: 0x8, addend: 0x0, symName: __Z4sqrtB8ue170006f, symObjAddr: 0x7790, symBinAddr: 0x10000BEC8, symSize: 0x18 }
  - { offsetInCU: 0x2197B, offset: 0x25957, size: 0x8, addend: 0x0, symName: __ZN3glm6detail13compute_crossIfLNS_9qualifierE0ELb0EE4callERKNS_3vecILi3EfLS2_0EEES7_, symObjAddr: 0x77A8, symBinAddr: 0x10000BEE0, symSize: 0xAC }
  - { offsetInCU: 0x219AC, offset: 0x25988, size: 0x8, addend: 0x0, symName: __ZN3glm6detail11compute_dotINS_3vecILi3EfLNS_9qualifierE0EEEfLb0EE4callERKS4_S7_, symObjAddr: 0x7854, symBinAddr: 0x10000BF8C, symSize: 0x4C }
  - { offsetInCU: 0x26, offset: 0x261D2, size: 0x8, addend: 0x0, symName: __ZN3VAOC2Ev, symObjAddr: 0x0, symBinAddr: 0x10000C048, symSize: 0x3C }
  - { offsetInCU: 0x2961, offset: 0x28B0D, size: 0x8, addend: 0x0, symName: __ZN3VAOC2Ev, symObjAddr: 0x0, symBinAddr: 0x10000C048, symSize: 0x3C }
  - { offsetInCU: 0x298B, offset: 0x28B37, size: 0x8, addend: 0x0, symName: __ZN3VAOC1Ev, symObjAddr: 0x3C, symBinAddr: 0x10000C084, symSize: 0x2C }
  - { offsetInCU: 0x29B5, offset: 0x28B61, size: 0x8, addend: 0x0, symName: __ZN3VAO10LinkAttribER3VBOjjjlPv, symObjAddr: 0x68, symBinAddr: 0x10000C0B0, symSize: 0x84 }
  - { offsetInCU: 0x2A2F, offset: 0x28BDB, size: 0x8, addend: 0x0, symName: __ZN3VAO4BindEv, symObjAddr: 0xEC, symBinAddr: 0x10000C134, symSize: 0x34 }
  - { offsetInCU: 0x2A55, offset: 0x28C01, size: 0x8, addend: 0x0, symName: __ZN3VAO6UnbindEv, symObjAddr: 0x120, symBinAddr: 0x10000C168, symSize: 0x30 }
  - { offsetInCU: 0x2A7B, offset: 0x28C27, size: 0x8, addend: 0x0, symName: __ZN3VAO6DeleteEv, symObjAddr: 0x150, symBinAddr: 0x10000C198, symSize: 0x34 }
  - { offsetInCU: 0x26, offset: 0x28C78, size: 0x8, addend: 0x0, symName: __ZN3VBOC2ERNSt3__16vectorI6VertexNS0_9allocatorIS2_EEEE, symObjAddr: 0x0, symBinAddr: 0x10000C1CC, symSize: 0xA4 }
  - { offsetInCU: 0x33B1, offset: 0x2C003, size: 0x8, addend: 0x0, symName: __ZN3VBOC2ERNSt3__16vectorI6VertexNS0_9allocatorIS2_EEEE, symObjAddr: 0x0, symBinAddr: 0x10000C1CC, symSize: 0xA4 }
  - { offsetInCU: 0x33E9, offset: 0x2C03B, size: 0x8, addend: 0x0, symName: __ZNSt3__16vectorI6VertexNS_9allocatorIS1_EEE4dataB8ue170006Ev, symObjAddr: 0xCC, symBinAddr: 0x10000C270, symSize: 0x28 }
  - { offsetInCU: 0x340D, offset: 0x2C05F, size: 0x8, addend: 0x0, symName: __ZN3VBOC1ERNSt3__16vectorI6VertexNS0_9allocatorIS2_EEEE, symObjAddr: 0xF4, symBinAddr: 0x10000C298, symSize: 0x34 }
  - { offsetInCU: 0x3445, offset: 0x2C097, size: 0x8, addend: 0x0, symName: __ZN3VBO4BindEv, symObjAddr: 0x128, symBinAddr: 0x10000C2CC, symSize: 0x38 }
  - { offsetInCU: 0x346B, offset: 0x2C0BD, size: 0x8, addend: 0x0, symName: __ZN3VBO6UnbindEv, symObjAddr: 0x160, symBinAddr: 0x10000C304, symSize: 0x34 }
  - { offsetInCU: 0x3491, offset: 0x2C0E3, size: 0x8, addend: 0x0, symName: __ZN3VBO6DeleteEv, symObjAddr: 0x194, symBinAddr: 0x10000C338, symSize: 0x34 }
  - { offsetInCU: 0x7E9, offset: 0x2C8FC, size: 0x8, addend: 0x0, symName: __ZN3glmplIfLNS_9qualifierE0EEENS_3vecILi3ET_XT0_EEERKS4_S6_, symObjAddr: 0x32C, symBinAddr: 0x10000C620, symSize: 0x70 }
  - { offsetInCU: 0x839, offset: 0x2C94C, size: 0x8, addend: 0x0, symName: __ZN3glm11perspectiveIfEENS_3matILi4ELi4ET_LNS_9qualifierE0EEES2_S2_S2_S2_, symObjAddr: 0x39C, symBinAddr: 0x10000C690, symSize: 0x3C }
  - { offsetInCU: 0x89D, offset: 0x2C9B0, size: 0x8, addend: 0x0, symName: __ZN3glm7radiansIfEET_S1_, symObjAddr: 0x3D8, symBinAddr: 0x10000C6CC, symSize: 0x24 }
  - { offsetInCU: 0x8D2, offset: 0x2C9E5, size: 0x8, addend: 0x0, symName: __ZN3glm6rotateIfLNS_9qualifierE0EEENS_3vecILi3ET_XT0_EEERKS4_RKS3_S6_, symObjAddr: 0x11F8, symBinAddr: 0x10000CD90, symSize: 0x70 }
  - { offsetInCU: 0x92D, offset: 0x2CA40, size: 0x8, addend: 0x0, symName: __ZN3glm5angleILi3EfLNS_9qualifierE0EEET0_RKNS_3vecIXT_ES2_XT1_EEES6_, symObjAddr: 0x1268, symBinAddr: 0x10000CE00, symSize: 0x3C }
  - { offsetInCU: 0x984, offset: 0x2CA97, size: 0x8, addend: 0x0, symName: __ZN3glmngIfLNS_9qualifierE0EEENS_3vecILi3ET_XT0_EEERKS4_, symObjAddr: 0x12A4, symBinAddr: 0x10000CE3C, symSize: 0x54 }
  - { offsetInCU: 0x9FA, offset: 0x2CB0D, size: 0x8, addend: 0x0, symName: __ZN3glm16perspectiveRH_NOIfEENS_3matILi4ELi4ET_LNS_9qualifierE0EEES2_S2_S2_S2_, symObjAddr: 0x223C, symBinAddr: 0x10000D1B8, symSize: 0x1C8 }
  - { offsetInCU: 0xA76, offset: 0x2CB89, size: 0x8, addend: 0x0, symName: __ZN3glm3absIfEET_S1_, symObjAddr: 0x2404, symBinAddr: 0x10000D380, symSize: 0x24 }
  - { offsetInCU: 0xAAD, offset: 0x2CBC0, size: 0x8, addend: 0x0, symName: __ZN3glmmlIfLNS_9qualifierE0EEENS_3matILi3ELi3ET_XT0_EE8col_typeERKS4_RKNS4_8row_typeE, symObjAddr: 0x2548, symBinAddr: 0x10000D428, symSize: 0x1DC }
  - { offsetInCU: 0xAFD, offset: 0x2CC10, size: 0x8, addend: 0x0, symName: __ZN3glm6rotateIfLNS_9qualifierE0EEENS_3matILi4ELi4ET_XT0_EEES3_RKNS_3vecILi3ES3_XT0_EEE, symObjAddr: 0x2724, symBinAddr: 0x10000D604, symSize: 0x48 }
  - { offsetInCU: 0xB4A, offset: 0x2CC5D, size: 0x8, addend: 0x0, symName: __ZN3glm6rotateIfLNS_9qualifierE0EEENS_3matILi4ELi4ET_XT0_EEERKS4_S3_RKNS_3vecILi3ES3_XT0_EEE, symObjAddr: 0x2978, symBinAddr: 0x10000D858, symSize: 0x8E4 }
  - { offsetInCU: 0xC0A, offset: 0x2CD1D, size: 0x8, addend: 0x0, symName: __ZN3glm5clampIfEET_S1_S1_S1_, symObjAddr: 0x34BC, symBinAddr: 0x10000E39C, symSize: 0x38 }
  - { offsetInCU: 0xC5F, offset: 0x2CD72, size: 0x8, addend: 0x0, symName: __ZN3glm3minIfEET_S1_S1_, symObjAddr: 0x34F4, symBinAddr: 0x10000E3D4, symSize: 0x48 }
  - { offsetInCU: 0xCA2, offset: 0x2CDB5, size: 0x8, addend: 0x0, symName: __ZN3glm3maxIfEET_S1_S1_, symObjAddr: 0x353C, symBinAddr: 0x10000E41C, symSize: 0x48 }
  - { offsetInCU: 0x3ABA, offset: 0x2FBCD, size: 0x8, addend: 0x0, symName: __ZN6CameraC2EiiN3glm3vecILi3EfLNS0_9qualifierE0EEE, symObjAddr: 0x0, symBinAddr: 0x10000C36C, symSize: 0xE4 }
  - { offsetInCU: 0x3B0E, offset: 0x2FC21, size: 0x8, addend: 0x0, symName: __ZN3glm3matILi4ELi4EfLNS_9qualifierE0EEC1Ef, symObjAddr: 0x128, symBinAddr: 0x10000C450, symSize: 0x34 }
  - { offsetInCU: 0x3B46, offset: 0x2FC59, size: 0x8, addend: 0x0, symName: __ZN6CameraC1EiiN3glm3vecILi3EfLNS0_9qualifierE0EEE, symObjAddr: 0x15C, symBinAddr: 0x10000C484, symSize: 0x54 }
  - { offsetInCU: 0x3B9A, offset: 0x2FCAD, size: 0x8, addend: 0x0, symName: __ZN6Camera13update_matrixEfff, symObjAddr: 0x1B0, symBinAddr: 0x10000C4D8, symSize: 0x148 }
  - { offsetInCU: 0x3BEA, offset: 0x2FCFD, size: 0x8, addend: 0x0, symName: __ZN6Camera6matrixER6ShaderPKc, symObjAddr: 0x9E8, symBinAddr: 0x10000C6F0, symSize: 0x80 }
  - { offsetInCU: 0x3C2C, offset: 0x2FD3F, size: 0x8, addend: 0x0, symName: __ZN6Camera6inputsEP10GLFWwindow, symObjAddr: 0xA90, symBinAddr: 0x10000C770, symSize: 0x578 }
  - { offsetInCU: 0x3CBA, offset: 0x2FDCD, size: 0x8, addend: 0x0, symName: __ZN3glm3vecILi3EfLNS_9qualifierE0EEpLIfEERS2_RKNS0_ILi3ET_LS1_0EEE, symObjAddr: 0x106C, symBinAddr: 0x10000CCE8, symSize: 0x54 }
  - { offsetInCU: 0x3CF8, offset: 0x2FE0B, size: 0x8, addend: 0x0, symName: __ZN3glm3vecILi3EfLNS_9qualifierE0EEmIIfEERS2_RKNS0_ILi3ET_LS1_0EEE, symObjAddr: 0x10C0, symBinAddr: 0x10000CD3C, symSize: 0x54 }
  - { offsetInCU: 0x3D37, offset: 0x2FE4A, size: 0x8, addend: 0x0, symName: __ZN3glm3matILi4ELi4EfLNS_9qualifierE0EEC2Ef, symObjAddr: 0x1330, symBinAddr: 0x10000CE90, symSize: 0x98 }
  - { offsetInCU: 0x3D6F, offset: 0x2FE82, size: 0x8, addend: 0x0, symName: __ZN3glm3vecILi4EfLNS_9qualifierE0EEC1IfiiiEET_T0_T1_T2_, symObjAddr: 0x13C8, symBinAddr: 0x10000CF28, symSize: 0x4C }
  - { offsetInCU: 0x3DF5, offset: 0x2FF08, size: 0x8, addend: 0x0, symName: __ZN3glm3vecILi4EfLNS_9qualifierE0EEC1IifiiEET_T0_T1_T2_, symObjAddr: 0x1414, symBinAddr: 0x10000CF74, symSize: 0x4C }
  - { offsetInCU: 0x3E7B, offset: 0x2FF8E, size: 0x8, addend: 0x0, symName: __ZN3glm3vecILi4EfLNS_9qualifierE0EEC1IiifiEET_T0_T1_T2_, symObjAddr: 0x1460, symBinAddr: 0x10000CFC0, symSize: 0x4C }
  - { offsetInCU: 0x3F01, offset: 0x30014, size: 0x8, addend: 0x0, symName: __ZN3glm3vecILi4EfLNS_9qualifierE0EEC1IiiifEET_T0_T1_T2_, symObjAddr: 0x14AC, symBinAddr: 0x10000D00C, symSize: 0x4C }
  - { offsetInCU: 0x3F87, offset: 0x3009A, size: 0x8, addend: 0x0, symName: __ZN3glm3vecILi4EfLNS_9qualifierE0EEC2IfiiiEET_T0_T1_T2_, symObjAddr: 0x14F8, symBinAddr: 0x10000D058, symSize: 0x50 }
  - { offsetInCU: 0x400E, offset: 0x30121, size: 0x8, addend: 0x0, symName: __ZN3glm3vecILi4EfLNS_9qualifierE0EEC2IifiiEET_T0_T1_T2_, symObjAddr: 0x1548, symBinAddr: 0x10000D0A8, symSize: 0x50 }
  - { offsetInCU: 0x4095, offset: 0x301A8, size: 0x8, addend: 0x0, symName: __ZN3glm3vecILi4EfLNS_9qualifierE0EEC2IiifiEET_T0_T1_T2_, symObjAddr: 0x1598, symBinAddr: 0x10000D0F8, symSize: 0x50 }
  - { offsetInCU: 0x411C, offset: 0x3022F, size: 0x8, addend: 0x0, symName: __ZN3glm3vecILi4EfLNS_9qualifierE0EEC2IiiifEET_T0_T1_T2_, symObjAddr: 0x15E8, symBinAddr: 0x10000D148, symSize: 0x50 }
  - { offsetInCU: 0x41B7, offset: 0x302CA, size: 0x8, addend: 0x0, symName: __ZNSt3__114numeric_limitsIfE7epsilonB8ue170006Ev, symObjAddr: 0x2428, symBinAddr: 0x10000D3A4, symSize: 0x14 }
  - { offsetInCU: 0x41CB, offset: 0x302DE, size: 0x8, addend: 0x0, symName: __Z3tanB8ue170006f, symObjAddr: 0x243C, symBinAddr: 0x10000D3B8, symSize: 0x24 }
  - { offsetInCU: 0x41F9, offset: 0x3030C, size: 0x8, addend: 0x0, symName: __ZN3glm6detail11compute_absIfLb1EE4callEf, symObjAddr: 0x2460, symBinAddr: 0x10000D3DC, symSize: 0x44 }
  - { offsetInCU: 0x421C, offset: 0x3032F, size: 0x8, addend: 0x0, symName: __ZNSt3__123__libcpp_numeric_limitsIfLb1EE7epsilonB8ue170006Ev, symObjAddr: 0x24A4, symBinAddr: 0x10000D420, symSize: 0x8 }
  - { offsetInCU: 0x4230, offset: 0x30343, size: 0x8, addend: 0x0, symName: __ZN3glm3matILi3ELi3EfLNS_9qualifierE0EEC1ERKNS0_ILi4ELi4EfLS1_0EEE, symObjAddr: 0x276C, symBinAddr: 0x10000D64C, symSize: 0x34 }
  - { offsetInCU: 0x4268, offset: 0x3037B, size: 0x8, addend: 0x0, symName: __ZNK3glm3matILi3ELi3EfLNS_9qualifierE0EEixEi, symObjAddr: 0x27A0, symBinAddr: 0x10000D680, symSize: 0xC0 }
  - { offsetInCU: 0x429C, offset: 0x303AF, size: 0x8, addend: 0x0, symName: __ZNK3glm3vecILi3EfLNS_9qualifierE0EEixEi, symObjAddr: 0x2860, symBinAddr: 0x10000D740, symSize: 0x108 }
  - { offsetInCU: 0x42D0, offset: 0x303E3, size: 0x8, addend: 0x0, symName: __ZN3glm3matILi3ELi3EfLNS_9qualifierE0EE6lengthEv, symObjAddr: 0x2968, symBinAddr: 0x10000D848, symSize: 0x8 }
  - { offsetInCU: 0x42E4, offset: 0x303F7, size: 0x8, addend: 0x0, symName: __ZN3glm3vecILi3EfLNS_9qualifierE0EE6lengthEv, symObjAddr: 0x2970, symBinAddr: 0x10000D850, symSize: 0x8 }
  - { offsetInCU: 0x42F8, offset: 0x3040B, size: 0x8, addend: 0x0, symName: __Z3cosB8ue170006f, symObjAddr: 0x325C, symBinAddr: 0x10000E13C, symSize: 0x24 }
  - { offsetInCU: 0x4326, offset: 0x30439, size: 0x8, addend: 0x0, symName: __Z3sinB8ue170006f, symObjAddr: 0x3280, symBinAddr: 0x10000E160, symSize: 0x24 }
  - { offsetInCU: 0x4354, offset: 0x30467, size: 0x8, addend: 0x0, symName: __ZN3glm3vecILi3EfLNS_9qualifierE0EEixEi, symObjAddr: 0x32A4, symBinAddr: 0x10000E184, symSize: 0x108 }
  - { offsetInCU: 0x4388, offset: 0x3049B, size: 0x8, addend: 0x0, symName: __ZN3glm3matILi3ELi3EfLNS_9qualifierE0EEC2ERKNS0_ILi4ELi4EfLS1_0EEE, symObjAddr: 0x33AC, symBinAddr: 0x10000E28C, symSize: 0x7C }
  - { offsetInCU: 0x43C0, offset: 0x304D3, size: 0x8, addend: 0x0, symName: __ZN3glm3vecILi3EfLNS_9qualifierE0EEC1IfLS1_0EEERKNS0_ILi4ET_XT0_EEE, symObjAddr: 0x3428, symBinAddr: 0x10000E308, symSize: 0x34 }
  - { offsetInCU: 0x440B, offset: 0x3051E, size: 0x8, addend: 0x0, symName: __ZN3glm3vecILi3EfLNS_9qualifierE0EEC2IfLS1_0EEERKNS0_ILi4ET_XT0_EEE, symObjAddr: 0x345C, symBinAddr: 0x10000E33C, symSize: 0x3C }
  - { offsetInCU: 0x4457, offset: 0x3056A, size: 0x8, addend: 0x0, symName: __Z4acosB8ue170006f, symObjAddr: 0x3498, symBinAddr: 0x10000E378, symSize: 0x24 }
  - { offsetInCU: 0x79EC, offset: 0x37FB1, size: 0x8, addend: 0x0, symName: __ZN5LightC2EN3glm3vecILi3EfLNS0_9qualifierE0EEES3_S3_NS1_ILi4EfLS2_0EEE, symObjAddr: 0x0, symBinAddr: 0x10000E464, symSize: 0x20C }
  - { offsetInCU: 0x7A55, offset: 0x3801A, size: 0x8, addend: 0x0, symName: __ZNSt3__16vectorI4MeshNS_9allocatorIS1_EEEC1B8ue170006Ev, symObjAddr: 0x240, symBinAddr: 0x10000E670, symSize: 0x2C }
  - { offsetInCU: 0x7A7E, offset: 0x38043, size: 0x8, addend: 0x0, symName: __ZNSt3__16vectorI4MeshNS_9allocatorIS1_EEEaSB8ue170006EOS4_, symObjAddr: 0x26C, symBinAddr: 0x10000E69C, symSize: 0x34 }
  - { offsetInCU: 0x7AB4, offset: 0x38079, size: 0x8, addend: 0x0, symName: __ZN5LightC1EN3glm3vecILi3EfLNS0_9qualifierE0EEES3_S3_NS1_ILi4EfLS2_0EEE, symObjAddr: 0x304, symBinAddr: 0x10000E6D0, symSize: 0xD0 }
  - { offsetInCU: 0x7B16, offset: 0x380DB, size: 0x8, addend: 0x0, symName: __ZN5LightC2EN3glm3vecILi3EfLNS0_9qualifierE0EEES3_S3_NS1_ILi4EfLS2_0EEENSt3__112basic_stringIcNS5_11char_traitsIcEENS5_9allocatorIcEEEE, symObjAddr: 0x3D4, symBinAddr: 0x10000E7A0, symSize: 0x1DC }
  - { offsetInCU: 0x7B88, offset: 0x3814D, size: 0x8, addend: 0x0, symName: __ZN5LightC1EN3glm3vecILi3EfLNS0_9qualifierE0EEES3_S3_NS1_ILi4EfLS2_0EEENSt3__112basic_stringIcNS5_11char_traitsIcEENS5_9allocatorIcEEEE, symObjAddr: 0x5B0, symBinAddr: 0x10000E97C, symSize: 0xD8 }
  - { offsetInCU: 0x7BFE, offset: 0x381C3, size: 0x8, addend: 0x0, symName: __ZNSt3__16vectorI4MeshNS_9allocatorIS1_EEEC2B8ue170006Ev, symObjAddr: 0x2320, symBinAddr: 0x10000EA54, symSize: 0x4C }
  - { offsetInCU: 0x7C2C, offset: 0x381F1, size: 0x8, addend: 0x0, symName: __ZNSt3__117__compressed_pairIP4MeshNS_9allocatorIS1_EEEC1B8ue170006IDnNS_18__default_init_tagEEEOT_OT0_, symObjAddr: 0x236C, symBinAddr: 0x10000EAA0, symSize: 0x3C }
  - { offsetInCU: 0x7C83, offset: 0x38248, size: 0x8, addend: 0x0, symName: __ZNSt3__117__compressed_pairIP4MeshNS_9allocatorIS1_EEEC2B8ue170006IDnNS_18__default_init_tagEEEOT_OT0_, symObjAddr: 0x23A8, symBinAddr: 0x10000EADC, symSize: 0x40 }
  - { offsetInCU: 0x7CDA, offset: 0x3829F, size: 0x8, addend: 0x0, symName: __ZNSt3__122__compressed_pair_elemIP4MeshLi0ELb0EEC2B8ue170006IDnvEEOT_, symObjAddr: 0x23E8, symBinAddr: 0x10000EB1C, symSize: 0x1C }
  - { offsetInCU: 0x7D1B, offset: 0x382E0, size: 0x8, addend: 0x0, symName: __ZNSt3__122__compressed_pair_elemINS_9allocatorI4MeshEELi1ELb1EEC2B8ue170006ENS_18__default_init_tagE, symObjAddr: 0x2404, symBinAddr: 0x10000EB38, symSize: 0x2C }
  - { offsetInCU: 0x7D4F, offset: 0x38314, size: 0x8, addend: 0x0, symName: __ZNSt3__19allocatorI4MeshEC2B8ue170006Ev, symObjAddr: 0x2430, symBinAddr: 0x10000EB64, symSize: 0x2C }
  - { offsetInCU: 0x7D78, offset: 0x3833D, size: 0x8, addend: 0x0, symName: __ZNSt3__116__non_trivial_ifILb1ENS_9allocatorI4MeshEEEC2B8ue170006Ev, symObjAddr: 0x245C, symBinAddr: 0x10000EB90, symSize: 0x14 }
  - { offsetInCU: 0x7DA1, offset: 0x38366, size: 0x8, addend: 0x0, symName: __ZNSt3__16vectorI4MeshNS_9allocatorIS1_EEE13__move_assignERS4_NS_17integral_constantIbLb1EEE, symObjAddr: 0x2470, symBinAddr: 0x10000EBA4, symSize: 0x94 }
  - { offsetInCU: 0x7DE3, offset: 0x383A8, size: 0x8, addend: 0x0, symName: __ZNSt3__16vectorI4MeshNS_9allocatorIS1_EEE13__vdeallocateEv, symObjAddr: 0x2504, symBinAddr: 0x10000EC38, symSize: 0x94 }
  - { offsetInCU: 0x7E0A, offset: 0x383CF, size: 0x8, addend: 0x0, symName: __ZNSt3__16vectorI4MeshNS_9allocatorIS1_EEE19__move_assign_allocB8ue170006ERS4_, symObjAddr: 0x2598, symBinAddr: 0x10000ECCC, symSize: 0x2C }
  - { offsetInCU: 0x7E3D, offset: 0x38402, size: 0x8, addend: 0x0, symName: __ZNSt3__16vectorI4MeshNS_9allocatorIS1_EEE9__end_capB8ue170006Ev, symObjAddr: 0x25C4, symBinAddr: 0x10000ECF8, symSize: 0x28 }
  - { offsetInCU: 0x7E61, offset: 0x38426, size: 0x8, addend: 0x0, symName: __ZNSt3__16vectorI4MeshNS_9allocatorIS1_EEE5clearB8ue170006Ev, symObjAddr: 0x25EC, symBinAddr: 0x10000ED20, symSize: 0x44 }
  - { offsetInCU: 0x7E94, offset: 0x38459, size: 0x8, addend: 0x0, symName: __ZNKSt3__16vectorI4MeshNS_9allocatorIS1_EEE17__annotate_shrinkB8ue170006Em, symObjAddr: 0x2630, symBinAddr: 0x10000ED64, symSize: 0xD0 }
  - { offsetInCU: 0x7EC7, offset: 0x3848C, size: 0x8, addend: 0x0, symName: __ZNSt3__16vectorI4MeshNS_9allocatorIS1_EEE19__move_assign_allocB8ue170006ERS4_NS_17integral_constantIbLb1EEE, symObjAddr: 0x2700, symBinAddr: 0x10000EE34, symSize: 0x38 }
  - { offsetInCU: 0x7F06, offset: 0x384CB, size: 0x8, addend: 0x0, symName: __ZNSt3__117__compressed_pairIP4MeshNS_9allocatorIS1_EEE5firstB8ue170006Ev, symObjAddr: 0x2738, symBinAddr: 0x10000EE6C, symSize: 0x24 }
  - { offsetInCU: 0x7F2A, offset: 0x384EF, size: 0x8, addend: 0x0, symName: __ZNSt3__122__compressed_pair_elemIP4MeshLi0ELb0EE5__getB8ue170006Ev, symObjAddr: 0x275C, symBinAddr: 0x10000EE90, symSize: 0x14 }
  - { offsetInCU: 0x4D9A, offset: 0x3D2C6, size: 0x8, addend: 0x0, symName: __ZNSt3__17advanceB8ue170006IP6VertexllvEEvRT_T0_, symObjAddr: 0x30F4, symBinAddr: 0x100010B60, symSize: 0x38 }
  - { offsetInCU: 0x4E26, offset: 0x3D352, size: 0x8, addend: 0x0, symName: __ZNSt3__17advanceB8ue170006IPjllvEEvRT_T0_, symObjAddr: 0x44CC, symBinAddr: 0x100011CA0, symSize: 0x38 }
  - { offsetInCU: 0x4EB2, offset: 0x3D3DE, size: 0x8, addend: 0x0, symName: __ZNSt3__17advanceB8ue170006IP7TexturellvEEvRT_T0_, symObjAddr: 0x5514, symBinAddr: 0x100012CE8, symSize: 0x38 }
  - { offsetInCU: 0x4F3E, offset: 0x3D46A, size: 0x8, addend: 0x0, symName: __ZNSt3__16copy_nB8ue170006IPKcmPcEENS_9enable_ifIXsr37__has_random_access_iterator_categoryIT_EE5valueET1_E4typeES5_T0_S6_, symObjAddr: 0x707C, symBinAddr: 0x100013ED4, symSize: 0x44 }
  - { offsetInCU: 0x5CDC, offset: 0x3E208, size: 0x8, addend: 0x0, symName: __ZNSt3__1eqB8ue170006IcNS_11char_traitsIcEENS_9allocatorIcEEEEbRKNS_12basic_stringIT_T0_T1_EEPKS6_, symObjAddr: 0xAEC, symBinAddr: 0x10000F7BC, symSize: 0xAC }
  - { offsetInCU: 0x5D43, offset: 0x3E26F, size: 0x8, addend: 0x0, symName: __ZNSt3__1plB8ue170006IcNS_11char_traitsIcEENS_9allocatorIcEEEENS_12basic_stringIT_T0_T1_EERKS9_SB_, symObjAddr: 0xBCC, symBinAddr: 0x10000F89C, symSize: 0x134 }
  - { offsetInCU: 0x5DE4, offset: 0x3E310, size: 0x8, addend: 0x0, symName: __ZNSt3__112__to_addressB8ue170006IKcEEPT_S3_, symObjAddr: 0x182C, symBinAddr: 0x1000100EC, symSize: 0x14 }
  - { offsetInCU: 0x5E4C, offset: 0x3E378, size: 0x8, addend: 0x0, symName: __ZNSt3__18distanceB8ue170006IP6VertexEENS_15iterator_traitsIT_E15difference_typeES4_S4_, symObjAddr: 0x2D3C, symBinAddr: 0x1000107A8, symSize: 0x2C }
  - { offsetInCU: 0x5E8F, offset: 0x3E3BB, size: 0x8, addend: 0x0, symName: __ZNSt3__14nextB8ue170006IP6VertexEENS_9enable_ifIXsr29__has_input_iterator_categoryIT_EE5valueES4_E4typeES4_NS_15iterator_traitsIS4_E15difference_typeE, symObjAddr: 0x2D68, symBinAddr: 0x1000107D4, symSize: 0x34 }
  - { offsetInCU: 0x5ED2, offset: 0x3E3FE, size: 0x8, addend: 0x0, symName: __ZNSt3__14copyB8ue170006IP6VertexS2_EET0_T_S4_S3_, symObjAddr: 0x2D9C, symBinAddr: 0x100010808, symSize: 0x40 }
  - { offsetInCU: 0x5F2C, offset: 0x3E458, size: 0x8, addend: 0x0, symName: __ZNSt3__16__copyB8ue170006INS_17_ClassicAlgPolicyEP6VertexS3_S3_EENS_4pairIT0_T2_EES5_T1_S6_, symObjAddr: 0x2E68, symBinAddr: 0x1000108D4, symSize: 0x44 }
  - { offsetInCU: 0x5F98, offset: 0x3E4C4, size: 0x8, addend: 0x0, symName: __ZNSt3__121__convert_to_integralB8ue170006El, symObjAddr: 0x312C, symBinAddr: 0x100010B98, symSize: 0x14 }
  - { offsetInCU: 0x5FC4, offset: 0x3E4F0, size: 0x8, addend: 0x0, symName: __ZNSt3__19__advanceB8ue170006IP6VertexEEvRT_NS_15iterator_traitsIS3_E15difference_typeENS_26random_access_iterator_tagE, symObjAddr: 0x3140, symBinAddr: 0x100010BAC, symSize: 0x30 }
  - { offsetInCU: 0x600F, offset: 0x3E53B, size: 0x8, addend: 0x0, symName: __ZNSt3__130__uninitialized_allocator_copyB8ue170006INS_9allocatorI6VertexEEPS2_S4_S4_EET2_RT_T0_T1_S5_, symObjAddr: 0x31AC, symBinAddr: 0x100010C18, symSize: 0x80 }
  - { offsetInCU: 0x60AC, offset: 0x3E5D8, size: 0x8, addend: 0x0, symName: __ZNSt3__114__unwrap_rangeB8ue170006IP6VertexS2_EENS_4pairIT0_S4_EET_S6_, symObjAddr: 0x32A4, symBinAddr: 0x100010D10, symSize: 0x60 }
  - { offsetInCU: 0x60F8, offset: 0x3E624, size: 0x8, addend: 0x0, symName: __ZNSt3__135__uninitialized_allocator_copy_implB8ue170006INS_9allocatorI6VertexEES2_S2_S2_LPv0EEEPT2_RT_PT0_SA_S6_, symObjAddr: 0x3304, symBinAddr: 0x100010D70, symSize: 0x38 }
  - { offsetInCU: 0x617B, offset: 0x3E6A7, size: 0x8, addend: 0x0, symName: __ZNSt3__113__unwrap_iterB8ue170006IP6VertexNS_18__unwrap_iter_implIS2_Lb1EEELi0EEEDTclsrT0_8__unwrapclsr3stdE7declvalIT_EEEES6_, symObjAddr: 0x333C, symBinAddr: 0x100010DA8, symSize: 0x24 }
  - { offsetInCU: 0x61BF, offset: 0x3E6EB, size: 0x8, addend: 0x0, symName: __ZNSt3__113__rewrap_iterB8ue170006IP6VertexS2_NS_18__unwrap_iter_implIS2_Lb1EEEEET_S5_T0_, symObjAddr: 0x3360, symBinAddr: 0x100010DCC, symSize: 0x3C }
  - { offsetInCU: 0x6214, offset: 0x3E740, size: 0x8, addend: 0x0, symName: __ZNSt3__19make_pairB8ue170006IP6VertexS2_EENS_4pairINS_18__unwrap_ref_decayIT_E4typeENS4_IT0_E4typeEEEOS5_OS8_, symObjAddr: 0x339C, symBinAddr: 0x100010E08, symSize: 0x38 }
  - { offsetInCU: 0x63BC, offset: 0x3E8E8, size: 0x8, addend: 0x0, symName: __ZNSt3__123__dispatch_copy_or_moveB8ue170006INS_17_ClassicAlgPolicyENS_11__copy_loopIS1_EENS_14__copy_trivialEP6VertexS6_S6_EENS_4pairIT2_T4_EES8_T3_S9_, symObjAddr: 0x34E0, symBinAddr: 0x100010F4C, symSize: 0x44 }
  - { offsetInCU: 0x643A, offset: 0x3E966, size: 0x8, addend: 0x0, symName: __ZNSt3__121__unwrap_and_dispatchB8ue170006INS_10__overloadINS_11__copy_loopINS_17_ClassicAlgPolicyEEENS_14__copy_trivialEEEP6VertexS8_S8_Li0EEENS_4pairIT0_T2_EESA_T1_SB_, symObjAddr: 0x3524, symBinAddr: 0x100010F90, symSize: 0xB4 }
  - { offsetInCU: 0x65C2, offset: 0x3EAEE, size: 0x8, addend: 0x0, symName: __ZNSt3__114__rewrap_rangeB8ue170006IP6VertexS2_EET_S3_T0_, symObjAddr: 0x3620, symBinAddr: 0x10001108C, symSize: 0x2C }
  - { offsetInCU: 0x660E, offset: 0x3EB3A, size: 0x8, addend: 0x0, symName: __ZNSt3__119__copy_trivial_implB8ue170006I6VertexS1_EENS_4pairIPT_PT0_EES4_S4_S6_, symObjAddr: 0x364C, symBinAddr: 0x1000110B8, symSize: 0x88 }
  - { offsetInCU: 0x6676, offset: 0x3EBA2, size: 0x8, addend: 0x0, symName: __ZNSt3__119__constexpr_memmoveB8ue170006I6VertexS1_Li0EEEPT_S3_PT0_NS_15__element_countE, symObjAddr: 0x36D4, symBinAddr: 0x100011140, symSize: 0x68 }
  - { offsetInCU: 0x66E4, offset: 0x3EC10, size: 0x8, addend: 0x0, symName: __ZNSt3__19make_pairB8ue170006IRP6VertexS2_EENS_4pairINS_18__unwrap_ref_decayIT_E4typeENS5_IT0_E4typeEEEOS6_OS9_, symObjAddr: 0x373C, symBinAddr: 0x1000111A8, symSize: 0x38 }
  - { offsetInCU: 0x6733, offset: 0x3EC5F, size: 0x8, addend: 0x0, symName: __ZNSt3__119__allocate_at_leastB8ue170006INS_9allocatorI6VertexEEEENS_19__allocation_resultINS_16allocator_traitsIT_E7pointerEEERS6_m, symObjAddr: 0x39D4, symBinAddr: 0x100011440, symSize: 0x40 }
  - { offsetInCU: 0x6776, offset: 0x3ECA2, size: 0x8, addend: 0x0, symName: __ZNSt3__13maxB8ue170006ImEERKT_S3_S3_, symObjAddr: 0x3E74, symBinAddr: 0x100011648, symSize: 0x2C }
  - { offsetInCU: 0x67B9, offset: 0x3ECE5, size: 0x8, addend: 0x0, symName: __ZNSt3__13maxB8ue170006ImNS_6__lessIvvEEEERKT_S5_S5_T0_, symObjAddr: 0x3EA0, symBinAddr: 0x100011674, symSize: 0x54 }
  - { offsetInCU: 0x6813, offset: 0x3ED3F, size: 0x8, addend: 0x0, symName: __ZNSt3__110__distanceB8ue170006IP6VertexEENS_15iterator_traitsIT_E15difference_typeES4_S4_NS_26random_access_iterator_tagE, symObjAddr: 0x3EF4, symBinAddr: 0x1000116C8, symSize: 0x28 }
  - { offsetInCU: 0x6861, offset: 0x3ED8D, size: 0x8, addend: 0x0, symName: __ZNSt3__18distanceB8ue170006IPjEENS_15iterator_traitsIT_E15difference_typeES3_S3_, symObjAddr: 0x411C, symBinAddr: 0x1000118F0, symSize: 0x2C }
  - { offsetInCU: 0x68A4, offset: 0x3EDD0, size: 0x8, addend: 0x0, symName: __ZNSt3__14nextB8ue170006IPjEENS_9enable_ifIXsr29__has_input_iterator_categoryIT_EE5valueES3_E4typeES3_NS_15iterator_traitsIS3_E15difference_typeE, symObjAddr: 0x4148, symBinAddr: 0x10001191C, symSize: 0x34 }
  - { offsetInCU: 0x68E7, offset: 0x3EE13, size: 0x8, addend: 0x0, symName: __ZNSt3__14copyB8ue170006IPjS1_EET0_T_S3_S2_, symObjAddr: 0x417C, symBinAddr: 0x100011950, symSize: 0x40 }
  - { offsetInCU: 0x6941, offset: 0x3EE6D, size: 0x8, addend: 0x0, symName: __ZNSt3__16__copyB8ue170006INS_17_ClassicAlgPolicyEPjS2_S2_EENS_4pairIT0_T2_EES4_T1_S5_, symObjAddr: 0x4248, symBinAddr: 0x100011A1C, symSize: 0x44 }
  - { offsetInCU: 0x69AD, offset: 0x3EED9, size: 0x8, addend: 0x0, symName: __ZNSt3__19__advanceB8ue170006IPjEEvRT_NS_15iterator_traitsIS2_E15difference_typeENS_26random_access_iterator_tagE, symObjAddr: 0x4504, symBinAddr: 0x100011CD8, symSize: 0x28 }
  - { offsetInCU: 0x69F8, offset: 0x3EF24, size: 0x8, addend: 0x0, symName: __ZNSt3__130__uninitialized_allocator_copyB8ue170006INS_9allocatorIjEEPjS3_S3_EET2_RT_T0_T1_S4_, symObjAddr: 0x4568, symBinAddr: 0x100011D3C, symSize: 0x80 }
  - { offsetInCU: 0x6A95, offset: 0x3EFC1, size: 0x8, addend: 0x0, symName: __ZNSt3__114__unwrap_rangeB8ue170006IPjS1_EENS_4pairIT0_S3_EET_S5_, symObjAddr: 0x4658, symBinAddr: 0x100011E2C, symSize: 0x60 }
  - { offsetInCU: 0x6AE1, offset: 0x3F00D, size: 0x8, addend: 0x0, symName: __ZNSt3__135__uninitialized_allocator_copy_implB8ue170006INS_9allocatorIjEEjjjLPv0EEEPT2_RT_PT0_S9_S5_, symObjAddr: 0x46B8, symBinAddr: 0x100011E8C, symSize: 0x38 }
  - { offsetInCU: 0x6B64, offset: 0x3F090, size: 0x8, addend: 0x0, symName: __ZNSt3__113__unwrap_iterB8ue170006IPjNS_18__unwrap_iter_implIS1_Lb1EEELi0EEEDTclsrT0_8__unwrapclsr3stdE7declvalIT_EEEES5_, symObjAddr: 0x46F0, symBinAddr: 0x100011EC4, symSize: 0x24 }
  - { offsetInCU: 0x6BA8, offset: 0x3F0D4, size: 0x8, addend: 0x0, symName: __ZNSt3__113__rewrap_iterB8ue170006IPjS1_NS_18__unwrap_iter_implIS1_Lb1EEEEET_S4_T0_, symObjAddr: 0x4714, symBinAddr: 0x100011EE8, symSize: 0x3C }
  - { offsetInCU: 0x6BFD, offset: 0x3F129, size: 0x8, addend: 0x0, symName: __ZNSt3__19make_pairB8ue170006IPjS1_EENS_4pairINS_18__unwrap_ref_decayIT_E4typeENS3_IT0_E4typeEEEOS4_OS7_, symObjAddr: 0x4750, symBinAddr: 0x100011F24, symSize: 0x38 }
  - { offsetInCU: 0x6DA5, offset: 0x3F2D1, size: 0x8, addend: 0x0, symName: __ZNSt3__123__dispatch_copy_or_moveB8ue170006INS_17_ClassicAlgPolicyENS_11__copy_loopIS1_EENS_14__copy_trivialEPjS5_S5_EENS_4pairIT2_T4_EES7_T3_S8_, symObjAddr: 0x488C, symBinAddr: 0x100012060, symSize: 0x44 }
  - { offsetInCU: 0x6E23, offset: 0x3F34F, size: 0x8, addend: 0x0, symName: __ZNSt3__121__unwrap_and_dispatchB8ue170006INS_10__overloadINS_11__copy_loopINS_17_ClassicAlgPolicyEEENS_14__copy_trivialEEEPjS7_S7_Li0EEENS_4pairIT0_T2_EES9_T1_SA_, symObjAddr: 0x48D0, symBinAddr: 0x1000120A4, symSize: 0xB4 }
  - { offsetInCU: 0x6EB1, offset: 0x3F3DD, size: 0x8, addend: 0x0, symName: __ZNSt3__114__rewrap_rangeB8ue170006IPjS1_EET_S2_T0_, symObjAddr: 0x49CC, symBinAddr: 0x1000121A0, symSize: 0x2C }
  - { offsetInCU: 0x6EFD, offset: 0x3F429, size: 0x8, addend: 0x0, symName: __ZNSt3__119__copy_trivial_implB8ue170006IjjEENS_4pairIPT_PT0_EES3_S3_S5_, symObjAddr: 0x49F8, symBinAddr: 0x1000121CC, symSize: 0x80 }
  - { offsetInCU: 0x6F65, offset: 0x3F491, size: 0x8, addend: 0x0, symName: __ZNSt3__119__constexpr_memmoveB8ue170006IjjLi0EEEPT_S2_PT0_NS_15__element_countE, symObjAddr: 0x4A78, symBinAddr: 0x10001224C, symSize: 0x64 }
  - { offsetInCU: 0x6FD3, offset: 0x3F4FF, size: 0x8, addend: 0x0, symName: __ZNSt3__19make_pairB8ue170006IRPjS1_EENS_4pairINS_18__unwrap_ref_decayIT_E4typeENS4_IT0_E4typeEEEOS5_OS8_, symObjAddr: 0x4ADC, symBinAddr: 0x1000122B0, symSize: 0x38 }
  - { offsetInCU: 0x7022, offset: 0x3F54E, size: 0x8, addend: 0x0, symName: __ZNSt3__119__allocate_at_leastB8ue170006INS_9allocatorIjEEEENS_19__allocation_resultINS_16allocator_traitsIT_E7pointerEEERS5_m, symObjAddr: 0x4D58, symBinAddr: 0x10001252C, symSize: 0x40 }
  - { offsetInCU: 0x7065, offset: 0x3F591, size: 0x8, addend: 0x0, symName: __ZNSt3__110__distanceB8ue170006IPjEENS_15iterator_traitsIT_E15difference_typeES3_S3_NS_26random_access_iterator_tagE, symObjAddr: 0x4F34, symBinAddr: 0x100012708, symSize: 0x28 }
  - { offsetInCU: 0x70B3, offset: 0x3F5DF, size: 0x8, addend: 0x0, symName: __ZNSt3__18distanceB8ue170006IP7TextureEENS_15iterator_traitsIT_E15difference_typeES4_S4_, symObjAddr: 0x515C, symBinAddr: 0x100012930, symSize: 0x2C }
  - { offsetInCU: 0x70F6, offset: 0x3F622, size: 0x8, addend: 0x0, symName: __ZNSt3__14nextB8ue170006IP7TextureEENS_9enable_ifIXsr29__has_input_iterator_categoryIT_EE5valueES4_E4typeES4_NS_15iterator_traitsIS4_E15difference_typeE, symObjAddr: 0x5188, symBinAddr: 0x10001295C, symSize: 0x34 }
  - { offsetInCU: 0x7139, offset: 0x3F665, size: 0x8, addend: 0x0, symName: __ZNSt3__14copyB8ue170006IP7TextureS2_EET0_T_S4_S3_, symObjAddr: 0x51BC, symBinAddr: 0x100012990, symSize: 0x40 }
  - { offsetInCU: 0x7193, offset: 0x3F6BF, size: 0x8, addend: 0x0, symName: __ZNSt3__16__copyB8ue170006INS_17_ClassicAlgPolicyEP7TextureS3_S3_EENS_4pairIT0_T2_EES5_T1_S6_, symObjAddr: 0x5288, symBinAddr: 0x100012A5C, symSize: 0x44 }
  - { offsetInCU: 0x71FF, offset: 0x3F72B, size: 0x8, addend: 0x0, symName: __ZNSt3__19__advanceB8ue170006IP7TextureEEvRT_NS_15iterator_traitsIS3_E15difference_typeENS_26random_access_iterator_tagE, symObjAddr: 0x554C, symBinAddr: 0x100012D20, symSize: 0x30 }
  - { offsetInCU: 0x724A, offset: 0x3F776, size: 0x8, addend: 0x0, symName: __ZNSt3__130__uninitialized_allocator_copyB8ue170006INS_9allocatorI7TextureEEPS2_S4_S4_EET2_RT_T0_T1_S5_, symObjAddr: 0x55B8, symBinAddr: 0x100012D8C, symSize: 0x80 }
  - { offsetInCU: 0x72E7, offset: 0x3F813, size: 0x8, addend: 0x0, symName: __ZNSt3__114__unwrap_rangeB8ue170006IP7TextureS2_EENS_4pairIT0_S4_EET_S6_, symObjAddr: 0x56B0, symBinAddr: 0x100012E84, symSize: 0x60 }
  - { offsetInCU: 0x7333, offset: 0x3F85F, size: 0x8, addend: 0x0, symName: __ZNSt3__135__uninitialized_allocator_copy_implB8ue170006INS_9allocatorI7TextureEES2_S2_S2_LPv0EEEPT2_RT_PT0_SA_S6_, symObjAddr: 0x5710, symBinAddr: 0x100012EE4, symSize: 0x38 }
  - { offsetInCU: 0x73B6, offset: 0x3F8E2, size: 0x8, addend: 0x0, symName: __ZNSt3__113__unwrap_iterB8ue170006IP7TextureNS_18__unwrap_iter_implIS2_Lb1EEELi0EEEDTclsrT0_8__unwrapclsr3stdE7declvalIT_EEEES6_, symObjAddr: 0x5748, symBinAddr: 0x100012F1C, symSize: 0x24 }
  - { offsetInCU: 0x73FA, offset: 0x3F926, size: 0x8, addend: 0x0, symName: __ZNSt3__113__rewrap_iterB8ue170006IP7TextureS2_NS_18__unwrap_iter_implIS2_Lb1EEEEET_S5_T0_, symObjAddr: 0x576C, symBinAddr: 0x100012F40, symSize: 0x3C }
  - { offsetInCU: 0x744F, offset: 0x3F97B, size: 0x8, addend: 0x0, symName: __ZNSt3__19make_pairB8ue170006IP7TextureS2_EENS_4pairINS_18__unwrap_ref_decayIT_E4typeENS4_IT0_E4typeEEEOS5_OS8_, symObjAddr: 0x57A8, symBinAddr: 0x100012F7C, symSize: 0x38 }
  - { offsetInCU: 0x75F7, offset: 0x3FB23, size: 0x8, addend: 0x0, symName: __ZNSt3__123__dispatch_copy_or_moveB8ue170006INS_17_ClassicAlgPolicyENS_11__copy_loopIS1_EENS_14__copy_trivialEP7TextureS6_S6_EENS_4pairIT2_T4_EES8_T3_S9_, symObjAddr: 0x58EC, symBinAddr: 0x1000130C0, symSize: 0x44 }
  - { offsetInCU: 0x7675, offset: 0x3FBA1, size: 0x8, addend: 0x0, symName: __ZNSt3__121__unwrap_and_dispatchB8ue170006INS_10__overloadINS_11__copy_loopINS_17_ClassicAlgPolicyEEENS_14__copy_trivialEEEP7TextureS8_S8_Li0EEENS_4pairIT0_T2_EESA_T1_SB_, symObjAddr: 0x5930, symBinAddr: 0x100013104, symSize: 0xB4 }
  - { offsetInCU: 0x7703, offset: 0x3FC2F, size: 0x8, addend: 0x0, symName: __ZNSt3__114__rewrap_rangeB8ue170006IP7TextureS2_EET_S3_T0_, symObjAddr: 0x5A2C, symBinAddr: 0x100013200, symSize: 0x2C }
  - { offsetInCU: 0x774F, offset: 0x3FC7B, size: 0x8, addend: 0x0, symName: __ZNSt3__119__copy_trivial_implB8ue170006I7TextureS1_EENS_4pairIPT_PT0_EES4_S4_S6_, symObjAddr: 0x5A58, symBinAddr: 0x10001322C, symSize: 0x88 }
  - { offsetInCU: 0x77B7, offset: 0x3FCE3, size: 0x8, addend: 0x0, symName: __ZNSt3__119__constexpr_memmoveB8ue170006I7TextureS1_Li0EEEPT_S3_PT0_NS_15__element_countE, symObjAddr: 0x5AE0, symBinAddr: 0x1000132B4, symSize: 0x68 }
  - { offsetInCU: 0x7825, offset: 0x3FD51, size: 0x8, addend: 0x0, symName: __ZNSt3__19make_pairB8ue170006IRP7TextureS2_EENS_4pairINS_18__unwrap_ref_decayIT_E4typeENS5_IT0_E4typeEEEOS6_OS9_, symObjAddr: 0x5B48, symBinAddr: 0x10001331C, symSize: 0x38 }
  - { offsetInCU: 0x7874, offset: 0x3FDA0, size: 0x8, addend: 0x0, symName: __ZNSt3__119__allocate_at_leastB8ue170006INS_9allocatorI7TextureEEEENS_19__allocation_resultINS_16allocator_traitsIT_E7pointerEEERS6_m, symObjAddr: 0x5DE0, symBinAddr: 0x1000135B4, symSize: 0x40 }
  - { offsetInCU: 0x78B7, offset: 0x3FDE3, size: 0x8, addend: 0x0, symName: __ZNSt3__110__distanceB8ue170006IP7TextureEENS_15iterator_traitsIT_E15difference_typeES4_S4_NS_26random_access_iterator_tagE, symObjAddr: 0x5FE0, symBinAddr: 0x1000137B4, symSize: 0x28 }
  - { offsetInCU: 0x7AF2, offset: 0x4001E, size: 0x8, addend: 0x0, symName: __ZNSt3__14copyB8ue170006IPKcPcEET0_T_S5_S4_, symObjAddr: 0x70C0, symBinAddr: 0x100013F18, symSize: 0x40 }
  - { offsetInCU: 0x7B4C, offset: 0x40078, size: 0x8, addend: 0x0, symName: __ZNSt3__16__copyB8ue170006INS_17_ClassicAlgPolicyEPKcS3_PcEENS_4pairIT0_T2_EES6_T1_S7_, symObjAddr: 0x7100, symBinAddr: 0x100013F58, symSize: 0x44 }
  - { offsetInCU: 0x7BB8, offset: 0x400E4, size: 0x8, addend: 0x0, symName: __ZNSt3__123__dispatch_copy_or_moveB8ue170006INS_17_ClassicAlgPolicyENS_11__copy_loopIS1_EENS_14__copy_trivialEPKcS6_PcEENS_4pairIT2_T4_EES9_T3_SA_, symObjAddr: 0x7144, symBinAddr: 0x100013F9C, symSize: 0x44 }
  - { offsetInCU: 0x7C36, offset: 0x40162, size: 0x8, addend: 0x0, symName: __ZNSt3__121__unwrap_and_dispatchB8ue170006INS_10__overloadINS_11__copy_loopINS_17_ClassicAlgPolicyEEENS_14__copy_trivialEEEPKcS8_PcLi0EEENS_4pairIT0_T2_EESB_T1_SC_, symObjAddr: 0x7188, symBinAddr: 0x100013FE0, symSize: 0xB4 }
  - { offsetInCU: 0x7CC4, offset: 0x401F0, size: 0x8, addend: 0x0, symName: __ZNSt3__114__unwrap_rangeB8ue170006IPKcS2_EENS_4pairIT0_S4_EET_S6_, symObjAddr: 0x723C, symBinAddr: 0x100014094, symSize: 0x60 }
  - { offsetInCU: 0x7E15, offset: 0x40341, size: 0x8, addend: 0x0, symName: __ZNSt3__113__unwrap_iterB8ue170006IPcNS_18__unwrap_iter_implIS1_Lb1EEELi0EEEDTclsrT0_8__unwrapclsr3stdE7declvalIT_EEEES5_, symObjAddr: 0x72E4, symBinAddr: 0x10001413C, symSize: 0x24 }
  - { offsetInCU: 0x7E59, offset: 0x40385, size: 0x8, addend: 0x0, symName: __ZNSt3__19make_pairB8ue170006IPKcPcEENS_4pairINS_18__unwrap_ref_decayIT_E4typeENS5_IT0_E4typeEEEOS6_OS9_, symObjAddr: 0x7308, symBinAddr: 0x100014160, symSize: 0x38 }
  - { offsetInCU: 0x7EA8, offset: 0x403D4, size: 0x8, addend: 0x0, symName: __ZNSt3__114__rewrap_rangeB8ue170006IPKcS2_EET_S3_T0_, symObjAddr: 0x7340, symBinAddr: 0x100014198, symSize: 0x2C }
  - { offsetInCU: 0x7EF4, offset: 0x40420, size: 0x8, addend: 0x0, symName: __ZNSt3__113__rewrap_iterB8ue170006IPcS1_NS_18__unwrap_iter_implIS1_Lb1EEEEET_S4_T0_, symObjAddr: 0x736C, symBinAddr: 0x1000141C4, symSize: 0x3C }
  - { offsetInCU: 0x7F49, offset: 0x40475, size: 0x8, addend: 0x0, symName: __ZNSt3__19make_pairB8ue170006IPKcS2_EENS_4pairINS_18__unwrap_ref_decayIT_E4typeENS4_IT0_E4typeEEEOS5_OS8_, symObjAddr: 0x73A8, symBinAddr: 0x100014200, symSize: 0x38 }
  - { offsetInCU: 0x7F98, offset: 0x404C4, size: 0x8, addend: 0x0, symName: __ZNSt3__113__unwrap_iterB8ue170006IPKcNS_18__unwrap_iter_implIS2_Lb1EEELi0EEEDTclsrT0_8__unwrapclsr3stdE7declvalIT_EEEES6_, symObjAddr: 0x73E0, symBinAddr: 0x100014238, symSize: 0x24 }
  - { offsetInCU: 0x8105, offset: 0x40631, size: 0x8, addend: 0x0, symName: __ZNSt3__119__copy_trivial_implB8ue170006IKccEENS_4pairIPT_PT0_EES4_S4_S6_, symObjAddr: 0x7498, symBinAddr: 0x1000142F0, symSize: 0x78 }
  - { offsetInCU: 0x816D, offset: 0x40699, size: 0x8, addend: 0x0, symName: __ZNSt3__119__constexpr_memmoveB8ue170006IcKcLi0EEEPT_S3_PT0_NS_15__element_countE, symObjAddr: 0x7510, symBinAddr: 0x100014368, symSize: 0x64 }
  - { offsetInCU: 0x81DB, offset: 0x40707, size: 0x8, addend: 0x0, symName: __ZNSt3__19make_pairB8ue170006IRPKcPcEENS_4pairINS_18__unwrap_ref_decayIT_E4typeENS6_IT0_E4typeEEEOS7_OSA_, symObjAddr: 0x7574, symBinAddr: 0x1000143CC, symSize: 0x38 }
  - { offsetInCU: 0x827E, offset: 0x407AA, size: 0x8, addend: 0x0, symName: __ZNSt3__113__rewrap_iterB8ue170006IPKcS2_NS_18__unwrap_iter_implIS2_Lb1EEEEET_S5_T0_, symObjAddr: 0x76B0, symBinAddr: 0x100014508, symSize: 0x3C }
  - { offsetInCU: 0x82D3, offset: 0x407FF, size: 0x8, addend: 0x0, symName: __ZNSt3__16fill_nB8ue170006IPcmcEET_S2_T0_RKT1_, symObjAddr: 0x777C, symBinAddr: 0x1000145D4, symSize: 0x44 }
  - { offsetInCU: 0x8336, offset: 0x40862, size: 0x8, addend: 0x0, symName: __ZNSt3__18__fill_nB8ue170006IPcmcEET_S2_T0_RKT1_, symObjAddr: 0x77C0, symBinAddr: 0x100014618, symSize: 0x64 }
  - { offsetInCU: 0x8399, offset: 0x408C5, size: 0x8, addend: 0x0, symName: __ZNSt3__121__convert_to_integralB8ue170006Em, symObjAddr: 0x7824, symBinAddr: 0x10001467C, symSize: 0x14 }
  - { offsetInCU: 0xA97C, offset: 0x42EA8, size: 0x8, addend: 0x0, symName: __ZN4MeshC2ERNSt3__16vectorI6VertexNS0_9allocatorIS2_EEEERNS1_IjNS3_IjEEEERNS1_I7TextureNS3_ISA_EEEE, symObjAddr: 0x0, symBinAddr: 0x10000EEA4, symSize: 0x230 }
  - { offsetInCU: 0xA9F2, offset: 0x42F1E, size: 0x8, addend: 0x0, symName: __ZNSt3__16vectorI6VertexNS_9allocatorIS1_EEEC1B8ue170006Ev, symObjAddr: 0x230, symBinAddr: 0x10000F0D4, symSize: 0x2C }
  - { offsetInCU: 0xAA1B, offset: 0x42F47, size: 0x8, addend: 0x0, symName: __ZNSt3__16vectorIjNS_9allocatorIjEEEC1B8ue170006Ev, symObjAddr: 0x25C, symBinAddr: 0x10000F100, symSize: 0x2C }
  - { offsetInCU: 0xAA44, offset: 0x42F70, size: 0x8, addend: 0x0, symName: __ZNSt3__16vectorI7TextureNS_9allocatorIS1_EEEC1B8ue170006Ev, symObjAddr: 0x288, symBinAddr: 0x10000F12C, symSize: 0x2C }
  - { offsetInCU: 0xAA6D, offset: 0x42F99, size: 0x8, addend: 0x0, symName: __ZNSt3__16vectorI6VertexNS_9allocatorIS1_EEEaSB8ue170006ERKS4_, symObjAddr: 0x2B4, symBinAddr: 0x10000F158, symSize: 0x68 }
  - { offsetInCU: 0xAAA3, offset: 0x42FCF, size: 0x8, addend: 0x0, symName: __ZNSt3__16vectorIjNS_9allocatorIjEEEaSB8ue170006ERKS3_, symObjAddr: 0x31C, symBinAddr: 0x10000F1C0, symSize: 0x68 }
  - { offsetInCU: 0xAAD9, offset: 0x43005, size: 0x8, addend: 0x0, symName: __ZNSt3__16vectorI7TextureNS_9allocatorIS1_EEEaSB8ue170006ERKS4_, symObjAddr: 0x384, symBinAddr: 0x10000F228, symSize: 0x68 }
  - { offsetInCU: 0xAB0F, offset: 0x4303B, size: 0x8, addend: 0x0, symName: __ZN4MeshC1ERNSt3__16vectorI6VertexNS0_9allocatorIS2_EEEERNS1_IjNS3_IjEEEERNS1_I7TextureNS3_ISA_EEEE, symObjAddr: 0x51C, symBinAddr: 0x10000F290, symSize: 0x44 }
  - { offsetInCU: 0xAB63, offset: 0x4308F, size: 0x8, addend: 0x0, symName: __ZN4Mesh22update_shadow_uniformsEN3glm3matILi4ELi4EfLNS0_9qualifierE0EEEjR6Shader, symObjAddr: 0x560, symBinAddr: 0x10000F2D4, symSize: 0x148 }
  - { offsetInCU: 0xABC2, offset: 0x430EE, size: 0x8, addend: 0x0, symName: __ZN4Mesh4DrawEN3glm3matILi4ELi4EfLNS0_9qualifierE0EEER6Shader, symObjAddr: 0x718, symBinAddr: 0x10000F41C, symSize: 0x348 }
  - { offsetInCU: 0xAC77, offset: 0x431A3, size: 0x8, addend: 0x0, symName: __ZNSt3__112basic_stringIcNS_11char_traitsIcEENS_9allocatorIcEEEC1B8ue170006Ev, symObjAddr: 0xA60, symBinAddr: 0x10000F764, symSize: 0x2C }
  - { offsetInCU: 0xACA0, offset: 0x431CC, size: 0x8, addend: 0x0, symName: __ZNSt3__16vectorI7TextureNS_9allocatorIS1_EEEixB8ue170006Em, symObjAddr: 0xA8C, symBinAddr: 0x10000F790, symSize: 0x2C }
  - { offsetInCU: 0xACDB, offset: 0x43207, size: 0x8, addend: 0x0, symName: __ZNSt3__112basic_stringIcNS_11char_traitsIcEENS_9allocatorIcEEEaSB8ue170006EOS5_, symObjAddr: 0xB98, symBinAddr: 0x10000F868, symSize: 0x34 }
  - { offsetInCU: 0xAD0E, offset: 0x4323A, size: 0x8, addend: 0x0, symName: __ZNKSt3__112basic_stringIcNS_11char_traitsIcEENS_9allocatorIcEEE5c_strB8ue170006Ev, symObjAddr: 0xD00, symBinAddr: 0x10000F9D0, symSize: 0x24 }
  - { offsetInCU: 0xAD32, offset: 0x4325E, size: 0x8, addend: 0x0, symName: __ZN4Mesh4DrawER6ShaderR6CameraN3glm3matILi4ELi4EfLNS4_9qualifierE0EEE, symObjAddr: 0xD4C, symBinAddr: 0x10000F9F4, symSize: 0x380 }
  - { offsetInCU: 0xADF9, offset: 0x43325, size: 0x8, addend: 0x0, symName: __ZNSt3__112basic_stringIcNS_11char_traitsIcEENS_9allocatorIcEEEC2B8ue170006Ev, symObjAddr: 0x1280, symBinAddr: 0x10000FD74, symSize: 0x48 }
  - { offsetInCU: 0xAE22, offset: 0x4334E, size: 0x8, addend: 0x0, symName: __ZNSt3__112basic_stringIcNS_11char_traitsIcEENS_9allocatorIcEEE14__default_initB8ue170006Ev, symObjAddr: 0x12C8, symBinAddr: 0x10000FDBC, symSize: 0x40 }
  - { offsetInCU: 0xAE46, offset: 0x43372, size: 0x8, addend: 0x0, symName: __ZNSt3__112basic_stringIcNS_11char_traitsIcEENS_9allocatorIcEEE13__move_assignB8ue170006ERS5_NS_17integral_constantIbLb1EEE, symObjAddr: 0x1340, symBinAddr: 0x10000FDFC, symSize: 0xC8 }
  - { offsetInCU: 0xAE88, offset: 0x433B4, size: 0x8, addend: 0x0, symName: __ZNSt3__116allocator_traitsINS_9allocatorIcEEE10deallocateB8ue170006ERS2_Pcm, symObjAddr: 0x1440, symBinAddr: 0x10000FEC4, symSize: 0x34 }
  - { offsetInCU: 0xAECA, offset: 0x433F6, size: 0x8, addend: 0x0, symName: __ZNSt3__112basic_stringIcNS_11char_traitsIcEENS_9allocatorIcEEE7__allocB8ue170006Ev, symObjAddr: 0x1474, symBinAddr: 0x10000FEF8, symSize: 0x24 }
  - { offsetInCU: 0xAEEE, offset: 0x4341A, size: 0x8, addend: 0x0, symName: __ZNKSt3__112basic_stringIcNS_11char_traitsIcEENS_9allocatorIcEEE14__get_long_capB8ue170006Ev, symObjAddr: 0x14C0, symBinAddr: 0x10000FF1C, symSize: 0x30 }
  - { offsetInCU: 0xAF12, offset: 0x4343E, size: 0x8, addend: 0x0, symName: __ZNSt3__112basic_stringIcNS_11char_traitsIcEENS_9allocatorIcEEE19__move_assign_allocB8ue170006ERS5_, symObjAddr: 0x14F0, symBinAddr: 0x10000FF4C, symSize: 0x2C }
  - { offsetInCU: 0xAF45, offset: 0x43471, size: 0x8, addend: 0x0, symName: __ZNSt3__112basic_stringIcNS_11char_traitsIcEENS_9allocatorIcEEE16__set_short_sizeB8ue170006Em, symObjAddr: 0x151C, symBinAddr: 0x10000FF78, symSize: 0x78 }
  - { offsetInCU: 0xAF78, offset: 0x434A4, size: 0x8, addend: 0x0, symName: __ZNSt3__111char_traitsIcE6assignB8ue170006ERcRKc, symObjAddr: 0x1594, symBinAddr: 0x10000FFF0, symSize: 0x24 }
  - { offsetInCU: 0xAFA9, offset: 0x434D5, size: 0x8, addend: 0x0, symName: __ZNSt3__19allocatorIcE10deallocateB8ue170006EPcm, symObjAddr: 0x1618, symBinAddr: 0x100010014, symSize: 0x40 }
  - { offsetInCU: 0xAFE9, offset: 0x43515, size: 0x8, addend: 0x0, symName: __ZNSt3__117__compressed_pairINS_12basic_stringIcNS_11char_traitsIcEENS_9allocatorIcEEE5__repES5_E6secondB8ue170006Ev, symObjAddr: 0x1780, symBinAddr: 0x100010054, symSize: 0x24 }
  - { offsetInCU: 0xB00D, offset: 0x43539, size: 0x8, addend: 0x0, symName: __ZNSt3__122__compressed_pair_elemINS_9allocatorIcEELi1ELb1EE5__getB8ue170006Ev, symObjAddr: 0x17A4, symBinAddr: 0x100010078, symSize: 0x14 }
  - { offsetInCU: 0xB031, offset: 0x4355D, size: 0x8, addend: 0x0, symName: __ZNSt3__112basic_stringIcNS_11char_traitsIcEENS_9allocatorIcEEE19__move_assign_allocB8ue170006ERS5_NS_17integral_constantIbLb1EEE, symObjAddr: 0x17B8, symBinAddr: 0x10001008C, symSize: 0x38 }
  - { offsetInCU: 0xB070, offset: 0x4359C, size: 0x8, addend: 0x0, symName: __ZNKSt3__112basic_stringIcNS_11char_traitsIcEENS_9allocatorIcEEE4dataB8ue170006Ev, symObjAddr: 0x1804, symBinAddr: 0x1000100C4, symSize: 0x28 }
  - { offsetInCU: 0xB094, offset: 0x435C0, size: 0x8, addend: 0x0, symName: __ZNKSt3__112basic_stringIcNS_11char_traitsIcEENS_9allocatorIcEEE13__get_pointerB8ue170006Ev, symObjAddr: 0x1840, symBinAddr: 0x100010100, symSize: 0x54 }
  - { offsetInCU: 0xB0B8, offset: 0x435E4, size: 0x8, addend: 0x0, symName: __ZNKSt3__112basic_stringIcNS_11char_traitsIcEENS_9allocatorIcEEE18__get_long_pointerB8ue170006Ev, symObjAddr: 0x1894, symBinAddr: 0x100010154, symSize: 0x28 }
  - { offsetInCU: 0xB0DC, offset: 0x43608, size: 0x8, addend: 0x0, symName: __ZNKSt3__112basic_stringIcNS_11char_traitsIcEENS_9allocatorIcEEE19__get_short_pointerB8ue170006Ev, symObjAddr: 0x18BC, symBinAddr: 0x10001017C, symSize: 0x28 }
  - { offsetInCU: 0xB100, offset: 0x4362C, size: 0x8, addend: 0x0, symName: __ZNSt3__114pointer_traitsIPKcE10pointer_toB8ue170006ERS1_, symObjAddr: 0x18E4, symBinAddr: 0x1000101A4, symSize: 0x14 }
  - { offsetInCU: 0xB123, offset: 0x4364F, size: 0x8, addend: 0x0, symName: __ZNSt3__16vectorI6VertexNS_9allocatorIS1_EEEC2B8ue170006Ev, symObjAddr: 0x18F8, symBinAddr: 0x1000101B8, symSize: 0x4C }
  - { offsetInCU: 0xB151, offset: 0x4367D, size: 0x8, addend: 0x0, symName: __ZNSt3__117__compressed_pairIP6VertexNS_9allocatorIS1_EEEC1B8ue170006IDnNS_18__default_init_tagEEEOT_OT0_, symObjAddr: 0x1944, symBinAddr: 0x100010204, symSize: 0x3C }
  - { offsetInCU: 0xB1A8, offset: 0x436D4, size: 0x8, addend: 0x0, symName: __ZNSt3__117__compressed_pairIP6VertexNS_9allocatorIS1_EEEC2B8ue170006IDnNS_18__default_init_tagEEEOT_OT0_, symObjAddr: 0x1980, symBinAddr: 0x100010240, symSize: 0x40 }
  - { offsetInCU: 0xB1FF, offset: 0x4372B, size: 0x8, addend: 0x0, symName: __ZNSt3__122__compressed_pair_elemIP6VertexLi0ELb0EEC2B8ue170006IDnvEEOT_, symObjAddr: 0x19C0, symBinAddr: 0x100010280, symSize: 0x1C }
  - { offsetInCU: 0xB240, offset: 0x4376C, size: 0x8, addend: 0x0, symName: __ZNSt3__122__compressed_pair_elemINS_9allocatorI6VertexEELi1ELb1EEC2B8ue170006ENS_18__default_init_tagE, symObjAddr: 0x19DC, symBinAddr: 0x10001029C, symSize: 0x2C }
  - { offsetInCU: 0xB274, offset: 0x437A0, size: 0x8, addend: 0x0, symName: __ZNSt3__19allocatorI6VertexEC2B8ue170006Ev, symObjAddr: 0x1A08, symBinAddr: 0x1000102C8, symSize: 0x2C }
  - { offsetInCU: 0xB29D, offset: 0x437C9, size: 0x8, addend: 0x0, symName: __ZNSt3__116__non_trivial_ifILb1ENS_9allocatorI6VertexEEEC2B8ue170006Ev, symObjAddr: 0x1A34, symBinAddr: 0x1000102F4, symSize: 0x14 }
  - { offsetInCU: 0xB2C6, offset: 0x437F2, size: 0x8, addend: 0x0, symName: __ZNSt3__16vectorIjNS_9allocatorIjEEEC2B8ue170006Ev, symObjAddr: 0x1A48, symBinAddr: 0x100010308, symSize: 0x4C }
  - { offsetInCU: 0xB2EF, offset: 0x4381B, size: 0x8, addend: 0x0, symName: __ZNSt3__117__compressed_pairIPjNS_9allocatorIjEEEC1B8ue170006IDnNS_18__default_init_tagEEEOT_OT0_, symObjAddr: 0x1A94, symBinAddr: 0x100010354, symSize: 0x3C }
  - { offsetInCU: 0xB346, offset: 0x43872, size: 0x8, addend: 0x0, symName: __ZNSt3__117__compressed_pairIPjNS_9allocatorIjEEEC2B8ue170006IDnNS_18__default_init_tagEEEOT_OT0_, symObjAddr: 0x1AD0, symBinAddr: 0x100010390, symSize: 0x40 }
  - { offsetInCU: 0xB39D, offset: 0x438C9, size: 0x8, addend: 0x0, symName: __ZNSt3__122__compressed_pair_elemIPjLi0ELb0EEC2B8ue170006IDnvEEOT_, symObjAddr: 0x1B10, symBinAddr: 0x1000103D0, symSize: 0x1C }
  - { offsetInCU: 0xB3DE, offset: 0x4390A, size: 0x8, addend: 0x0, symName: __ZNSt3__122__compressed_pair_elemINS_9allocatorIjEELi1ELb1EEC2B8ue170006ENS_18__default_init_tagE, symObjAddr: 0x1B2C, symBinAddr: 0x1000103EC, symSize: 0x2C }
  - { offsetInCU: 0xB412, offset: 0x4393E, size: 0x8, addend: 0x0, symName: __ZNSt3__19allocatorIjEC2B8ue170006Ev, symObjAddr: 0x1B58, symBinAddr: 0x100010418, symSize: 0x2C }
  - { offsetInCU: 0xB43B, offset: 0x43967, size: 0x8, addend: 0x0, symName: __ZNSt3__116__non_trivial_ifILb1ENS_9allocatorIjEEEC2B8ue170006Ev, symObjAddr: 0x1B84, symBinAddr: 0x100010444, symSize: 0x14 }
  - { offsetInCU: 0xB464, offset: 0x43990, size: 0x8, addend: 0x0, symName: __ZNSt3__16vectorI7TextureNS_9allocatorIS1_EEEC2B8ue170006Ev, symObjAddr: 0x1B98, symBinAddr: 0x100010458, symSize: 0x4C }
  - { offsetInCU: 0xB48D, offset: 0x439B9, size: 0x8, addend: 0x0, symName: __ZNSt3__117__compressed_pairIP7TextureNS_9allocatorIS1_EEEC1B8ue170006IDnNS_18__default_init_tagEEEOT_OT0_, symObjAddr: 0x1BE4, symBinAddr: 0x1000104A4, symSize: 0x3C }
  - { offsetInCU: 0xB4E4, offset: 0x43A10, size: 0x8, addend: 0x0, symName: __ZNSt3__117__compressed_pairIP7TextureNS_9allocatorIS1_EEEC2B8ue170006IDnNS_18__default_init_tagEEEOT_OT0_, symObjAddr: 0x1C20, symBinAddr: 0x1000104E0, symSize: 0x40 }
  - { offsetInCU: 0xB53B, offset: 0x43A67, size: 0x8, addend: 0x0, symName: __ZNSt3__122__compressed_pair_elemIP7TextureLi0ELb0EEC2B8ue170006IDnvEEOT_, symObjAddr: 0x1C60, symBinAddr: 0x100010520, symSize: 0x1C }
  - { offsetInCU: 0xB57C, offset: 0x43AA8, size: 0x8, addend: 0x0, symName: __ZNSt3__122__compressed_pair_elemINS_9allocatorI7TextureEELi1ELb1EEC2B8ue170006ENS_18__default_init_tagE, symObjAddr: 0x1C7C, symBinAddr: 0x10001053C, symSize: 0x2C }
  - { offsetInCU: 0xB5B0, offset: 0x43ADC, size: 0x8, addend: 0x0, symName: __ZNSt3__19allocatorI7TextureEC2B8ue170006Ev, symObjAddr: 0x1CA8, symBinAddr: 0x100010568, symSize: 0x2C }
  - { offsetInCU: 0xB5D9, offset: 0x43B05, size: 0x8, addend: 0x0, symName: __ZNSt3__116__non_trivial_ifILb1ENS_9allocatorI7TextureEEEC2B8ue170006Ev, symObjAddr: 0x1CD4, symBinAddr: 0x100010594, symSize: 0x14 }
  - { offsetInCU: 0xB602, offset: 0x43B2E, size: 0x8, addend: 0x0, symName: __ZNSt3__16vectorI6VertexNS_9allocatorIS1_EEE19__copy_assign_allocB8ue170006ERKS4_, symObjAddr: 0x2B3C, symBinAddr: 0x1000105A8, symSize: 0x2C }
  - { offsetInCU: 0xB635, offset: 0x43B61, size: 0x8, addend: 0x0, symName: __ZNSt3__16vectorI6VertexNS_9allocatorIS1_EEE6assignIPS1_Li0EEEvT_S7_, symObjAddr: 0x2B68, symBinAddr: 0x1000105D4, symSize: 0x5C }
  - { offsetInCU: 0xB689, offset: 0x43BB5, size: 0x8, addend: 0x0, symName: __ZNSt3__16vectorI6VertexNS_9allocatorIS1_EEE19__copy_assign_allocB8ue170006ERKS4_NS_17integral_constantIbLb0EEE, symObjAddr: 0x2BC4, symBinAddr: 0x100010630, symSize: 0x14 }
  - { offsetInCU: 0xB6C5, offset: 0x43BF1, size: 0x8, addend: 0x0, symName: __ZNSt3__16vectorI6VertexNS_9allocatorIS1_EEE18__assign_with_sizeB8ue170006IPS1_S6_EEvT_T0_l, symObjAddr: 0x2BD8, symBinAddr: 0x100010644, symSize: 0x164 }
  - { offsetInCU: 0xB776, offset: 0x43CA2, size: 0x8, addend: 0x0, symName: __ZNSt3__16vectorI6VertexNS_9allocatorIS1_EEE18__construct_at_endIPS1_S6_EEvT_T0_m, symObjAddr: 0x2DDC, symBinAddr: 0x100010848, symSize: 0x8C }
  - { offsetInCU: 0xB7EB, offset: 0x43D17, size: 0x8, addend: 0x0, symName: __ZNSt3__16vectorI6VertexNS_9allocatorIS1_EEE17__destruct_at_endB8ue170006EPS1_, symObjAddr: 0x2EAC, symBinAddr: 0x100010918, symSize: 0x4C }
  - { offsetInCU: 0xB82D, offset: 0x43D59, size: 0x8, addend: 0x0, symName: __ZNSt3__16vectorI6VertexNS_9allocatorIS1_EEE13__vdeallocateEv, symObjAddr: 0x2EF8, symBinAddr: 0x100010964, symSize: 0x94 }
  - { offsetInCU: 0xB854, offset: 0x43D80, size: 0x8, addend: 0x0, symName: __ZNSt3__16vectorI6VertexNS_9allocatorIS1_EEE11__vallocateB8ue170006Em, symObjAddr: 0x2F8C, symBinAddr: 0x1000109F8, symSize: 0xB4 }
  - { offsetInCU: 0xB896, offset: 0x43DC2, size: 0x8, addend: 0x0, symName: __ZNKSt3__16vectorI6VertexNS_9allocatorIS1_EEE11__recommendB8ue170006Em, symObjAddr: 0x3040, symBinAddr: 0x100010AAC, symSize: 0xB4 }
  - { offsetInCU: 0xB903, offset: 0x43E2F, size: 0x8, addend: 0x0, symName: __ZNSt3__16vectorI6VertexNS_9allocatorIS1_EEE21_ConstructTransactionC1B8ue170006ERS4_m, symObjAddr: 0x3170, symBinAddr: 0x100010BDC, symSize: 0x3C }
  - { offsetInCU: 0xB94A, offset: 0x43E76, size: 0x8, addend: 0x0, symName: __ZNSt3__16vectorI6VertexNS_9allocatorIS1_EEE21_ConstructTransactionD1B8ue170006Ev, symObjAddr: 0x322C, symBinAddr: 0x100010C98, symSize: 0x2C }
  - { offsetInCU: 0xB973, offset: 0x43E9F, size: 0x8, addend: 0x0, symName: __ZNSt3__16vectorI6VertexNS_9allocatorIS1_EEE21_ConstructTransactionC2B8ue170006ERS4_m, symObjAddr: 0x3258, symBinAddr: 0x100010CC4, symSize: 0x4C }
  - { offsetInCU: 0xB9D8, offset: 0x43F04, size: 0x8, addend: 0x0, symName: __ZNSt3__14pairIP6VertexS2_EC1B8ue170006IS2_S2_LPv0EEEOT_OT0_, symObjAddr: 0x33D4, symBinAddr: 0x100010E40, symSize: 0x3C }
  - { offsetInCU: 0xBA36, offset: 0x43F62, size: 0x8, addend: 0x0, symName: __ZNSt3__14pairIP6VertexS2_EC2B8ue170006IS2_S2_LPv0EEEOT_OT0_, symObjAddr: 0x3410, symBinAddr: 0x100010E7C, symSize: 0x34 }
  - { offsetInCU: 0xBA94, offset: 0x43FC0, size: 0x8, addend: 0x0, symName: __ZNSt3__118__unwrap_iter_implIP6VertexLb1EE8__unwrapB8ue170006ES2_, symObjAddr: 0x3444, symBinAddr: 0x100010EB0, symSize: 0x24 }
  - { offsetInCU: 0xBAB7, offset: 0x43FE3, size: 0x8, addend: 0x0, symName: __ZNSt3__118__unwrap_iter_implIP6VertexLb1EE8__rewrapB8ue170006ES2_S2_, symObjAddr: 0x3468, symBinAddr: 0x100010ED4, symSize: 0x58 }
  - { offsetInCU: 0xBAE8, offset: 0x44014, size: 0x8, addend: 0x0, symName: __ZNSt3__16vectorI6VertexNS_9allocatorIS1_EEE21_ConstructTransactionD2B8ue170006Ev, symObjAddr: 0x34C0, symBinAddr: 0x100010F2C, symSize: 0x20 }
  - { offsetInCU: 0xBB1B, offset: 0x44047, size: 0x8, addend: 0x0, symName: __ZNKSt3__114__copy_trivialclB8ue170006I6VertexS2_Li0EEENS_4pairIPT_PT0_EES5_S5_S7_, symObjAddr: 0x35D8, symBinAddr: 0x100011044, symSize: 0x48 }
  - { offsetInCU: 0xBB81, offset: 0x440AD, size: 0x8, addend: 0x0, symName: __ZNSt3__14pairIP6VertexS2_EC1B8ue170006IRS2_S2_LPv0EEEOT_OT0_, symObjAddr: 0x3774, symBinAddr: 0x1000111E0, symSize: 0x3C }
  - { offsetInCU: 0xBBDF, offset: 0x4410B, size: 0x8, addend: 0x0, symName: __ZNSt3__14pairIP6VertexS2_EC2B8ue170006IRS2_S2_LPv0EEEOT_OT0_, symObjAddr: 0x37B0, symBinAddr: 0x10001121C, symSize: 0x34 }
  - { offsetInCU: 0xBC3D, offset: 0x44169, size: 0x8, addend: 0x0, symName: __ZNKSt3__16vectorI6VertexNS_9allocatorIS1_EEE17__annotate_shrinkB8ue170006Em, symObjAddr: 0x37E4, symBinAddr: 0x100011250, symSize: 0xD0 }
  - { offsetInCU: 0xBC70, offset: 0x4419C, size: 0x8, addend: 0x0, symName: __ZNSt3__16vectorI6VertexNS_9allocatorIS1_EEE5clearB8ue170006Ev, symObjAddr: 0x38B4, symBinAddr: 0x100011320, symSize: 0x44 }
  - { offsetInCU: 0xBCA3, offset: 0x441CF, size: 0x8, addend: 0x0, symName: __ZNSt3__16vectorI6VertexNS_9allocatorIS1_EEE9__end_capB8ue170006Ev, symObjAddr: 0x38F8, symBinAddr: 0x100011364, symSize: 0x28 }
  - { offsetInCU: 0xBCC7, offset: 0x441F3, size: 0x8, addend: 0x0, symName: __ZNSt3__117__compressed_pairIP6VertexNS_9allocatorIS1_EEE5firstB8ue170006Ev, symObjAddr: 0x3920, symBinAddr: 0x10001138C, symSize: 0x24 }
  - { offsetInCU: 0xBCEB, offset: 0x44217, size: 0x8, addend: 0x0, symName: __ZNSt3__122__compressed_pair_elemIP6VertexLi0ELb0EE5__getB8ue170006Ev, symObjAddr: 0x3944, symBinAddr: 0x1000113B0, symSize: 0x14 }
  - { offsetInCU: 0xBD0F, offset: 0x4423B, size: 0x8, addend: 0x0, symName: __ZNKSt3__16vectorI6VertexNS_9allocatorIS1_EEE8max_sizeEv, symObjAddr: 0x3958, symBinAddr: 0x1000113C4, symSize: 0x60 }
  - { offsetInCU: 0xBD36, offset: 0x44262, size: 0x8, addend: 0x0, symName: __ZNKSt3__16vectorI6VertexNS_9allocatorIS1_EEE20__throw_length_errorB8ue170006Ev, symObjAddr: 0x39B8, symBinAddr: 0x100011424, symSize: 0x1C }
  - { offsetInCU: 0xBD5A, offset: 0x44286, size: 0x8, addend: 0x0, symName: __ZNKSt3__16vectorI6VertexNS_9allocatorIS1_EEE14__annotate_newB8ue170006Em, symObjAddr: 0x3A14, symBinAddr: 0x100011480, symSize: 0xC8 }
  - { offsetInCU: 0xBD97, offset: 0x442C3, size: 0x8, addend: 0x0, symName: __ZNSt3__116allocator_traitsINS_9allocatorI6VertexEEE8max_sizeB8ue170006IS3_vEEmRKS3_, symObjAddr: 0x3B08, symBinAddr: 0x100011548, symSize: 0x24 }
  - { offsetInCU: 0xBDC5, offset: 0x442F1, size: 0x8, addend: 0x0, symName: __ZNKSt3__16vectorI6VertexNS_9allocatorIS1_EEE7__allocB8ue170006Ev, symObjAddr: 0x3B2C, symBinAddr: 0x10001156C, symSize: 0x28 }
  - { offsetInCU: 0xBDF3, offset: 0x4431F, size: 0x8, addend: 0x0, symName: __ZNKSt3__19allocatorI6VertexE8max_sizeB8ue170006Ev, symObjAddr: 0x3BF0, symBinAddr: 0x100011594, symSize: 0x20 }
  - { offsetInCU: 0xBE17, offset: 0x44343, size: 0x8, addend: 0x0, symName: __ZNKSt3__117__compressed_pairIP6VertexNS_9allocatorIS1_EEE6secondB8ue170006Ev, symObjAddr: 0x3C10, symBinAddr: 0x1000115B4, symSize: 0x24 }
  - { offsetInCU: 0xBE3B, offset: 0x44367, size: 0x8, addend: 0x0, symName: __ZNKSt3__122__compressed_pair_elemINS_9allocatorI6VertexEELi1ELb1EE5__getB8ue170006Ev, symObjAddr: 0x3C34, symBinAddr: 0x1000115D8, symSize: 0x14 }
  - { offsetInCU: 0xBE5F, offset: 0x4438B, size: 0x8, addend: 0x0, symName: __ZNSt3__19allocatorI6VertexE8allocateB8ue170006Em, symObjAddr: 0x3D34, symBinAddr: 0x1000115EC, symSize: 0x5C }
  - { offsetInCU: 0xBE91, offset: 0x443BD, size: 0x8, addend: 0x0, symName: __ZNSt3__16vectorIjNS_9allocatorIjEEE19__copy_assign_allocB8ue170006ERKS3_, symObjAddr: 0x3F1C, symBinAddr: 0x1000116F0, symSize: 0x2C }
  - { offsetInCU: 0xBEC4, offset: 0x443F0, size: 0x8, addend: 0x0, symName: __ZNSt3__16vectorIjNS_9allocatorIjEEE6assignIPjLi0EEEvT_S6_, symObjAddr: 0x3F48, symBinAddr: 0x10001171C, symSize: 0x5C }
  - { offsetInCU: 0xBF18, offset: 0x44444, size: 0x8, addend: 0x0, symName: __ZNSt3__16vectorIjNS_9allocatorIjEEE19__copy_assign_allocB8ue170006ERKS3_NS_17integral_constantIbLb0EEE, symObjAddr: 0x3FA4, symBinAddr: 0x100011778, symSize: 0x14 }
  - { offsetInCU: 0xBF54, offset: 0x44480, size: 0x8, addend: 0x0, symName: __ZNSt3__16vectorIjNS_9allocatorIjEEE18__assign_with_sizeB8ue170006IPjS5_EEvT_T0_l, symObjAddr: 0x3FB8, symBinAddr: 0x10001178C, symSize: 0x164 }
  - { offsetInCU: 0xC005, offset: 0x44531, size: 0x8, addend: 0x0, symName: __ZNSt3__16vectorIjNS_9allocatorIjEEE18__construct_at_endIPjS5_EEvT_T0_m, symObjAddr: 0x41BC, symBinAddr: 0x100011990, symSize: 0x8C }
  - { offsetInCU: 0xC07A, offset: 0x445A6, size: 0x8, addend: 0x0, symName: __ZNSt3__16vectorIjNS_9allocatorIjEEE17__destruct_at_endB8ue170006EPj, symObjAddr: 0x428C, symBinAddr: 0x100011A60, symSize: 0x4C }
  - { offsetInCU: 0xC0BC, offset: 0x445E8, size: 0x8, addend: 0x0, symName: __ZNSt3__16vectorIjNS_9allocatorIjEEE13__vdeallocateEv, symObjAddr: 0x42D8, symBinAddr: 0x100011AAC, symSize: 0x94 }
  - { offsetInCU: 0xC0E3, offset: 0x4460F, size: 0x8, addend: 0x0, symName: __ZNSt3__16vectorIjNS_9allocatorIjEEE11__vallocateB8ue170006Em, symObjAddr: 0x436C, symBinAddr: 0x100011B40, symSize: 0xAC }
  - { offsetInCU: 0xC125, offset: 0x44651, size: 0x8, addend: 0x0, symName: __ZNKSt3__16vectorIjNS_9allocatorIjEEE11__recommendB8ue170006Em, symObjAddr: 0x4418, symBinAddr: 0x100011BEC, symSize: 0xB4 }
  - { offsetInCU: 0xC192, offset: 0x446BE, size: 0x8, addend: 0x0, symName: __ZNSt3__16vectorIjNS_9allocatorIjEEE21_ConstructTransactionC1B8ue170006ERS3_m, symObjAddr: 0x452C, symBinAddr: 0x100011D00, symSize: 0x3C }
  - { offsetInCU: 0xC1D9, offset: 0x44705, size: 0x8, addend: 0x0, symName: __ZNSt3__16vectorIjNS_9allocatorIjEEE21_ConstructTransactionD1B8ue170006Ev, symObjAddr: 0x45E8, symBinAddr: 0x100011DBC, symSize: 0x2C }
  - { offsetInCU: 0xC202, offset: 0x4472E, size: 0x8, addend: 0x0, symName: __ZNSt3__16vectorIjNS_9allocatorIjEEE21_ConstructTransactionC2B8ue170006ERS3_m, symObjAddr: 0x4614, symBinAddr: 0x100011DE8, symSize: 0x44 }
  - { offsetInCU: 0xC267, offset: 0x44793, size: 0x8, addend: 0x0, symName: __ZNSt3__14pairIPjS1_EC1B8ue170006IS1_S1_LPv0EEEOT_OT0_, symObjAddr: 0x4788, symBinAddr: 0x100011F5C, symSize: 0x3C }
  - { offsetInCU: 0xC2C5, offset: 0x447F1, size: 0x8, addend: 0x0, symName: __ZNSt3__14pairIPjS1_EC2B8ue170006IS1_S1_LPv0EEEOT_OT0_, symObjAddr: 0x47C4, symBinAddr: 0x100011F98, symSize: 0x34 }
  - { offsetInCU: 0xC323, offset: 0x4484F, size: 0x8, addend: 0x0, symName: __ZNSt3__118__unwrap_iter_implIPjLb1EE8__unwrapB8ue170006ES1_, symObjAddr: 0x47F8, symBinAddr: 0x100011FCC, symSize: 0x24 }
  - { offsetInCU: 0xC346, offset: 0x44872, size: 0x8, addend: 0x0, symName: __ZNSt3__118__unwrap_iter_implIPjLb1EE8__rewrapB8ue170006ES1_S1_, symObjAddr: 0x481C, symBinAddr: 0x100011FF0, symSize: 0x50 }
  - { offsetInCU: 0xC377, offset: 0x448A3, size: 0x8, addend: 0x0, symName: __ZNSt3__16vectorIjNS_9allocatorIjEEE21_ConstructTransactionD2B8ue170006Ev, symObjAddr: 0x486C, symBinAddr: 0x100012040, symSize: 0x20 }
  - { offsetInCU: 0xC3A0, offset: 0x448CC, size: 0x8, addend: 0x0, symName: __ZNKSt3__114__copy_trivialclB8ue170006IjjLi0EEENS_4pairIPT_PT0_EES4_S4_S6_, symObjAddr: 0x4984, symBinAddr: 0x100012158, symSize: 0x48 }
  - { offsetInCU: 0xC406, offset: 0x44932, size: 0x8, addend: 0x0, symName: __ZNSt3__14pairIPjS1_EC1B8ue170006IRS1_S1_LPv0EEEOT_OT0_, symObjAddr: 0x4B14, symBinAddr: 0x1000122E8, symSize: 0x3C }
  - { offsetInCU: 0xC464, offset: 0x44990, size: 0x8, addend: 0x0, symName: __ZNSt3__14pairIPjS1_EC2B8ue170006IRS1_S1_LPv0EEEOT_OT0_, symObjAddr: 0x4B50, symBinAddr: 0x100012324, symSize: 0x34 }
  - { offsetInCU: 0xC4C2, offset: 0x449EE, size: 0x8, addend: 0x0, symName: __ZNKSt3__16vectorIjNS_9allocatorIjEEE17__annotate_shrinkB8ue170006Em, symObjAddr: 0x4B84, symBinAddr: 0x100012358, symSize: 0xB4 }
  - { offsetInCU: 0xC4F5, offset: 0x44A21, size: 0x8, addend: 0x0, symName: __ZNSt3__16vectorIjNS_9allocatorIjEEE5clearB8ue170006Ev, symObjAddr: 0x4C38, symBinAddr: 0x10001240C, symSize: 0x44 }
  - { offsetInCU: 0xC528, offset: 0x44A54, size: 0x8, addend: 0x0, symName: __ZNSt3__16vectorIjNS_9allocatorIjEEE9__end_capB8ue170006Ev, symObjAddr: 0x4C7C, symBinAddr: 0x100012450, symSize: 0x28 }
  - { offsetInCU: 0xC54C, offset: 0x44A78, size: 0x8, addend: 0x0, symName: __ZNSt3__117__compressed_pairIPjNS_9allocatorIjEEE5firstB8ue170006Ev, symObjAddr: 0x4CA4, symBinAddr: 0x100012478, symSize: 0x24 }
  - { offsetInCU: 0xC570, offset: 0x44A9C, size: 0x8, addend: 0x0, symName: __ZNSt3__122__compressed_pair_elemIPjLi0ELb0EE5__getB8ue170006Ev, symObjAddr: 0x4CC8, symBinAddr: 0x10001249C, symSize: 0x14 }
  - { offsetInCU: 0xC594, offset: 0x44AC0, size: 0x8, addend: 0x0, symName: __ZNKSt3__16vectorIjNS_9allocatorIjEEE8max_sizeEv, symObjAddr: 0x4CDC, symBinAddr: 0x1000124B0, symSize: 0x60 }
  - { offsetInCU: 0xC5BB, offset: 0x44AE7, size: 0x8, addend: 0x0, symName: __ZNKSt3__16vectorIjNS_9allocatorIjEEE20__throw_length_errorB8ue170006Ev, symObjAddr: 0x4D3C, symBinAddr: 0x100012510, symSize: 0x1C }
  - { offsetInCU: 0xC5DF, offset: 0x44B0B, size: 0x8, addend: 0x0, symName: __ZNKSt3__16vectorIjNS_9allocatorIjEEE14__annotate_newB8ue170006Em, symObjAddr: 0x4D98, symBinAddr: 0x10001256C, symSize: 0xAC }
  - { offsetInCU: 0xC61C, offset: 0x44B48, size: 0x8, addend: 0x0, symName: __ZNSt3__116allocator_traitsINS_9allocatorIjEEE8max_sizeB8ue170006IS2_vEEmRKS2_, symObjAddr: 0x4E44, symBinAddr: 0x100012618, symSize: 0x24 }
  - { offsetInCU: 0xC64A, offset: 0x44B76, size: 0x8, addend: 0x0, symName: __ZNKSt3__16vectorIjNS_9allocatorIjEEE7__allocB8ue170006Ev, symObjAddr: 0x4E68, symBinAddr: 0x10001263C, symSize: 0x28 }
  - { offsetInCU: 0xC66E, offset: 0x44B9A, size: 0x8, addend: 0x0, symName: __ZNKSt3__19allocatorIjE8max_sizeB8ue170006Ev, symObjAddr: 0x4E90, symBinAddr: 0x100012664, symSize: 0x14 }
  - { offsetInCU: 0xC692, offset: 0x44BBE, size: 0x8, addend: 0x0, symName: __ZNKSt3__117__compressed_pairIPjNS_9allocatorIjEEE6secondB8ue170006Ev, symObjAddr: 0x4EA4, symBinAddr: 0x100012678, symSize: 0x24 }
  - { offsetInCU: 0xC6B6, offset: 0x44BE2, size: 0x8, addend: 0x0, symName: __ZNKSt3__122__compressed_pair_elemINS_9allocatorIjEELi1ELb1EE5__getB8ue170006Ev, symObjAddr: 0x4EC8, symBinAddr: 0x10001269C, symSize: 0x14 }
  - { offsetInCU: 0xC6DA, offset: 0x44C06, size: 0x8, addend: 0x0, symName: __ZNSt3__19allocatorIjE8allocateB8ue170006Em, symObjAddr: 0x4EDC, symBinAddr: 0x1000126B0, symSize: 0x58 }
  - { offsetInCU: 0xC70C, offset: 0x44C38, size: 0x8, addend: 0x0, symName: __ZNSt3__16vectorI7TextureNS_9allocatorIS1_EEE19__copy_assign_allocB8ue170006ERKS4_, symObjAddr: 0x4F5C, symBinAddr: 0x100012730, symSize: 0x2C }
  - { offsetInCU: 0xC73F, offset: 0x44C6B, size: 0x8, addend: 0x0, symName: __ZNSt3__16vectorI7TextureNS_9allocatorIS1_EEE6assignIPS1_Li0EEEvT_S7_, symObjAddr: 0x4F88, symBinAddr: 0x10001275C, symSize: 0x5C }
  - { offsetInCU: 0xC793, offset: 0x44CBF, size: 0x8, addend: 0x0, symName: __ZNSt3__16vectorI7TextureNS_9allocatorIS1_EEE19__copy_assign_allocB8ue170006ERKS4_NS_17integral_constantIbLb0EEE, symObjAddr: 0x4FE4, symBinAddr: 0x1000127B8, symSize: 0x14 }
  - { offsetInCU: 0xC7CF, offset: 0x44CFB, size: 0x8, addend: 0x0, symName: __ZNSt3__16vectorI7TextureNS_9allocatorIS1_EEE18__assign_with_sizeB8ue170006IPS1_S6_EEvT_T0_l, symObjAddr: 0x4FF8, symBinAddr: 0x1000127CC, symSize: 0x164 }
  - { offsetInCU: 0xC880, offset: 0x44DAC, size: 0x8, addend: 0x0, symName: __ZNSt3__16vectorI7TextureNS_9allocatorIS1_EEE18__construct_at_endIPS1_S6_EEvT_T0_m, symObjAddr: 0x51FC, symBinAddr: 0x1000129D0, symSize: 0x8C }
  - { offsetInCU: 0xC8F5, offset: 0x44E21, size: 0x8, addend: 0x0, symName: __ZNSt3__16vectorI7TextureNS_9allocatorIS1_EEE17__destruct_at_endB8ue170006EPS1_, symObjAddr: 0x52CC, symBinAddr: 0x100012AA0, symSize: 0x4C }
  - { offsetInCU: 0xC937, offset: 0x44E63, size: 0x8, addend: 0x0, symName: __ZNSt3__16vectorI7TextureNS_9allocatorIS1_EEE13__vdeallocateEv, symObjAddr: 0x5318, symBinAddr: 0x100012AEC, symSize: 0x94 }
  - { offsetInCU: 0xC95E, offset: 0x44E8A, size: 0x8, addend: 0x0, symName: __ZNSt3__16vectorI7TextureNS_9allocatorIS1_EEE11__vallocateB8ue170006Em, symObjAddr: 0x53AC, symBinAddr: 0x100012B80, symSize: 0xB4 }
  - { offsetInCU: 0xC9A0, offset: 0x44ECC, size: 0x8, addend: 0x0, symName: __ZNKSt3__16vectorI7TextureNS_9allocatorIS1_EEE11__recommendB8ue170006Em, symObjAddr: 0x5460, symBinAddr: 0x100012C34, symSize: 0xB4 }
  - { offsetInCU: 0xCA0D, offset: 0x44F39, size: 0x8, addend: 0x0, symName: __ZNSt3__16vectorI7TextureNS_9allocatorIS1_EEE21_ConstructTransactionC1B8ue170006ERS4_m, symObjAddr: 0x557C, symBinAddr: 0x100012D50, symSize: 0x3C }
  - { offsetInCU: 0xCA54, offset: 0x44F80, size: 0x8, addend: 0x0, symName: __ZNSt3__16vectorI7TextureNS_9allocatorIS1_EEE21_ConstructTransactionD1B8ue170006Ev, symObjAddr: 0x5638, symBinAddr: 0x100012E0C, symSize: 0x2C }
  - { offsetInCU: 0xCA7D, offset: 0x44FA9, size: 0x8, addend: 0x0, symName: __ZNSt3__16vectorI7TextureNS_9allocatorIS1_EEE21_ConstructTransactionC2B8ue170006ERS4_m, symObjAddr: 0x5664, symBinAddr: 0x100012E38, symSize: 0x4C }
  - { offsetInCU: 0xCAE2, offset: 0x4500E, size: 0x8, addend: 0x0, symName: __ZNSt3__14pairIP7TextureS2_EC1B8ue170006IS2_S2_LPv0EEEOT_OT0_, symObjAddr: 0x57E0, symBinAddr: 0x100012FB4, symSize: 0x3C }
  - { offsetInCU: 0xCB40, offset: 0x4506C, size: 0x8, addend: 0x0, symName: __ZNSt3__14pairIP7TextureS2_EC2B8ue170006IS2_S2_LPv0EEEOT_OT0_, symObjAddr: 0x581C, symBinAddr: 0x100012FF0, symSize: 0x34 }
  - { offsetInCU: 0xCB9E, offset: 0x450CA, size: 0x8, addend: 0x0, symName: __ZNSt3__118__unwrap_iter_implIP7TextureLb1EE8__unwrapB8ue170006ES2_, symObjAddr: 0x5850, symBinAddr: 0x100013024, symSize: 0x24 }
  - { offsetInCU: 0xCBC1, offset: 0x450ED, size: 0x8, addend: 0x0, symName: __ZNSt3__118__unwrap_iter_implIP7TextureLb1EE8__rewrapB8ue170006ES2_S2_, symObjAddr: 0x5874, symBinAddr: 0x100013048, symSize: 0x58 }
  - { offsetInCU: 0xCBF2, offset: 0x4511E, size: 0x8, addend: 0x0, symName: __ZNSt3__16vectorI7TextureNS_9allocatorIS1_EEE21_ConstructTransactionD2B8ue170006Ev, symObjAddr: 0x58CC, symBinAddr: 0x1000130A0, symSize: 0x20 }
  - { offsetInCU: 0xCC1B, offset: 0x45147, size: 0x8, addend: 0x0, symName: __ZNKSt3__114__copy_trivialclB8ue170006I7TextureS2_Li0EEENS_4pairIPT_PT0_EES5_S5_S7_, symObjAddr: 0x59E4, symBinAddr: 0x1000131B8, symSize: 0x48 }
  - { offsetInCU: 0xCC81, offset: 0x451AD, size: 0x8, addend: 0x0, symName: __ZNSt3__14pairIP7TextureS2_EC1B8ue170006IRS2_S2_LPv0EEEOT_OT0_, symObjAddr: 0x5B80, symBinAddr: 0x100013354, symSize: 0x3C }
  - { offsetInCU: 0xCCDF, offset: 0x4520B, size: 0x8, addend: 0x0, symName: __ZNSt3__14pairIP7TextureS2_EC2B8ue170006IRS2_S2_LPv0EEEOT_OT0_, symObjAddr: 0x5BBC, symBinAddr: 0x100013390, symSize: 0x34 }
  - { offsetInCU: 0xCD3D, offset: 0x45269, size: 0x8, addend: 0x0, symName: __ZNKSt3__16vectorI7TextureNS_9allocatorIS1_EEE17__annotate_shrinkB8ue170006Em, symObjAddr: 0x5BF0, symBinAddr: 0x1000133C4, symSize: 0xD0 }
  - { offsetInCU: 0xCD70, offset: 0x4529C, size: 0x8, addend: 0x0, symName: __ZNSt3__16vectorI7TextureNS_9allocatorIS1_EEE5clearB8ue170006Ev, symObjAddr: 0x5CC0, symBinAddr: 0x100013494, symSize: 0x44 }
  - { offsetInCU: 0xCDA3, offset: 0x452CF, size: 0x8, addend: 0x0, symName: __ZNSt3__16vectorI7TextureNS_9allocatorIS1_EEE9__end_capB8ue170006Ev, symObjAddr: 0x5D04, symBinAddr: 0x1000134D8, symSize: 0x28 }
  - { offsetInCU: 0xCDC7, offset: 0x452F3, size: 0x8, addend: 0x0, symName: __ZNSt3__117__compressed_pairIP7TextureNS_9allocatorIS1_EEE5firstB8ue170006Ev, symObjAddr: 0x5D2C, symBinAddr: 0x100013500, symSize: 0x24 }
  - { offsetInCU: 0xCDEB, offset: 0x45317, size: 0x8, addend: 0x0, symName: __ZNSt3__122__compressed_pair_elemIP7TextureLi0ELb0EE5__getB8ue170006Ev, symObjAddr: 0x5D50, symBinAddr: 0x100013524, symSize: 0x14 }
  - { offsetInCU: 0xCE0F, offset: 0x4533B, size: 0x8, addend: 0x0, symName: __ZNKSt3__16vectorI7TextureNS_9allocatorIS1_EEE8max_sizeEv, symObjAddr: 0x5D64, symBinAddr: 0x100013538, symSize: 0x60 }
  - { offsetInCU: 0xCE36, offset: 0x45362, size: 0x8, addend: 0x0, symName: __ZNKSt3__16vectorI7TextureNS_9allocatorIS1_EEE20__throw_length_errorB8ue170006Ev, symObjAddr: 0x5DC4, symBinAddr: 0x100013598, symSize: 0x1C }
  - { offsetInCU: 0xCE5A, offset: 0x45386, size: 0x8, addend: 0x0, symName: __ZNKSt3__16vectorI7TextureNS_9allocatorIS1_EEE14__annotate_newB8ue170006Em, symObjAddr: 0x5E20, symBinAddr: 0x1000135F4, symSize: 0xC8 }
  - { offsetInCU: 0xCE97, offset: 0x453C3, size: 0x8, addend: 0x0, symName: __ZNSt3__116allocator_traitsINS_9allocatorI7TextureEEE8max_sizeB8ue170006IS3_vEEmRKS3_, symObjAddr: 0x5EE8, symBinAddr: 0x1000136BC, symSize: 0x24 }
  - { offsetInCU: 0xCEC5, offset: 0x453F1, size: 0x8, addend: 0x0, symName: __ZNKSt3__16vectorI7TextureNS_9allocatorIS1_EEE7__allocB8ue170006Ev, symObjAddr: 0x5F0C, symBinAddr: 0x1000136E0, symSize: 0x28 }
  - { offsetInCU: 0xCEE9, offset: 0x45415, size: 0x8, addend: 0x0, symName: __ZNKSt3__19allocatorI7TextureE8max_sizeB8ue170006Ev, symObjAddr: 0x5F34, symBinAddr: 0x100013708, symSize: 0x18 }
  - { offsetInCU: 0xCF0D, offset: 0x45439, size: 0x8, addend: 0x0, symName: __ZNKSt3__117__compressed_pairIP7TextureNS_9allocatorIS1_EEE6secondB8ue170006Ev, symObjAddr: 0x5F4C, symBinAddr: 0x100013720, symSize: 0x24 }
  - { offsetInCU: 0xCF31, offset: 0x4545D, size: 0x8, addend: 0x0, symName: __ZNKSt3__122__compressed_pair_elemINS_9allocatorI7TextureEELi1ELb1EE5__getB8ue170006Ev, symObjAddr: 0x5F70, symBinAddr: 0x100013744, symSize: 0x14 }
  - { offsetInCU: 0xCF55, offset: 0x45481, size: 0x8, addend: 0x0, symName: __ZNSt3__19allocatorI7TextureE8allocateB8ue170006Em, symObjAddr: 0x5F84, symBinAddr: 0x100013758, symSize: 0x5C }
  - { offsetInCU: 0xCF87, offset: 0x454B3, size: 0x8, addend: 0x0, symName: __ZNKSt3__112basic_stringIcNS_11char_traitsIcEENS_9allocatorIcEEE4sizeB8ue170006Ev, symObjAddr: 0x6984, symBinAddr: 0x1000137DC, symSize: 0x54 }
  - { offsetInCU: 0xCFAB, offset: 0x454D7, size: 0x8, addend: 0x0, symName: __ZNKSt3__112basic_stringIcNS_11char_traitsIcEENS_9allocatorIcEEE15__get_long_sizeB8ue170006Ev, symObjAddr: 0x69D8, symBinAddr: 0x100013830, symSize: 0x28 }
  - { offsetInCU: 0xCFCF, offset: 0x454FB, size: 0x8, addend: 0x0, symName: __ZNKSt3__112basic_stringIcNS_11char_traitsIcEENS_9allocatorIcEEE16__get_short_sizeB8ue170006Ev, symObjAddr: 0x6A00, symBinAddr: 0x100013858, symSize: 0x34 }
  - { offsetInCU: 0xCFFD, offset: 0x45529, size: 0x8, addend: 0x0, symName: __ZNSt3__116allocator_traitsINS_9allocatorIcEEE37select_on_container_copy_constructionB8ue170006IS2_vvEES2_RKS2_, symObjAddr: 0x6A34, symBinAddr: 0x10001388C, symSize: 0x10 }
  - { offsetInCU: 0xD02C, offset: 0x45558, size: 0x8, addend: 0x0, symName: __ZNKSt3__112basic_stringIcNS_11char_traitsIcEENS_9allocatorIcEEE13get_allocatorB8ue170006Ev, symObjAddr: 0x6A44, symBinAddr: 0x10001389C, symSize: 0x24 }
  - { offsetInCU: 0xD050, offset: 0x4557C, size: 0x8, addend: 0x0, symName: __ZNSt3__112basic_stringIcNS_11char_traitsIcEENS_9allocatorIcEEEC1B8ue170006ENS_24__uninitialized_size_tagEmRKS4_, symObjAddr: 0x6A68, symBinAddr: 0x1000138C0, symSize: 0x3C }
  - { offsetInCU: 0xD0A3, offset: 0x455CF, size: 0x8, addend: 0x0, symName: __ZNSt3__111char_traitsIcE4copyB8ue170006EPcPKcm, symObjAddr: 0x6AA4, symBinAddr: 0x1000138FC, symSize: 0x40 }
  - { offsetInCU: 0xD0E2, offset: 0x4560E, size: 0x8, addend: 0x0, symName: __ZNSt3__111char_traitsIcE6assignB8ue170006EPcmc, symObjAddr: 0x6AE4, symBinAddr: 0x10001393C, symSize: 0x44 }
  - { offsetInCU: 0xD121, offset: 0x4564D, size: 0x8, addend: 0x0, symName: __ZNKSt3__112basic_stringIcNS_11char_traitsIcEENS_9allocatorIcEEE7__allocB8ue170006Ev, symObjAddr: 0x6B28, symBinAddr: 0x100013980, symSize: 0x24 }
  - { offsetInCU: 0xD145, offset: 0x45671, size: 0x8, addend: 0x0, symName: __ZNKSt3__117__compressed_pairINS_12basic_stringIcNS_11char_traitsIcEENS_9allocatorIcEEE5__repES5_E6secondB8ue170006Ev, symObjAddr: 0x6B4C, symBinAddr: 0x1000139A4, symSize: 0x24 }
  - { offsetInCU: 0xD169, offset: 0x45695, size: 0x8, addend: 0x0, symName: __ZNKSt3__122__compressed_pair_elemINS_9allocatorIcEELi1ELb1EE5__getB8ue170006Ev, symObjAddr: 0x6B70, symBinAddr: 0x1000139C8, symSize: 0x14 }
  - { offsetInCU: 0xD18D, offset: 0x456B9, size: 0x8, addend: 0x0, symName: __ZNSt3__112basic_stringIcNS_11char_traitsIcEENS_9allocatorIcEEEC2B8ue170006ENS_24__uninitialized_size_tagEmRKS4_, symObjAddr: 0x6B84, symBinAddr: 0x1000139DC, symSize: 0x110 }
  - { offsetInCU: 0xD20D, offset: 0x45739, size: 0x8, addend: 0x0, symName: __ZNSt3__117__compressed_pairINS_12basic_stringIcNS_11char_traitsIcEENS_9allocatorIcEEE5__repES5_EC1B8ue170006INS_18__default_init_tagERKS5_EEOT_OT0_, symObjAddr: 0x6C94, symBinAddr: 0x100013AEC, symSize: 0x3C }
  - { offsetInCU: 0xD264, offset: 0x45790, size: 0x8, addend: 0x0, symName: __ZNKSt3__112basic_stringIcNS_11char_traitsIcEENS_9allocatorIcEEE8max_sizeB8ue170006Ev, symObjAddr: 0x6CD0, symBinAddr: 0x100013B28, symSize: 0xAC }
  - { offsetInCU: 0xD2B5, offset: 0x457E1, size: 0x8, addend: 0x0, symName: __ZNKSt3__112basic_stringIcNS_11char_traitsIcEENS_9allocatorIcEEE20__throw_length_errorB8ue170006Ev, symObjAddr: 0x6D7C, symBinAddr: 0x100013BD4, symSize: 0x1C }
  - { offsetInCU: 0xD2D9, offset: 0x45805, size: 0x8, addend: 0x0, symName: __ZNSt3__112basic_stringIcNS_11char_traitsIcEENS_9allocatorIcEEE13__fits_in_ssoB8ue170006Em, symObjAddr: 0x6D98, symBinAddr: 0x100013BF0, symSize: 0x20 }
  - { offsetInCU: 0xD2FD, offset: 0x45829, size: 0x8, addend: 0x0, symName: __ZNSt3__112basic_stringIcNS_11char_traitsIcEENS_9allocatorIcEEE11__recommendB8ue170006Em, symObjAddr: 0x6DB8, symBinAddr: 0x100013C10, symSize: 0x84 }
  - { offsetInCU: 0xD330, offset: 0x4585C, size: 0x8, addend: 0x0, symName: __ZNSt3__116allocator_traitsINS_9allocatorIcEEE8allocateB8ue170006ERS2_m, symObjAddr: 0x6E3C, symBinAddr: 0x100013C94, symSize: 0x2C }
  - { offsetInCU: 0xD363, offset: 0x4588F, size: 0x8, addend: 0x0, symName: __ZNSt3__112basic_stringIcNS_11char_traitsIcEENS_9allocatorIcEEE16__begin_lifetimeB8ue170006EPcm, symObjAddr: 0x6E68, symBinAddr: 0x100013CC0, symSize: 0x14 }
  - { offsetInCU: 0xD396, offset: 0x458C2, size: 0x8, addend: 0x0, symName: __ZNSt3__112basic_stringIcNS_11char_traitsIcEENS_9allocatorIcEEE14__set_long_capB8ue170006Em, symObjAddr: 0x6E7C, symBinAddr: 0x100013CD4, symSize: 0x70 }
  - { offsetInCU: 0xD3C9, offset: 0x458F5, size: 0x8, addend: 0x0, symName: __ZNSt3__112basic_stringIcNS_11char_traitsIcEENS_9allocatorIcEEE18__set_long_pointerB8ue170006EPc, symObjAddr: 0x6EEC, symBinAddr: 0x100013D44, symSize: 0x38 }
  - { offsetInCU: 0xD3FC, offset: 0x45928, size: 0x8, addend: 0x0, symName: __ZNSt3__112basic_stringIcNS_11char_traitsIcEENS_9allocatorIcEEE15__set_long_sizeB8ue170006Em, symObjAddr: 0x6F24, symBinAddr: 0x100013D7C, symSize: 0x38 }
  - { offsetInCU: 0xD42F, offset: 0x4595B, size: 0x8, addend: 0x0, symName: __ZNSt3__117__compressed_pairINS_12basic_stringIcNS_11char_traitsIcEENS_9allocatorIcEEE5__repES5_EC2B8ue170006INS_18__default_init_tagERKS5_EEOT_OT0_, symObjAddr: 0x6F5C, symBinAddr: 0x100013DB4, symSize: 0x40 }
  - { offsetInCU: 0xD486, offset: 0x459B2, size: 0x8, addend: 0x0, symName: __ZNSt3__122__compressed_pair_elemINS_9allocatorIcEELi1ELb1EEC2B8ue170006IRKS2_vEEOT_, symObjAddr: 0x6F9C, symBinAddr: 0x100013DF4, symSize: 0x18 }
  - { offsetInCU: 0xD4C7, offset: 0x459F3, size: 0x8, addend: 0x0, symName: __ZNSt3__116allocator_traitsINS_9allocatorIcEEE8max_sizeB8ue170006IS2_vEEmRKS2_, symObjAddr: 0x6FB4, symBinAddr: 0x100013E0C, symSize: 0x24 }
  - { offsetInCU: 0xD4F5, offset: 0x45A21, size: 0x8, addend: 0x0, symName: __ZNSt3__114numeric_limitsImE3maxB8ue170006Ev, symObjAddr: 0x6FD8, symBinAddr: 0x100013E30, symSize: 0x14 }
  - { offsetInCU: 0xD509, offset: 0x45A35, size: 0x8, addend: 0x0, symName: __ZNKSt3__19allocatorIcE8max_sizeB8ue170006Ev, symObjAddr: 0x6FEC, symBinAddr: 0x100013E44, symSize: 0x14 }
  - { offsetInCU: 0xD52D, offset: 0x45A59, size: 0x8, addend: 0x0, symName: __ZNSt3__123__libcpp_numeric_limitsImLb1EE3maxB8ue170006Ev, symObjAddr: 0x7000, symBinAddr: 0x100013E58, symSize: 0x8 }
  - { offsetInCU: 0xD541, offset: 0x45A6D, size: 0x8, addend: 0x0, symName: __ZNSt3__112basic_stringIcNS_11char_traitsIcEENS_9allocatorIcEEE10__align_itB8ue170006ILm16EEEmm, symObjAddr: 0x7008, symBinAddr: 0x100013E60, symSize: 0x1C }
  - { offsetInCU: 0xD56F, offset: 0x45A9B, size: 0x8, addend: 0x0, symName: __ZNSt3__19allocatorIcE8allocateB8ue170006Em, symObjAddr: 0x7024, symBinAddr: 0x100013E7C, symSize: 0x58 }
  - { offsetInCU: 0xD5BA, offset: 0x45AE6, size: 0x8, addend: 0x0, symName: __ZNKSt3__114__copy_trivialclB8ue170006IKccLi0EEENS_4pairIPT_PT0_EES5_S5_S7_, symObjAddr: 0x729C, symBinAddr: 0x1000140F4, symSize: 0x48 }
  - { offsetInCU: 0xD63E, offset: 0x45B6A, size: 0x8, addend: 0x0, symName: __ZNSt3__14pairIPKcS2_EC1B8ue170006IS2_S2_LPv0EEEOT_OT0_, symObjAddr: 0x7404, symBinAddr: 0x10001425C, symSize: 0x3C }
  - { offsetInCU: 0xD69C, offset: 0x45BC8, size: 0x8, addend: 0x0, symName: __ZNSt3__14pairIPKcS2_EC2B8ue170006IS2_S2_LPv0EEEOT_OT0_, symObjAddr: 0x7440, symBinAddr: 0x100014298, symSize: 0x34 }
  - { offsetInCU: 0xD6FA, offset: 0x45C26, size: 0x8, addend: 0x0, symName: __ZNSt3__118__unwrap_iter_implIPKcLb1EE8__unwrapB8ue170006ES2_, symObjAddr: 0x7474, symBinAddr: 0x1000142CC, symSize: 0x24 }
  - { offsetInCU: 0xD727, offset: 0x45C53, size: 0x8, addend: 0x0, symName: __ZNSt3__14pairIPKcPcEC1B8ue170006IRS2_S3_LPv0EEEOT_OT0_, symObjAddr: 0x75AC, symBinAddr: 0x100014404, symSize: 0x3C }
  - { offsetInCU: 0xD785, offset: 0x45CB1, size: 0x8, addend: 0x0, symName: __ZNSt3__14pairIPKcPcEC2B8ue170006IRS2_S3_LPv0EEEOT_OT0_, symObjAddr: 0x75E8, symBinAddr: 0x100014440, symSize: 0x34 }
  - { offsetInCU: 0xD7E3, offset: 0x45D0F, size: 0x8, addend: 0x0, symName: __ZNSt3__118__unwrap_iter_implIPcLb1EE8__unwrapB8ue170006ES1_, symObjAddr: 0x761C, symBinAddr: 0x100014474, symSize: 0x24 }
  - { offsetInCU: 0xD806, offset: 0x45D32, size: 0x8, addend: 0x0, symName: __ZNSt3__14pairIPKcPcEC1B8ue170006IS2_S3_LPv0EEEOT_OT0_, symObjAddr: 0x7640, symBinAddr: 0x100014498, symSize: 0x3C }
  - { offsetInCU: 0xD864, offset: 0x45D90, size: 0x8, addend: 0x0, symName: __ZNSt3__14pairIPKcPcEC2B8ue170006IS2_S3_LPv0EEEOT_OT0_, symObjAddr: 0x767C, symBinAddr: 0x1000144D4, symSize: 0x34 }
  - { offsetInCU: 0xD8C2, offset: 0x45DEE, size: 0x8, addend: 0x0, symName: __ZNSt3__118__unwrap_iter_implIPKcLb1EE8__rewrapB8ue170006ES2_S2_, symObjAddr: 0x76EC, symBinAddr: 0x100014544, symSize: 0x48 }
  - { offsetInCU: 0xD8F3, offset: 0x45E1F, size: 0x8, addend: 0x0, symName: __ZNSt3__118__unwrap_iter_implIPcLb1EE8__rewrapB8ue170006ES1_S1_, symObjAddr: 0x7734, symBinAddr: 0x10001458C, symSize: 0x48 }
  - { offsetInCU: 0x825, offset: 0x4673C, size: 0x8, addend: 0x0, symName: __ZN3glmmlIfLNS_9qualifierE0EEENS_3matILi4ELi4ET_XT0_EE8col_typeERKS4_RKNS4_8row_typeE, symObjAddr: 0xDD4, symBinAddr: 0x100015340, symSize: 0x1B4 }
  - { offsetInCU: 0x923, offset: 0x4683A, size: 0x8, addend: 0x0, symName: __ZN3glmmlIfLNS_9qualifierE0EEENS_3vecILi4ET_XT0_EEERKS4_S6_, symObjAddr: 0x2394, symBinAddr: 0x1000164F8, symSize: 0x50 }
  - { offsetInCU: 0x12598, offset: 0x584AF, size: 0x8, addend: 0x0, symName: __ZNSt3__1lsB8ue170006IcNS_11char_traitsIcEENS_9allocatorIcEEEERNS_13basic_ostreamIT_T0_EES9_RKNS_12basic_stringIS6_S7_T1_EE, symObjAddr: 0x190, symBinAddr: 0x100014820, symSize: 0x4C }
  - { offsetInCU: 0x1337E, offset: 0x59295, size: 0x8, addend: 0x0, symName: __ZNSt3__119__allocate_at_leastB8ue170006INS_9allocatorI4MeshEEEENS_19__allocation_resultINS_16allocator_traitsIT_E7pointerEEERS6_m, symObjAddr: 0x68DC, symBinAddr: 0x100017BC8, symSize: 0x40 }
  - { offsetInCU: 0x133C1, offset: 0x592D8, size: 0x8, addend: 0x0, symName: __ZNSt3__142__uninitialized_allocator_move_if_noexceptB8ue170006INS_9allocatorI4MeshEENS_16reverse_iteratorIPS2_EES6_S6_EET2_RT_T0_T1_S7_, symObjAddr: 0x6C68, symBinAddr: 0x100017D80, symSize: 0x12C }
  - { offsetInCU: 0x13461, offset: 0x59378, size: 0x8, addend: 0x0, symName: __ZNSt3__14swapB8ue170006IP4MeshEENS_9enable_ifIXaasr21is_move_constructibleIT_EE5valuesr18is_move_assignableIS4_EE5valueEvE4typeERS4_S7_, symObjAddr: 0x6DE0, symBinAddr: 0x100017EF8, symSize: 0x3C }
  - { offsetInCU: 0x134B2, offset: 0x593C9, size: 0x8, addend: 0x0, symName: __ZNSt3__122__make_exception_guardB8ue170006INS_29_AllocatorDestroyRangeReverseINS_9allocatorI4MeshEENS_16reverse_iteratorIPS3_EEEEEENS_28__exception_guard_exceptionsIT_EESA_, symObjAddr: 0x6F2C, symBinAddr: 0x100017FFC, symSize: 0x4C }
  - { offsetInCU: 0x134E8, offset: 0x593FF, size: 0x8, addend: 0x0, symName: __ZNSt3__1neB8ue170006IP4MeshS2_EEbRKNS_16reverse_iteratorIT_EERKNS3_IT0_EE, symObjAddr: 0x6FBC, symBinAddr: 0x10001808C, symSize: 0x48 }
  - { offsetInCU: 0x13534, offset: 0x5944B, size: 0x8, addend: 0x0, symName: __ZNSt3__112__to_addressB8ue170006INS_16reverse_iteratorIP4MeshEEvEEu7__decayIDTclsr19__to_address_helperIT_EE6__callclsr3stdE7declvalIRKS5_EEEEES7_, symObjAddr: 0x7004, symBinAddr: 0x1000180D4, symSize: 0x24 }
  - { offsetInCU: 0x13594, offset: 0x594AB, size: 0x8, addend: 0x0, symName: __ZNSt3__119__allocator_destroyB8ue170006INS_9allocatorI4MeshEENS_16reverse_iteratorINS4_IPS2_EEEES7_EEvRT_T0_T1_, symObjAddr: 0x72B4, symBinAddr: 0x100018384, symSize: 0x70 }
  - { offsetInCU: 0x135FA, offset: 0x59511, size: 0x8, addend: 0x0, symName: __ZNSt3__1neB8ue170006INS_16reverse_iteratorIP4MeshEES4_EEbRKNS1_IT_EERKNS1_IT0_EE, symObjAddr: 0x7360, symBinAddr: 0x100018430, symSize: 0x60 }
  - { offsetInCU: 0x13646, offset: 0x5955D, size: 0x8, addend: 0x0, symName: __ZNSt3__112__to_addressB8ue170006INS_16reverse_iteratorINS1_IP4MeshEEEEvEEu7__decayIDTclsr19__to_address_helperIT_EE6__callclsr3stdE7declvalIRKS6_EEEEES8_, symObjAddr: 0x73EC, symBinAddr: 0x100018490, symSize: 0x24 }
  - { offsetInCU: 0x136A6, offset: 0x595BD, size: 0x8, addend: 0x0, symName: __ZNSt3__142__uninitialized_allocator_move_if_noexceptB8ue170006INS_9allocatorI6VertexEENS_16reverse_iteratorIPS2_EES6_S2_vEET1_RT_T0_SA_S7_, symObjAddr: 0x845C, symBinAddr: 0x100018D80, symSize: 0x78 }
  - { offsetInCU: 0x13724, offset: 0x5963B, size: 0x8, addend: 0x0, symName: __ZNSt3__14swapB8ue170006IP6VertexEENS_9enable_ifIXaasr21is_move_constructibleIT_EE5valuesr18is_move_assignableIS4_EE5valueEvE4typeERS4_S7_, symObjAddr: 0x8520, symBinAddr: 0x100018E44, symSize: 0x3C }
  - { offsetInCU: 0x13775, offset: 0x5968C, size: 0x8, addend: 0x0, symName: __ZNSt3__14moveB8ue170006INS_16reverse_iteratorIP6VertexEES4_EET0_T_S6_S5_, symObjAddr: 0x8624, symBinAddr: 0x100018E80, symSize: 0x78 }
  - { offsetInCU: 0x137CF, offset: 0x596E6, size: 0x8, addend: 0x0, symName: __ZNSt3__16__moveB8ue170006INS_17_ClassicAlgPolicyENS_16reverse_iteratorIP6VertexEES5_S5_EENS_4pairIT0_T2_EES7_T1_S8_, symObjAddr: 0x869C, symBinAddr: 0x100018EF8, symSize: 0x64 }
  - { offsetInCU: 0x1383B, offset: 0x59752, size: 0x8, addend: 0x0, symName: __ZNSt3__123__dispatch_copy_or_moveB8ue170006INS_17_ClassicAlgPolicyENS_11__move_loopIS1_EENS_14__move_trivialENS_16reverse_iteratorIP6VertexEES8_S8_EENS_4pairIT2_T4_EESA_T3_SB_, symObjAddr: 0x8700, symBinAddr: 0x100018F5C, symSize: 0x64 }
  - { offsetInCU: 0x138B9, offset: 0x597D0, size: 0x8, addend: 0x0, symName: __ZNSt3__121__unwrap_and_dispatchB8ue170006INS_10__overloadINS_11__move_loopINS_17_ClassicAlgPolicyEEENS_14__move_trivialEEENS_16reverse_iteratorIP6VertexEESA_SA_Li0EEENS_4pairIT0_T2_EESC_T1_SD_, symObjAddr: 0x8764, symBinAddr: 0x100018FC0, symSize: 0x12C }
  - { offsetInCU: 0x13949, offset: 0x59860, size: 0x8, addend: 0x0, symName: __ZNSt3__114__unwrap_rangeB8ue170006INS_16reverse_iteratorIP6VertexEES4_EENS_4pairIT0_S6_EET_S8_, symObjAddr: 0x8890, symBinAddr: 0x1000190EC, symSize: 0x84 }
  - { offsetInCU: 0x13B3A, offset: 0x59A51, size: 0x8, addend: 0x0, symName: __ZNSt3__113__unwrap_iterB8ue170006INS_16reverse_iteratorIP6VertexEENS_18__unwrap_iter_implIS4_Lb0EEELi0EEEDTclsrT0_8__unwrapclsr3stdE7declvalIT_EEEES8_, symObjAddr: 0x89B0, symBinAddr: 0x10001920C, symSize: 0x44 }
  - { offsetInCU: 0x13B7E, offset: 0x59A95, size: 0x8, addend: 0x0, symName: __ZNSt3__19make_pairB8ue170006INS_16reverse_iteratorIP6VertexEES4_EENS_4pairINS_18__unwrap_ref_decayIT_E4typeENS6_IT0_E4typeEEEOS7_OSA_, symObjAddr: 0x89F4, symBinAddr: 0x100019250, symSize: 0x38 }
  - { offsetInCU: 0x13BCD, offset: 0x59AE4, size: 0x8, addend: 0x0, symName: __ZNSt3__114__rewrap_rangeB8ue170006INS_16reverse_iteratorIP6VertexEES4_EET_S5_T0_, symObjAddr: 0x8A2C, symBinAddr: 0x100019288, symSize: 0x5C }
  - { offsetInCU: 0x13C19, offset: 0x59B30, size: 0x8, addend: 0x0, symName: __ZNSt3__113__rewrap_iterB8ue170006INS_16reverse_iteratorIP6VertexEES4_NS_18__unwrap_iter_implIS4_Lb0EEEEET_S7_T0_, symObjAddr: 0x8A88, symBinAddr: 0x1000192E4, symSize: 0x74 }
  - { offsetInCU: 0x13C6E, offset: 0x59B85, size: 0x8, addend: 0x0, symName: __ZNSt3__1neB8ue170006IP6VertexS2_EEbRKNS_16reverse_iteratorIT_EERKNS3_IT0_EE, symObjAddr: 0x8AFC, symBinAddr: 0x100019358, symSize: 0x48 }
  - { offsetInCU: 0x13DD4, offset: 0x59CEB, size: 0x8, addend: 0x0, symName: __ZNSt3__142__uninitialized_allocator_move_if_noexceptB8ue170006INS_9allocatorIjEENS_16reverse_iteratorIPjEES5_jvEET1_RT_T0_S9_S6_, symObjAddr: 0x9728, symBinAddr: 0x100019C58, symSize: 0x78 }
  - { offsetInCU: 0x13E52, offset: 0x59D69, size: 0x8, addend: 0x0, symName: __ZNSt3__14swapB8ue170006IPjEENS_9enable_ifIXaasr21is_move_constructibleIT_EE5valuesr18is_move_assignableIS3_EE5valueEvE4typeERS3_S6_, symObjAddr: 0x97EC, symBinAddr: 0x100019D1C, symSize: 0x3C }
  - { offsetInCU: 0x13EA3, offset: 0x59DBA, size: 0x8, addend: 0x0, symName: __ZNSt3__14moveB8ue170006INS_16reverse_iteratorIPjEES3_EET0_T_S5_S4_, symObjAddr: 0x98D4, symBinAddr: 0x100019D58, symSize: 0x78 }
  - { offsetInCU: 0x13EFD, offset: 0x59E14, size: 0x8, addend: 0x0, symName: __ZNSt3__16__moveB8ue170006INS_17_ClassicAlgPolicyENS_16reverse_iteratorIPjEES4_S4_EENS_4pairIT0_T2_EES6_T1_S7_, symObjAddr: 0x994C, symBinAddr: 0x100019DD0, symSize: 0x64 }
  - { offsetInCU: 0x13F69, offset: 0x59E80, size: 0x8, addend: 0x0, symName: __ZNSt3__123__dispatch_copy_or_moveB8ue170006INS_17_ClassicAlgPolicyENS_11__move_loopIS1_EENS_14__move_trivialENS_16reverse_iteratorIPjEES7_S7_EENS_4pairIT2_T4_EES9_T3_SA_, symObjAddr: 0x99B0, symBinAddr: 0x100019E34, symSize: 0x64 }
  - { offsetInCU: 0x13FE7, offset: 0x59EFE, size: 0x8, addend: 0x0, symName: __ZNSt3__121__unwrap_and_dispatchB8ue170006INS_10__overloadINS_11__move_loopINS_17_ClassicAlgPolicyEEENS_14__move_trivialEEENS_16reverse_iteratorIPjEES9_S9_Li0EEENS_4pairIT0_T2_EESB_T1_SC_, symObjAddr: 0x9A14, symBinAddr: 0x100019E98, symSize: 0x12C }
  - { offsetInCU: 0x14077, offset: 0x59F8E, size: 0x8, addend: 0x0, symName: __ZNSt3__114__unwrap_rangeB8ue170006INS_16reverse_iteratorIPjEES3_EENS_4pairIT0_S5_EET_S7_, symObjAddr: 0x9B40, symBinAddr: 0x100019FC4, symSize: 0x84 }
  - { offsetInCU: 0x14198, offset: 0x5A0AF, size: 0x8, addend: 0x0, symName: __ZNSt3__113__unwrap_iterB8ue170006INS_16reverse_iteratorIPjEENS_18__unwrap_iter_implIS3_Lb0EEELi0EEEDTclsrT0_8__unwrapclsr3stdE7declvalIT_EEEES7_, symObjAddr: 0x9C64, symBinAddr: 0x10001A0E8, symSize: 0x44 }
  - { offsetInCU: 0x141DC, offset: 0x5A0F3, size: 0x8, addend: 0x0, symName: __ZNSt3__19make_pairB8ue170006INS_16reverse_iteratorIPjEES3_EENS_4pairINS_18__unwrap_ref_decayIT_E4typeENS5_IT0_E4typeEEEOS6_OS9_, symObjAddr: 0x9CA8, symBinAddr: 0x10001A12C, symSize: 0x38 }
  - { offsetInCU: 0x1422B, offset: 0x5A142, size: 0x8, addend: 0x0, symName: __ZNSt3__114__rewrap_rangeB8ue170006INS_16reverse_iteratorIPjEES3_EET_S4_T0_, symObjAddr: 0x9CE0, symBinAddr: 0x10001A164, symSize: 0x5C }
  - { offsetInCU: 0x14277, offset: 0x5A18E, size: 0x8, addend: 0x0, symName: __ZNSt3__113__rewrap_iterB8ue170006INS_16reverse_iteratorIPjEES3_NS_18__unwrap_iter_implIS3_Lb0EEEEET_S6_T0_, symObjAddr: 0x9D3C, symBinAddr: 0x10001A1C0, symSize: 0x74 }
  - { offsetInCU: 0x142CC, offset: 0x5A1E3, size: 0x8, addend: 0x0, symName: __ZNSt3__1neB8ue170006IPjS1_EEbRKNS_16reverse_iteratorIT_EERKNS2_IT0_EE, symObjAddr: 0x9DB0, symBinAddr: 0x10001A234, symSize: 0x48 }
  - { offsetInCU: 0x14386, offset: 0x5A29D, size: 0x8, addend: 0x0, symName: __ZNSt3__142__uninitialized_allocator_move_if_noexceptB8ue170006INS_9allocatorI7TextureEENS_16reverse_iteratorIPS2_EES6_S2_vEET1_RT_T0_SA_S7_, symObjAddr: 0xAB60, symBinAddr: 0x10001ACA8, symSize: 0x78 }
  - { offsetInCU: 0x14404, offset: 0x5A31B, size: 0x8, addend: 0x0, symName: __ZNSt3__14swapB8ue170006IP7TextureEENS_9enable_ifIXaasr21is_move_constructibleIT_EE5valuesr18is_move_assignableIS4_EE5valueEvE4typeERS4_S7_, symObjAddr: 0xAC24, symBinAddr: 0x10001AD6C, symSize: 0x3C }
  - { offsetInCU: 0x14455, offset: 0x5A36C, size: 0x8, addend: 0x0, symName: __ZNSt3__14moveB8ue170006INS_16reverse_iteratorIP7TextureEES4_EET0_T_S6_S5_, symObjAddr: 0xAD28, symBinAddr: 0x10001ADA8, symSize: 0x78 }
  - { offsetInCU: 0x144AF, offset: 0x5A3C6, size: 0x8, addend: 0x0, symName: __ZNSt3__16__moveB8ue170006INS_17_ClassicAlgPolicyENS_16reverse_iteratorIP7TextureEES5_S5_EENS_4pairIT0_T2_EES7_T1_S8_, symObjAddr: 0xADA0, symBinAddr: 0x10001AE20, symSize: 0x64 }
  - { offsetInCU: 0x1451B, offset: 0x5A432, size: 0x8, addend: 0x0, symName: __ZNSt3__123__dispatch_copy_or_moveB8ue170006INS_17_ClassicAlgPolicyENS_11__move_loopIS1_EENS_14__move_trivialENS_16reverse_iteratorIP7TextureEES8_S8_EENS_4pairIT2_T4_EESA_T3_SB_, symObjAddr: 0xAE04, symBinAddr: 0x10001AE84, symSize: 0x64 }
  - { offsetInCU: 0x14599, offset: 0x5A4B0, size: 0x8, addend: 0x0, symName: __ZNSt3__121__unwrap_and_dispatchB8ue170006INS_10__overloadINS_11__move_loopINS_17_ClassicAlgPolicyEEENS_14__move_trivialEEENS_16reverse_iteratorIP7TextureEESA_SA_Li0EEENS_4pairIT0_T2_EESC_T1_SD_, symObjAddr: 0xAE68, symBinAddr: 0x10001AEE8, symSize: 0x12C }
  - { offsetInCU: 0x14629, offset: 0x5A540, size: 0x8, addend: 0x0, symName: __ZNSt3__114__unwrap_rangeB8ue170006INS_16reverse_iteratorIP7TextureEES4_EENS_4pairIT0_S6_EET_S8_, symObjAddr: 0xAF94, symBinAddr: 0x10001B014, symSize: 0x84 }
  - { offsetInCU: 0x1474A, offset: 0x5A661, size: 0x8, addend: 0x0, symName: __ZNSt3__113__unwrap_iterB8ue170006INS_16reverse_iteratorIP7TextureEENS_18__unwrap_iter_implIS4_Lb0EEELi0EEEDTclsrT0_8__unwrapclsr3stdE7declvalIT_EEEES8_, symObjAddr: 0xB0C0, symBinAddr: 0x10001B140, symSize: 0x44 }
  - { offsetInCU: 0x1478E, offset: 0x5A6A5, size: 0x8, addend: 0x0, symName: __ZNSt3__19make_pairB8ue170006INS_16reverse_iteratorIP7TextureEES4_EENS_4pairINS_18__unwrap_ref_decayIT_E4typeENS6_IT0_E4typeEEEOS7_OSA_, symObjAddr: 0xB104, symBinAddr: 0x10001B184, symSize: 0x38 }
  - { offsetInCU: 0x147DD, offset: 0x5A6F4, size: 0x8, addend: 0x0, symName: __ZNSt3__114__rewrap_rangeB8ue170006INS_16reverse_iteratorIP7TextureEES4_EET_S5_T0_, symObjAddr: 0xB13C, symBinAddr: 0x10001B1BC, symSize: 0x5C }
  - { offsetInCU: 0x14829, offset: 0x5A740, size: 0x8, addend: 0x0, symName: __ZNSt3__113__rewrap_iterB8ue170006INS_16reverse_iteratorIP7TextureEES4_NS_18__unwrap_iter_implIS4_Lb0EEEEET_S7_T0_, symObjAddr: 0xB198, symBinAddr: 0x10001B218, symSize: 0x74 }
  - { offsetInCU: 0x1487E, offset: 0x5A795, size: 0x8, addend: 0x0, symName: __ZNSt3__1neB8ue170006IP7TextureS2_EEbRKNS_16reverse_iteratorIT_EERKNS3_IT0_EE, symObjAddr: 0xB20C, symBinAddr: 0x10001B28C, symSize: 0x48 }
  - { offsetInCU: 0x15A72, offset: 0x5B989, size: 0x8, addend: 0x0, symName: __ZNSt3__16vectorI4MeshNS_9allocatorIS1_EEE26__swap_out_circular_bufferERNS_14__split_bufferIS1_RS3_EE, symObjAddr: 0x6298, symBinAddr: 0x100017858, symSize: 0x110 }
  - { offsetInCU: 0x15B04, offset: 0x5BA1B, size: 0x8, addend: 0x0, symName: __ZNSt3__16vectorI6VertexNS_9allocatorIS1_EEE26__swap_out_circular_bufferERNS_14__split_bufferIS1_RS3_EE, symObjAddr: 0x7F2C, symBinAddr: 0x100018A0C, symSize: 0x110 }
  - { offsetInCU: 0x15B5A, offset: 0x5BA71, size: 0x8, addend: 0x0, symName: __ZNSt3__16vectorIjNS_9allocatorIjEEE26__swap_out_circular_bufferERNS_14__split_bufferIjRS2_EE, symObjAddr: 0x9214, symBinAddr: 0x1000198F0, symSize: 0x110 }
  - { offsetInCU: 0x15BB0, offset: 0x5BAC7, size: 0x8, addend: 0x0, symName: __ZNSt3__16vectorI7TextureNS_9allocatorIS1_EEE26__swap_out_circular_bufferERNS_14__split_bufferIS1_RS3_EE, symObjAddr: 0xA638, symBinAddr: 0x10001A934, symSize: 0x110 }
  - { offsetInCU: 0x1A6C2, offset: 0x605D9, size: 0x8, addend: 0x0, symName: __ZN11ModelLoader10load_modelENSt3__112basic_stringIcNS0_11char_traitsIcEENS0_9allocatorIcEEEERNS0_6vectorI4MeshNS4_IS8_EEEE, symObjAddr: 0x0, symBinAddr: 0x100014690, symSize: 0x190 }
  - { offsetInCU: 0x1A72E, offset: 0x60645, size: 0x8, addend: 0x0, symName: __ZNSt3__16vectorINS_12basic_stringIcNS_11char_traitsIcEENS_9allocatorIcEEEENS4_IS6_EEEC1B8ue170006Ev, symObjAddr: 0x2A8, symBinAddr: 0x10001486C, symSize: 0x2C }
  - { offsetInCU: 0x1ADDF, offset: 0x60CF6, size: 0x8, addend: 0x0, symName: __ZN6Assimp8Importer8ReadFileERKNSt3__112basic_stringIcNS1_11char_traitsIcEENS1_9allocatorIcEEEEj, symObjAddr: 0x2D4, symBinAddr: 0x100014898, symSize: 0x44 }
  - { offsetInCU: 0x1AE24, offset: 0x60D3B, size: 0x8, addend: 0x0, symName: __ZN12aiMatrix4x4tIfEC1Ev, symObjAddr: 0x318, symBinAddr: 0x1000148DC, symSize: 0x2C }
  - { offsetInCU: 0x1AE4E, offset: 0x60D65, size: 0x8, addend: 0x0, symName: __ZN11ModelLoader12process_nodeEP6aiNodePK7aiSceneRNSt3__16vectorI4MeshNS5_9allocatorIS7_EEEERNS6_INS5_12basic_stringIcNS5_11char_traitsIcEENS8_IcEEEENS8_ISG_EEEERK12aiMatrix4x4tIfE, symObjAddr: 0x344, symBinAddr: 0x100014908, symSize: 0x158 }
  - { offsetInCU: 0x1AF01, offset: 0x60E18, size: 0x8, addend: 0x0, symName: __ZNK12aiMatrix4x4tIfEmlERKS0_, symObjAddr: 0x4C8, symBinAddr: 0x100014A60, symSize: 0x44 }
  - { offsetInCU: 0x1AF44, offset: 0x60E5B, size: 0x8, addend: 0x0, symName: __ZNSt3__16vectorI4MeshNS_9allocatorIS1_EEE9push_backB8ue170006EOS1_, symObjAddr: 0x50C, symBinAddr: 0x100014AA4, symSize: 0x6C }
  - { offsetInCU: 0x1AF7A, offset: 0x60E91, size: 0x8, addend: 0x0, symName: __ZN11ModelLoader12process_meshEP6aiMeshPK7aiSceneRK12aiMatrix4x4tIfERNSt3__16vectorINS9_12basic_stringIcNS9_11char_traitsIcEENS9_9allocatorIcEEEENSE_ISG_EEEE, symObjAddr: 0x578, symBinAddr: 0x100014B10, symSize: 0x5A4 }
  - { offsetInCU: 0x1B18F, offset: 0x610A6, size: 0x8, addend: 0x0, symName: __Z13aiMatrixToGlmRK12aiMatrix4x4tIfE, symObjAddr: 0xB48, symBinAddr: 0x1000150B4, symSize: 0xD0 }
  - { offsetInCU: 0x1B1BC, offset: 0x610D3, size: 0x8, addend: 0x0, symName: __ZN3glm3matILi4ELi4EfLNS_9qualifierE0EEC1ERKfS4_S4_S4_S4_S4_S4_S4_S4_S4_S4_S4_S4_S4_S4_S4_, symObjAddr: 0xC18, symBinAddr: 0x100015184, symSize: 0x100 }
  - { offsetInCU: 0x1B2D1, offset: 0x611E8, size: 0x8, addend: 0x0, symName: __Z15apply_transformRN3glm3vecILi3EfLNS_9qualifierE0EEERK12aiMatrix4x4tIfE, symObjAddr: 0xD18, symBinAddr: 0x100015284, symSize: 0x80 }
  - { offsetInCU: 0x1B333, offset: 0x6124A, size: 0x8, addend: 0x0, symName: __ZN3glm3vecILi4EfLNS_9qualifierE0EEC1IffLS1_0EEERKNS0_ILi3ET_XT1_EEET0_, symObjAddr: 0xD98, symBinAddr: 0x100015304, symSize: 0x3C }
  - { offsetInCU: 0x1B397, offset: 0x612AE, size: 0x8, addend: 0x0, symName: __ZN3glm3vecILi2EfLNS_9qualifierE0EEC1Eff, symObjAddr: 0x1040, symBinAddr: 0x1000154F4, symSize: 0x3C }
  - { offsetInCU: 0x1B3DD, offset: 0x612F4, size: 0x8, addend: 0x0, symName: __ZNSt3__16vectorI6VertexNS_9allocatorIS1_EEE9push_backB8ue170006ERKS1_, symObjAddr: 0x107C, symBinAddr: 0x100015530, symSize: 0x6C }
  - { offsetInCU: 0x1B413, offset: 0x6132A, size: 0x8, addend: 0x0, symName: __ZN6aiFaceC1ERKS_, symObjAddr: 0x10E8, symBinAddr: 0x10001559C, symSize: 0x34 }
  - { offsetInCU: 0x1B44A, offset: 0x61361, size: 0x8, addend: 0x0, symName: __ZNSt3__16vectorIjNS_9allocatorIjEEE9push_backB8ue170006ERKj, symObjAddr: 0x111C, symBinAddr: 0x1000155D0, symSize: 0x6C }
  - { offsetInCU: 0x1B480, offset: 0x61397, size: 0x8, addend: 0x0, symName: __ZN6aiFaceD1Ev, symObjAddr: 0x1188, symBinAddr: 0x10001563C, symSize: 0x2C }
  - { offsetInCU: 0x1B4A9, offset: 0x613C0, size: 0x8, addend: 0x0, symName: __ZNK10aiMaterial15GetTextureCountE13aiTextureType, symObjAddr: 0x11B4, symBinAddr: 0x100015668, symSize: 0x2C }
  - { offsetInCU: 0x1B4DD, offset: 0x613F4, size: 0x8, addend: 0x0, symName: __ZN8aiStringC1Ev, symObjAddr: 0x11E0, symBinAddr: 0x100015694, symSize: 0x2C }
  - { offsetInCU: 0x1B506, offset: 0x6141D, size: 0x8, addend: 0x0, symName: __ZNK10aiMaterial3GetEPKcjjR8aiString, symObjAddr: 0x120C, symBinAddr: 0x1000156C0, symSize: 0x44 }
  - { offsetInCU: 0x1B564, offset: 0x6147B, size: 0x8, addend: 0x0, symName: __ZN11ModelLoader24process_external_textureEP10aiMateriali13aiTextureTypeRNSt3__16vectorI7TextureNS3_9allocatorIS5_EEEE, symObjAddr: 0x1250, symBinAddr: 0x100015704, symSize: 0x564 }
  - { offsetInCU: 0x1B692, offset: 0x615A9, size: 0x8, addend: 0x0, symName: __ZN11ModelLoader24process_internal_textureEP10aiMateriali13aiTextureTypePK7aiSceneRNSt3__16vectorI7TextureNS6_9allocatorIS8_EEEE, symObjAddr: 0x17B4, symBinAddr: 0x100015C68, symSize: 0x360 }
  - { offsetInCU: 0x1B7D0, offset: 0x616E7, size: 0x8, addend: 0x0, symName: __ZNSt3__112basic_stringIcNS_11char_traitsIcEENS_9allocatorIcEEEaSB8ue170006EPKc, symObjAddr: 0x1BC4, symBinAddr: 0x100015FC8, symSize: 0x2C }
  - { offsetInCU: 0x1B802, offset: 0x61719, size: 0x8, addend: 0x0, symName: __Z6strchrB8ue170006Ua9enable_ifIXLb1EEEPKci, symObjAddr: 0x1BF0, symBinAddr: 0x100015FF4, symSize: 0x2C }
  - { offsetInCU: 0x1B83D, offset: 0x61754, size: 0x8, addend: 0x0, symName: __ZNK8aiString5C_StrEv, symObjAddr: 0x1C1C, symBinAddr: 0x100016020, symSize: 0x18 }
  - { offsetInCU: 0x1B866, offset: 0x6177D, size: 0x8, addend: 0x0, symName: __ZNKSt3__112basic_stringIcNS_11char_traitsIcEENS_9allocatorIcEEE12find_last_ofB8ue170006Ecm, symObjAddr: 0x1C68, symBinAddr: 0x100016038, symSize: 0x34 }
  - { offsetInCU: 0x1B8AB, offset: 0x617C2, size: 0x8, addend: 0x0, symName: __ZNKSt3__112basic_stringIcNS_11char_traitsIcEENS_9allocatorIcEEE6substrB8ue170006Emm, symObjAddr: 0x1C9C, symBinAddr: 0x10001606C, symSize: 0x68 }
  - { offsetInCU: 0x1B8ED, offset: 0x61804, size: 0x8, addend: 0x0, symName: __ZNSt3__112basic_stringIcNS_11char_traitsIcEENS_9allocatorIcEEEpLB8ue170006ERKS5_, symObjAddr: 0x1D38, symBinAddr: 0x1000160D4, symSize: 0x2C }
  - { offsetInCU: 0x1BA32, offset: 0x61949, size: 0x8, addend: 0x0, symName: __ZNSt3__114basic_ifstreamIcNS_11char_traitsIcEEEC1EPKcj, symObjAddr: 0x1D88, symBinAddr: 0x100016100, symSize: 0x16C }
  - { offsetInCU: 0x1BA7B, offset: 0x61992, size: 0x8, addend: 0x0, symName: __ZNKSt3__19basic_iosIcNS_11char_traitsIcEEE4goodB8ue170006Ev, symObjAddr: 0x1EF4, symBinAddr: 0x10001626C, symSize: 0x28 }
  - { offsetInCU: 0x1BA9F, offset: 0x619B6, size: 0x8, addend: 0x0, symName: __ZNSt3__16vectorI7TextureNS_9allocatorIS1_EEE9push_backB8ue170006ERKS1_, symObjAddr: 0x1F1C, symBinAddr: 0x100016294, symSize: 0x6C }
  - { offsetInCU: 0x1BADA, offset: 0x619F1, size: 0x8, addend: 0x0, symName: __ZNSt3__114basic_ifstreamIcNS_11char_traitsIcEEED1Ev, symObjAddr: 0x1F88, symBinAddr: 0x100016300, symSize: 0x40 }
  - { offsetInCU: 0x1BB06, offset: 0x61A1D, size: 0x8, addend: 0x0, symName: __ZNSt3__112basic_stringIcNS_11char_traitsIcEENS_9allocatorIcEEEpLB8ue170006EPKc, symObjAddr: 0x1FC8, symBinAddr: 0x100016340, symSize: 0x2C }
  - { offsetInCU: 0x1BB39, offset: 0x61A50, size: 0x8, addend: 0x0, symName: __ZN3glm3matILi4ELi4EfLNS_9qualifierE0EEC2ERKfS4_S4_S4_S4_S4_S4_S4_S4_S4_S4_S4_S4_S4_S4_S4_, symObjAddr: 0x2038, symBinAddr: 0x10001636C, symSize: 0x134 }
  - { offsetInCU: 0x1BC45, offset: 0x61B5C, size: 0x8, addend: 0x0, symName: __ZN3glm3vecILi4EfLNS_9qualifierE0EEC2IffLS1_0EEERKNS0_ILi3ET_XT1_EEET0_, symObjAddr: 0x21FC, symBinAddr: 0x1000164A0, symSize: 0x48 }
  - { offsetInCU: 0x1BCA9, offset: 0x61BC0, size: 0x8, addend: 0x0, symName: __ZN3glm3vecILi4EfLNS_9qualifierE0EEmLIfEERS2_RKNS0_ILi4ET_LS1_0EEE, symObjAddr: 0x252C, symBinAddr: 0x100016548, symSize: 0x58 }
  - { offsetInCU: 0x1BCE9, offset: 0x61C00, size: 0x8, addend: 0x0, symName: __ZN3glm3vecILi2EfLNS_9qualifierE0EEC2Eff, symObjAddr: 0x273C, symBinAddr: 0x1000165A0, symSize: 0x2C }
  - { offsetInCU: 0x1BD30, offset: 0x61C47, size: 0x8, addend: 0x0, symName: __ZN6aiFaceC2ERKS_, symObjAddr: 0x2768, symBinAddr: 0x1000165CC, symSize: 0x3C }
  - { offsetInCU: 0x1BD67, offset: 0x61C7E, size: 0x8, addend: 0x0, symName: __ZN6aiFaceaSERKS_, symObjAddr: 0x27A4, symBinAddr: 0x100016608, symSize: 0x100 }
  - { offsetInCU: 0x1BD99, offset: 0x61CB0, size: 0x8, addend: 0x0, symName: __ZN6aiFaceD2Ev, symObjAddr: 0x28A4, symBinAddr: 0x100016708, symSize: 0x50 }
  - { offsetInCU: 0x1BDC2, offset: 0x61CD9, size: 0x8, addend: 0x0, symName: __ZN8aiStringC2Ev, symObjAddr: 0x28F4, symBinAddr: 0x100016758, symSize: 0x4C }
  - { offsetInCU: 0x1BDEB, offset: 0x61D02, size: 0x8, addend: 0x0, symName: __ZNSt3__114basic_ifstreamIcNS_11char_traitsIcEEED2Ev, symObjAddr: 0x2940, symBinAddr: 0x1000167A4, symSize: 0x64 }
  - { offsetInCU: 0x1BE23, offset: 0x61D3A, size: 0x8, addend: 0x0, symName: __ZTv0_n24_NSt3__114basic_ifstreamIcNS_11char_traitsIcEEED1Ev, symObjAddr: 0x29A4, symBinAddr: 0x100016808, symSize: 0x28 }
  - { offsetInCU: 0x1BE3A, offset: 0x61D51, size: 0x8, addend: 0x0, symName: __ZN12aiMatrix4x4tIfEC2Ev, symObjAddr: 0x2B30, symBinAddr: 0x100016830, symSize: 0x5C }
  - { offsetInCU: 0x1BE6A, offset: 0x61D81, size: 0x8, addend: 0x0, symName: __ZNSt3__112basic_stringIcNS_11char_traitsIcEENS_9allocatorIcEEE6appendB8ue170006ERKS5_, symObjAddr: 0x3248, symBinAddr: 0x10001688C, symSize: 0x4C }
  - { offsetInCU: 0x1BEBB, offset: 0x61DD2, size: 0x8, addend: 0x0, symName: __ZNSt3__16vectorINS_12basic_stringIcNS_11char_traitsIcEENS_9allocatorIcEEEENS4_IS6_EEEC2B8ue170006Ev, symObjAddr: 0x3C00, symBinAddr: 0x1000168D8, symSize: 0x4C }
  - { offsetInCU: 0x1BEE9, offset: 0x61E00, size: 0x8, addend: 0x0, symName: __ZN12aiMatrix4x4tIfEmLERKS0_, symObjAddr: 0x4250, symBinAddr: 0x100016924, symSize: 0x46C }
  - { offsetInCU: 0x1BF1D, offset: 0x61E34, size: 0x8, addend: 0x0, symName: __ZN12aiMatrix4x4tIfEC1Effffffffffffffff, symObjAddr: 0x46BC, symBinAddr: 0x100016D90, symSize: 0xF0 }
  - { offsetInCU: 0x1C027, offset: 0x61F3E, size: 0x8, addend: 0x0, symName: __ZN12aiMatrix4x4tIfEC2Effffffffffffffff, symObjAddr: 0x47AC, symBinAddr: 0x100016E80, symSize: 0xF4 }
  - { offsetInCU: 0x1C13A, offset: 0x62051, size: 0x8, addend: 0x0, symName: __ZNSt3__16vectorI4MeshNS_9allocatorIS1_EEE22__construct_one_at_endB8ue170006IJS1_EEEvDpOT_, symObjAddr: 0x576C, symBinAddr: 0x100016F74, symSize: 0x90 }
  - { offsetInCU: 0x1C187, offset: 0x6209E, size: 0x8, addend: 0x0, symName: __ZNSt3__16vectorI4MeshNS_9allocatorIS1_EEE21__push_back_slow_pathIS1_EEvOT_, symObjAddr: 0x57FC, symBinAddr: 0x100017004, symSize: 0xD8 }
  - { offsetInCU: 0x1C1FD, offset: 0x62114, size: 0x8, addend: 0x0, symName: __ZNSt3__16vectorI4MeshNS_9allocatorIS1_EEE21_ConstructTransactionC1B8ue170006ERS4_m, symObjAddr: 0x590C, symBinAddr: 0x1000170DC, symSize: 0x3C }
  - { offsetInCU: 0x1C244, offset: 0x6215B, size: 0x8, addend: 0x0, symName: __ZNSt3__116allocator_traitsINS_9allocatorI4MeshEEE9constructB8ue170006IS2_JS2_EvEEvRS3_PT_DpOT0_, symObjAddr: 0x5948, symBinAddr: 0x100017118, symSize: 0x34 }
  - { offsetInCU: 0x1C29B, offset: 0x621B2, size: 0x8, addend: 0x0, symName: __ZNSt3__16vectorI4MeshNS_9allocatorIS1_EEE21_ConstructTransactionD1B8ue170006Ev, symObjAddr: 0x59B8, symBinAddr: 0x10001714C, symSize: 0x2C }
  - { offsetInCU: 0x1C2C4, offset: 0x621DB, size: 0x8, addend: 0x0, symName: __ZNSt3__16vectorI4MeshNS_9allocatorIS1_EEE21_ConstructTransactionC2B8ue170006ERS4_m, symObjAddr: 0x59E4, symBinAddr: 0x100017178, symSize: 0x4C }
  - { offsetInCU: 0x1C30B, offset: 0x62222, size: 0x8, addend: 0x0, symName: __ZNSt3__19allocatorI4MeshE9constructB8ue170006IS1_JS1_EEEvPT_DpOT0_, symObjAddr: 0x5A30, symBinAddr: 0x1000171C4, symSize: 0x30 }
  - { offsetInCU: 0x1C35F, offset: 0x62276, size: 0x8, addend: 0x0, symName: __ZN4MeshC1EOS_, symObjAddr: 0x5A60, symBinAddr: 0x1000171F4, symSize: 0x34 }
  - { offsetInCU: 0x1C392, offset: 0x622A9, size: 0x8, addend: 0x0, symName: __ZN4MeshC2EOS_, symObjAddr: 0x5A94, symBinAddr: 0x100017228, symSize: 0x68 }
  - { offsetInCU: 0x1C3C5, offset: 0x622DC, size: 0x8, addend: 0x0, symName: __ZNSt3__16vectorI6VertexNS_9allocatorIS1_EEEC1B8ue170006EOS4_, symObjAddr: 0x5AFC, symBinAddr: 0x100017290, symSize: 0x34 }
  - { offsetInCU: 0x1C3FF, offset: 0x62316, size: 0x8, addend: 0x0, symName: __ZNSt3__16vectorIjNS_9allocatorIjEEEC1B8ue170006EOS3_, symObjAddr: 0x5B30, symBinAddr: 0x1000172C4, symSize: 0x34 }
  - { offsetInCU: 0x1C439, offset: 0x62350, size: 0x8, addend: 0x0, symName: __ZNSt3__16vectorI7TextureNS_9allocatorIS1_EEEC1B8ue170006EOS4_, symObjAddr: 0x5B64, symBinAddr: 0x1000172F8, symSize: 0x34 }
  - { offsetInCU: 0x1C473, offset: 0x6238A, size: 0x8, addend: 0x0, symName: __ZNSt3__16vectorI6VertexNS_9allocatorIS1_EEEC2B8ue170006EOS4_, symObjAddr: 0x5B98, symBinAddr: 0x10001732C, symSize: 0xC4 }
  - { offsetInCU: 0x1C4B2, offset: 0x623C9, size: 0x8, addend: 0x0, symName: __ZNSt3__117__compressed_pairIP6VertexNS_9allocatorIS1_EEEC1B8ue170006IDnS4_EEOT_OT0_, symObjAddr: 0x5C5C, symBinAddr: 0x1000173F0, symSize: 0x3C }
  - { offsetInCU: 0x1C509, offset: 0x62420, size: 0x8, addend: 0x0, symName: __ZNSt3__117__compressed_pairIP6VertexNS_9allocatorIS1_EEEC2B8ue170006IDnS4_EEOT_OT0_, symObjAddr: 0x5CC0, symBinAddr: 0x10001742C, symSize: 0x44 }
  - { offsetInCU: 0x1C560, offset: 0x62477, size: 0x8, addend: 0x0, symName: __ZNSt3__122__compressed_pair_elemINS_9allocatorI6VertexEELi1ELb1EEC2B8ue170006IS3_vEEOT_, symObjAddr: 0x5D20, symBinAddr: 0x100017470, symSize: 0x18 }
  - { offsetInCU: 0x1C5A1, offset: 0x624B8, size: 0x8, addend: 0x0, symName: __ZNSt3__16vectorIjNS_9allocatorIjEEEC2B8ue170006EOS3_, symObjAddr: 0x5D70, symBinAddr: 0x100017488, symSize: 0xC4 }
  - { offsetInCU: 0x1C5E0, offset: 0x624F7, size: 0x8, addend: 0x0, symName: __ZNSt3__117__compressed_pairIPjNS_9allocatorIjEEEC1B8ue170006IDnS3_EEOT_OT0_, symObjAddr: 0x5E34, symBinAddr: 0x10001754C, symSize: 0x3C }
  - { offsetInCU: 0x1C637, offset: 0x6254E, size: 0x8, addend: 0x0, symName: __ZNSt3__117__compressed_pairIPjNS_9allocatorIjEEEC2B8ue170006IDnS3_EEOT_OT0_, symObjAddr: 0x5E98, symBinAddr: 0x100017588, symSize: 0x44 }
  - { offsetInCU: 0x1C68E, offset: 0x625A5, size: 0x8, addend: 0x0, symName: __ZNSt3__122__compressed_pair_elemINS_9allocatorIjEELi1ELb1EEC2B8ue170006IS2_vEEOT_, symObjAddr: 0x5EF8, symBinAddr: 0x1000175CC, symSize: 0x18 }
  - { offsetInCU: 0x1C6CF, offset: 0x625E6, size: 0x8, addend: 0x0, symName: __ZNSt3__16vectorI7TextureNS_9allocatorIS1_EEEC2B8ue170006EOS4_, symObjAddr: 0x5F48, symBinAddr: 0x1000175E4, symSize: 0xC4 }
  - { offsetInCU: 0x1C70E, offset: 0x62625, size: 0x8, addend: 0x0, symName: __ZNSt3__117__compressed_pairIP7TextureNS_9allocatorIS1_EEEC1B8ue170006IDnS4_EEOT_OT0_, symObjAddr: 0x600C, symBinAddr: 0x1000176A8, symSize: 0x3C }
  - { offsetInCU: 0x1C765, offset: 0x6267C, size: 0x8, addend: 0x0, symName: __ZNSt3__117__compressed_pairIP7TextureNS_9allocatorIS1_EEEC2B8ue170006IDnS4_EEOT_OT0_, symObjAddr: 0x6070, symBinAddr: 0x1000176E4, symSize: 0x44 }
  - { offsetInCU: 0x1C7BC, offset: 0x626D3, size: 0x8, addend: 0x0, symName: __ZNSt3__122__compressed_pair_elemINS_9allocatorI7TextureEELi1ELb1EEC2B8ue170006IS3_vEEOT_, symObjAddr: 0x60D0, symBinAddr: 0x100017728, symSize: 0x18 }
  - { offsetInCU: 0x1C7FD, offset: 0x62714, size: 0x8, addend: 0x0, symName: __ZNSt3__16vectorI4MeshNS_9allocatorIS1_EEE21_ConstructTransactionD2B8ue170006Ev, symObjAddr: 0x6158, symBinAddr: 0x100017740, symSize: 0x20 }
  - { offsetInCU: 0x1C826, offset: 0x6273D, size: 0x8, addend: 0x0, symName: __ZNKSt3__16vectorI4MeshNS_9allocatorIS1_EEE11__recommendB8ue170006Em, symObjAddr: 0x6178, symBinAddr: 0x100017760, symSize: 0xB4 }
  - { offsetInCU: 0x1C87A, offset: 0x62791, size: 0x8, addend: 0x0, symName: __ZNSt3__114__split_bufferI4MeshRNS_9allocatorIS1_EEEC1EmmS4_, symObjAddr: 0x6254, symBinAddr: 0x100017814, symSize: 0x44 }
  - { offsetInCU: 0x1C8CF, offset: 0x627E6, size: 0x8, addend: 0x0, symName: __ZNSt3__114__split_bufferI4MeshRNS_9allocatorIS1_EEED1Ev, symObjAddr: 0x63A8, symBinAddr: 0x100017968, symSize: 0x2C }
  - { offsetInCU: 0x1C8FA, offset: 0x62811, size: 0x8, addend: 0x0, symName: __ZNKSt3__16vectorI4MeshNS_9allocatorIS1_EEE8max_sizeEv, symObjAddr: 0x63D4, symBinAddr: 0x100017994, symSize: 0x60 }
  - { offsetInCU: 0x1C921, offset: 0x62838, size: 0x8, addend: 0x0, symName: __ZNKSt3__16vectorI4MeshNS_9allocatorIS1_EEE20__throw_length_errorB8ue170006Ev, symObjAddr: 0x6434, symBinAddr: 0x1000179F4, symSize: 0x1C }
  - { offsetInCU: 0x1C94F, offset: 0x62866, size: 0x8, addend: 0x0, symName: __ZNSt3__116allocator_traitsINS_9allocatorI4MeshEEE8max_sizeB8ue170006IS3_vEEmRKS3_, symObjAddr: 0x64E8, symBinAddr: 0x100017A10, symSize: 0x24 }
  - { offsetInCU: 0x1C97D, offset: 0x62894, size: 0x8, addend: 0x0, symName: __ZNKSt3__16vectorI4MeshNS_9allocatorIS1_EEE7__allocB8ue170006Ev, symObjAddr: 0x650C, symBinAddr: 0x100017A34, symSize: 0x28 }
  - { offsetInCU: 0x1C9A1, offset: 0x628B8, size: 0x8, addend: 0x0, symName: __ZNKSt3__19allocatorI4MeshE8max_sizeB8ue170006Ev, symObjAddr: 0x65D0, symBinAddr: 0x100017A5C, symSize: 0x18 }
  - { offsetInCU: 0x1C9C5, offset: 0x628DC, size: 0x8, addend: 0x0, symName: __ZNKSt3__117__compressed_pairIP4MeshNS_9allocatorIS1_EEE6secondB8ue170006Ev, symObjAddr: 0x65E8, symBinAddr: 0x100017A74, symSize: 0x24 }
  - { offsetInCU: 0x1C9E9, offset: 0x62900, size: 0x8, addend: 0x0, symName: __ZNKSt3__122__compressed_pair_elemINS_9allocatorI4MeshEELi1ELb1EE5__getB8ue170006Ev, symObjAddr: 0x660C, symBinAddr: 0x100017A98, symSize: 0x14 }
  - { offsetInCU: 0x1CA0D, offset: 0x62924, size: 0x8, addend: 0x0, symName: __ZNSt3__114__split_bufferI4MeshRNS_9allocatorIS1_EEEC2EmmS4_, symObjAddr: 0x67C0, symBinAddr: 0x100017AAC, symSize: 0xE0 }
  - { offsetInCU: 0x1CA80, offset: 0x62997, size: 0x8, addend: 0x0, symName: __ZNSt3__117__compressed_pairIP4MeshRNS_9allocatorIS1_EEEC1B8ue170006IDnS5_EEOT_OT0_, symObjAddr: 0x68A0, symBinAddr: 0x100017B8C, symSize: 0x3C }
  - { offsetInCU: 0x1CAD7, offset: 0x629EE, size: 0x8, addend: 0x0, symName: __ZNSt3__114__split_bufferI4MeshRNS_9allocatorIS1_EEE7__allocB8ue170006Ev, symObjAddr: 0x691C, symBinAddr: 0x100017C08, symSize: 0x28 }
  - { offsetInCU: 0x1CAFB, offset: 0x62A12, size: 0x8, addend: 0x0, symName: __ZNSt3__114__split_bufferI4MeshRNS_9allocatorIS1_EEE9__end_capB8ue170006Ev, symObjAddr: 0x6944, symBinAddr: 0x100017C30, symSize: 0x28 }
  - { offsetInCU: 0x1CB1F, offset: 0x62A36, size: 0x8, addend: 0x0, symName: __ZNSt3__117__compressed_pairIP4MeshRNS_9allocatorIS1_EEEC2B8ue170006IDnS5_EEOT_OT0_, symObjAddr: 0x696C, symBinAddr: 0x100017C58, symSize: 0x48 }
  - { offsetInCU: 0x1CB76, offset: 0x62A8D, size: 0x8, addend: 0x0, symName: __ZNSt3__122__compressed_pair_elemIRNS_9allocatorI4MeshEELi1ELb0EEC2B8ue170006IS4_vEEOT_, symObjAddr: 0x69D0, symBinAddr: 0x100017CA0, symSize: 0x20 }
  - { offsetInCU: 0x1CBB7, offset: 0x62ACE, size: 0x8, addend: 0x0, symName: __ZNSt3__19allocatorI4MeshE8allocateB8ue170006Em, symObjAddr: 0x69F0, symBinAddr: 0x100017CC0, symSize: 0x5C }
  - { offsetInCU: 0x1CBE9, offset: 0x62B00, size: 0x8, addend: 0x0, symName: __ZNSt3__117__compressed_pairIP4MeshRNS_9allocatorIS1_EEE6secondB8ue170006Ev, symObjAddr: 0x6B30, symBinAddr: 0x100017D1C, symSize: 0x28 }
  - { offsetInCU: 0x1CC0D, offset: 0x62B24, size: 0x8, addend: 0x0, symName: __ZNSt3__122__compressed_pair_elemIRNS_9allocatorI4MeshEELi1ELb0EE5__getB8ue170006Ev, symObjAddr: 0x6B58, symBinAddr: 0x100017D44, symSize: 0x18 }
  - { offsetInCU: 0x1CC31, offset: 0x62B48, size: 0x8, addend: 0x0, symName: __ZNSt3__117__compressed_pairIP4MeshRNS_9allocatorIS1_EEE5firstB8ue170006Ev, symObjAddr: 0x6B70, symBinAddr: 0x100017D5C, symSize: 0x24 }
  - { offsetInCU: 0x1CC55, offset: 0x62B6C, size: 0x8, addend: 0x0, symName: __ZNSt3__116reverse_iteratorIP4MeshEC1B8ue170006ES2_, symObjAddr: 0x6D94, symBinAddr: 0x100017EAC, symSize: 0x34 }
  - { offsetInCU: 0x1CC8C, offset: 0x62BA3, size: 0x8, addend: 0x0, symName: __ZNKSt3__116reverse_iteratorIP4MeshE4baseB8ue170006Ev, symObjAddr: 0x6DC8, symBinAddr: 0x100017EE0, symSize: 0x18 }
  - { offsetInCU: 0x1CCB0, offset: 0x62BC7, size: 0x8, addend: 0x0, symName: __ZNKSt3__16vectorI4MeshNS_9allocatorIS1_EEE14__annotate_newB8ue170006Em, symObjAddr: 0x6E1C, symBinAddr: 0x100017F34, symSize: 0xC8 }
  - { offsetInCU: 0x1CCE3, offset: 0x62BFA, size: 0x8, addend: 0x0, symName: __ZNSt3__129_AllocatorDestroyRangeReverseINS_9allocatorI4MeshEENS_16reverse_iteratorIPS2_EEEC1B8ue170006ERS3_RS6_S9_, symObjAddr: 0x6F78, symBinAddr: 0x100018048, symSize: 0x44 }
  - { offsetInCU: 0x1CD39, offset: 0x62C50, size: 0x8, addend: 0x0, symName: __ZNKSt3__116reverse_iteratorIP4MeshEdeB8ue170006Ev, symObjAddr: 0x7028, symBinAddr: 0x1000180F8, symSize: 0x28 }
  - { offsetInCU: 0x1CD6B, offset: 0x62C82, size: 0x8, addend: 0x0, symName: __ZNSt3__116reverse_iteratorIP4MeshEppB8ue170006Ev, symObjAddr: 0x7050, symBinAddr: 0x100018120, symSize: 0x20 }
  - { offsetInCU: 0x1CD8F, offset: 0x62CA6, size: 0x8, addend: 0x0, symName: __ZNSt3__128__exception_guard_exceptionsINS_29_AllocatorDestroyRangeReverseINS_9allocatorI4MeshEENS_16reverse_iteratorIPS3_EEEEE10__completeB8ue170006Ev, symObjAddr: 0x7070, symBinAddr: 0x100018140, symSize: 0x1C }
  - { offsetInCU: 0x1CDB3, offset: 0x62CCA, size: 0x8, addend: 0x0, symName: __ZNSt3__128__exception_guard_exceptionsINS_29_AllocatorDestroyRangeReverseINS_9allocatorI4MeshEENS_16reverse_iteratorIPS3_EEEEED1B8ue170006Ev, symObjAddr: 0x708C, symBinAddr: 0x10001815C, symSize: 0x2C }
  - { offsetInCU: 0x1CDDC, offset: 0x62CF3, size: 0x8, addend: 0x0, symName: __ZNSt3__128__exception_guard_exceptionsINS_29_AllocatorDestroyRangeReverseINS_9allocatorI4MeshEENS_16reverse_iteratorIPS3_EEEEEC1B8ue170006ES8_, symObjAddr: 0x70B8, symBinAddr: 0x100018188, symSize: 0x34 }
  - { offsetInCU: 0x1CE14, offset: 0x62D2B, size: 0x8, addend: 0x0, symName: __ZNSt3__128__exception_guard_exceptionsINS_29_AllocatorDestroyRangeReverseINS_9allocatorI4MeshEENS_16reverse_iteratorIPS3_EEEEEC2B8ue170006ES8_, symObjAddr: 0x70EC, symBinAddr: 0x1000181BC, symSize: 0x30 }
  - { offsetInCU: 0x1CE4C, offset: 0x62D63, size: 0x8, addend: 0x0, symName: __ZNSt3__129_AllocatorDestroyRangeReverseINS_9allocatorI4MeshEENS_16reverse_iteratorIPS2_EEEC2B8ue170006ERS3_RS6_S9_, symObjAddr: 0x711C, symBinAddr: 0x1000181EC, symSize: 0x38 }
  - { offsetInCU: 0x1CEA7, offset: 0x62DBE, size: 0x8, addend: 0x0, symName: __ZNSt3__119__to_address_helperINS_16reverse_iteratorIP4MeshEEvE6__callB8ue170006ERKS4_, symObjAddr: 0x7154, symBinAddr: 0x100018224, symSize: 0x38 }
  - { offsetInCU: 0x1CECA, offset: 0x62DE1, size: 0x8, addend: 0x0, symName: __ZNKSt3__116reverse_iteratorIP4MeshEptB8ue170006Ev, symObjAddr: 0x718C, symBinAddr: 0x10001825C, symSize: 0x24 }
  - { offsetInCU: 0x1CEEE, offset: 0x62E05, size: 0x8, addend: 0x0, symName: __ZNSt3__128__exception_guard_exceptionsINS_29_AllocatorDestroyRangeReverseINS_9allocatorI4MeshEENS_16reverse_iteratorIPS3_EEEEED2B8ue170006Ev, symObjAddr: 0x71B0, symBinAddr: 0x100018280, symSize: 0x50 }
  - { offsetInCU: 0x1CF17, offset: 0x62E2E, size: 0x8, addend: 0x0, symName: __ZNKSt3__129_AllocatorDestroyRangeReverseINS_9allocatorI4MeshEENS_16reverse_iteratorIPS2_EEEclB8ue170006Ev, symObjAddr: 0x7200, symBinAddr: 0x1000182D0, symSize: 0xB4 }
  - { offsetInCU: 0x1CF3C, offset: 0x62E53, size: 0x8, addend: 0x0, symName: __ZNSt3__116reverse_iteratorINS0_IP4MeshEEEC1B8ue170006ES3_, symObjAddr: 0x7324, symBinAddr: 0x1000183F4, symSize: 0x3C }
  - { offsetInCU: 0x1CF73, offset: 0x62E8A, size: 0x8, addend: 0x0, symName: __ZNSt3__116reverse_iteratorINS0_IP4MeshEEEppB8ue170006Ev, symObjAddr: 0x7410, symBinAddr: 0x1000184B4, symSize: 0x30 }
  - { offsetInCU: 0x1CF97, offset: 0x62EAE, size: 0x8, addend: 0x0, symName: __ZNKSt3__116reverse_iteratorINS0_IP4MeshEEE4baseB8ue170006Ev, symObjAddr: 0x7440, symBinAddr: 0x1000184E4, symSize: 0x24 }
  - { offsetInCU: 0x1CFC0, offset: 0x62ED7, size: 0x8, addend: 0x0, symName: __ZNSt3__119__to_address_helperINS_16reverse_iteratorINS1_IP4MeshEEEEvE6__callB8ue170006ERKS5_, symObjAddr: 0x748C, symBinAddr: 0x100018508, symSize: 0x38 }
  - { offsetInCU: 0x1CFE3, offset: 0x62EFA, size: 0x8, addend: 0x0, symName: __ZNKSt3__116reverse_iteratorINS0_IP4MeshEEEptB8ue170006Ev, symObjAddr: 0x74C4, symBinAddr: 0x100018540, symSize: 0x24 }
  - { offsetInCU: 0x1D007, offset: 0x62F1E, size: 0x8, addend: 0x0, symName: __ZNKSt3__116reverse_iteratorINS0_IP4MeshEEEdeB8ue170006Ev, symObjAddr: 0x74E8, symBinAddr: 0x100018564, symSize: 0x34 }
  - { offsetInCU: 0x1D039, offset: 0x62F50, size: 0x8, addend: 0x0, symName: __ZNSt3__116reverse_iteratorIP4MeshEmmB8ue170006Ev, symObjAddr: 0x751C, symBinAddr: 0x100018598, symSize: 0x20 }
  - { offsetInCU: 0x1D05D, offset: 0x62F74, size: 0x8, addend: 0x0, symName: __ZNSt3__116reverse_iteratorINS0_IP4MeshEEEC2B8ue170006ES3_, symObjAddr: 0x753C, symBinAddr: 0x1000185B8, symSize: 0x2C }
  - { offsetInCU: 0x1D094, offset: 0x62FAB, size: 0x8, addend: 0x0, symName: __ZNSt3__116reverse_iteratorIP4MeshEC2B8ue170006ES2_, symObjAddr: 0x7568, symBinAddr: 0x1000185E4, symSize: 0x28 }
  - { offsetInCU: 0x1D0CB, offset: 0x62FE2, size: 0x8, addend: 0x0, symName: __ZNSt3__114__split_bufferI4MeshRNS_9allocatorIS1_EEED2Ev, symObjAddr: 0x7590, symBinAddr: 0x10001860C, symSize: 0x8C }
  - { offsetInCU: 0x1D0F6, offset: 0x6300D, size: 0x8, addend: 0x0, symName: __ZNSt3__114__split_bufferI4MeshRNS_9allocatorIS1_EEE5clearB8ue170006Ev, symObjAddr: 0x761C, symBinAddr: 0x100018698, symSize: 0x28 }
  - { offsetInCU: 0x1D11A, offset: 0x63031, size: 0x8, addend: 0x0, symName: __ZNKSt3__114__split_bufferI4MeshRNS_9allocatorIS1_EEE8capacityB8ue170006Ev, symObjAddr: 0x7678, symBinAddr: 0x1000186C0, symSize: 0x40 }
  - { offsetInCU: 0x1D13E, offset: 0x63055, size: 0x8, addend: 0x0, symName: __ZNSt3__114__split_bufferI4MeshRNS_9allocatorIS1_EEE17__destruct_at_endB8ue170006EPS1_, symObjAddr: 0x76B8, symBinAddr: 0x100018700, symSize: 0x2C }
  - { offsetInCU: 0x1D170, offset: 0x63087, size: 0x8, addend: 0x0, symName: __ZNSt3__114__split_bufferI4MeshRNS_9allocatorIS1_EEE17__destruct_at_endB8ue170006EPS1_NS_17integral_constantIbLb0EEE, symObjAddr: 0x76E4, symBinAddr: 0x10001872C, symSize: 0x80 }
  - { offsetInCU: 0x1D1B0, offset: 0x630C7, size: 0x8, addend: 0x0, symName: __ZNKSt3__114__split_bufferI4MeshRNS_9allocatorIS1_EEE9__end_capB8ue170006Ev, symObjAddr: 0x77A8, symBinAddr: 0x1000187AC, symSize: 0x28 }
  - { offsetInCU: 0x1D1D4, offset: 0x630EB, size: 0x8, addend: 0x0, symName: __ZNKSt3__117__compressed_pairIP4MeshRNS_9allocatorIS1_EEE5firstB8ue170006Ev, symObjAddr: 0x77D0, symBinAddr: 0x1000187D4, symSize: 0x24 }
  - { offsetInCU: 0x1D1F8, offset: 0x6310F, size: 0x8, addend: 0x0, symName: __ZNSt3__16vectorI6VertexNS_9allocatorIS1_EEE22__construct_one_at_endB8ue170006IJRKS1_EEEvDpOT_, symObjAddr: 0x7B90, symBinAddr: 0x1000187F8, symSize: 0x90 }
  - { offsetInCU: 0x1D245, offset: 0x6315C, size: 0x8, addend: 0x0, symName: __ZNSt3__16vectorI6VertexNS_9allocatorIS1_EEE21__push_back_slow_pathIRKS1_EEvOT_, symObjAddr: 0x7C20, symBinAddr: 0x100018888, symSize: 0xD8 }
  - { offsetInCU: 0x1D2BB, offset: 0x631D2, size: 0x8, addend: 0x0, symName: __ZNSt3__116allocator_traitsINS_9allocatorI6VertexEEE9constructB8ue170006IS2_JRKS2_EvEEvRS3_PT_DpOT0_, symObjAddr: 0x7D34, symBinAddr: 0x100018960, symSize: 0x34 }
  - { offsetInCU: 0x1D312, offset: 0x63229, size: 0x8, addend: 0x0, symName: __ZNSt3__19allocatorI6VertexE9constructB8ue170006IS1_JRKS1_EEEvPT_DpOT0_, symObjAddr: 0x7DE0, symBinAddr: 0x100018994, symSize: 0x34 }
  - { offsetInCU: 0x1D366, offset: 0x6327D, size: 0x8, addend: 0x0, symName: __ZNSt3__114__split_bufferI6VertexRNS_9allocatorIS1_EEEC1EmmS4_, symObjAddr: 0x7EE8, symBinAddr: 0x1000189C8, symSize: 0x44 }
  - { offsetInCU: 0x1D3BB, offset: 0x632D2, size: 0x8, addend: 0x0, symName: __ZNSt3__114__split_bufferI6VertexRNS_9allocatorIS1_EEED1Ev, symObjAddr: 0x803C, symBinAddr: 0x100018B1C, symSize: 0x2C }
  - { offsetInCU: 0x1D3F0, offset: 0x63307, size: 0x8, addend: 0x0, symName: __ZNSt3__114__split_bufferI6VertexRNS_9allocatorIS1_EEEC2EmmS4_, symObjAddr: 0x8188, symBinAddr: 0x100018B48, symSize: 0xE0 }
  - { offsetInCU: 0x1D463, offset: 0x6337A, size: 0x8, addend: 0x0, symName: __ZNSt3__117__compressed_pairIP6VertexRNS_9allocatorIS1_EEEC1B8ue170006IDnS5_EEOT_OT0_, symObjAddr: 0x8268, symBinAddr: 0x100018C28, symSize: 0x3C }
  - { offsetInCU: 0x1D4BA, offset: 0x633D1, size: 0x8, addend: 0x0, symName: __ZNSt3__114__split_bufferI6VertexRNS_9allocatorIS1_EEE7__allocB8ue170006Ev, symObjAddr: 0x82E4, symBinAddr: 0x100018C64, symSize: 0x28 }
  - { offsetInCU: 0x1D4DE, offset: 0x633F5, size: 0x8, addend: 0x0, symName: __ZNSt3__114__split_bufferI6VertexRNS_9allocatorIS1_EEE9__end_capB8ue170006Ev, symObjAddr: 0x830C, symBinAddr: 0x100018C8C, symSize: 0x28 }
  - { offsetInCU: 0x1D502, offset: 0x63419, size: 0x8, addend: 0x0, symName: __ZNSt3__117__compressed_pairIP6VertexRNS_9allocatorIS1_EEEC2B8ue170006IDnS5_EEOT_OT0_, symObjAddr: 0x8334, symBinAddr: 0x100018CB4, symSize: 0x48 }
  - { offsetInCU: 0x1D559, offset: 0x63470, size: 0x8, addend: 0x0, symName: __ZNSt3__122__compressed_pair_elemIRNS_9allocatorI6VertexEELi1ELb0EEC2B8ue170006IS4_vEEOT_, symObjAddr: 0x837C, symBinAddr: 0x100018CFC, symSize: 0x20 }
  - { offsetInCU: 0x1D59A, offset: 0x634B1, size: 0x8, addend: 0x0, symName: __ZNSt3__117__compressed_pairIP6VertexRNS_9allocatorIS1_EEE6secondB8ue170006Ev, symObjAddr: 0x83F8, symBinAddr: 0x100018D1C, symSize: 0x28 }
  - { offsetInCU: 0x1D5BE, offset: 0x634D5, size: 0x8, addend: 0x0, symName: __ZNSt3__122__compressed_pair_elemIRNS_9allocatorI6VertexEELi1ELb0EE5__getB8ue170006Ev, symObjAddr: 0x8420, symBinAddr: 0x100018D44, symSize: 0x18 }
  - { offsetInCU: 0x1D5E2, offset: 0x634F9, size: 0x8, addend: 0x0, symName: __ZNSt3__117__compressed_pairIP6VertexRNS_9allocatorIS1_EEE5firstB8ue170006Ev, symObjAddr: 0x8438, symBinAddr: 0x100018D5C, symSize: 0x24 }
  - { offsetInCU: 0x1D606, offset: 0x6351D, size: 0x8, addend: 0x0, symName: __ZNSt3__116reverse_iteratorIP6VertexEC1B8ue170006ES2_, symObjAddr: 0x84D4, symBinAddr: 0x100018DF8, symSize: 0x34 }
  - { offsetInCU: 0x1D63D, offset: 0x63554, size: 0x8, addend: 0x0, symName: __ZNKSt3__116reverse_iteratorIP6VertexE4baseB8ue170006Ev, symObjAddr: 0x8508, symBinAddr: 0x100018E2C, symSize: 0x18 }
  - { offsetInCU: 0x1D684, offset: 0x6359B, size: 0x8, addend: 0x0, symName: __ZNKSt3__111__move_loopINS_17_ClassicAlgPolicyEEclB8ue170006INS_16reverse_iteratorIP6VertexEES7_S7_EENS_4pairIT_T1_EES9_T0_SA_, symObjAddr: 0x8914, symBinAddr: 0x100019170, symSize: 0x9C }
  - { offsetInCU: 0x1D6F2, offset: 0x63609, size: 0x8, addend: 0x0, symName: __ZNSt3__18_IterOpsINS_17_ClassicAlgPolicyEE11__iter_moveB8ue170006IRNS_16reverse_iteratorIP6VertexEEEENS_9enable_ifIXsr12is_referenceIDTdeclsr3stdE7declvalIRT_EEEEE5valueEDTclsr3stdE4movedeclsr3stdE7declvalISB_EEEEE4typeEOSA_, symObjAddr: 0x8B44, symBinAddr: 0x1000193A0, symSize: 0x28 }
  - { offsetInCU: 0x1D71E, offset: 0x63635, size: 0x8, addend: 0x0, symName: __ZNKSt3__116reverse_iteratorIP6VertexEdeB8ue170006Ev, symObjAddr: 0x8B6C, symBinAddr: 0x1000193C8, symSize: 0x28 }
  - { offsetInCU: 0x1D750, offset: 0x63667, size: 0x8, addend: 0x0, symName: __ZNSt3__116reverse_iteratorIP6VertexEppB8ue170006Ev, symObjAddr: 0x8B94, symBinAddr: 0x1000193F0, symSize: 0x20 }
  - { offsetInCU: 0x1D774, offset: 0x6368B, size: 0x8, addend: 0x0, symName: __ZNSt3__18_IterOpsINS_17_ClassicAlgPolicyEE25__validate_iter_referenceB8ue170006IRNS_16reverse_iteratorIP6VertexEEEEvv, symObjAddr: 0x8BB4, symBinAddr: 0x100019410, symSize: 0x4 }
  - { offsetInCU: 0x1D792, offset: 0x636A9, size: 0x8, addend: 0x0, symName: __ZNSt3__118__unwrap_iter_implINS_16reverse_iteratorIP6VertexEELb0EE8__unwrapB8ue170006ES4_, symObjAddr: 0x8BB8, symBinAddr: 0x100019414, symSize: 0x24 }
  - { offsetInCU: 0x1D7BA, offset: 0x636D1, size: 0x8, addend: 0x0, symName: __ZNSt3__14pairINS_16reverse_iteratorIP6VertexEES4_EC1B8ue170006IS4_S4_LPv0EEEOT_OT0_, symObjAddr: 0x8BDC, symBinAddr: 0x100019438, symSize: 0x3C }
  - { offsetInCU: 0x1D818, offset: 0x6372F, size: 0x8, addend: 0x0, symName: __ZNSt3__14pairINS_16reverse_iteratorIP6VertexEES4_EC2B8ue170006IS4_S4_LPv0EEEOT_OT0_, symObjAddr: 0x8C18, symBinAddr: 0x100019474, symSize: 0x34 }
  - { offsetInCU: 0x1D876, offset: 0x6378D, size: 0x8, addend: 0x0, symName: __ZNSt3__118__unwrap_iter_implINS_16reverse_iteratorIP6VertexEELb0EE8__rewrapB8ue170006ES4_S4_, symObjAddr: 0x8C4C, symBinAddr: 0x1000194A8, symSize: 0x2C }
  - { offsetInCU: 0x1D8A4, offset: 0x637BB, size: 0x8, addend: 0x0, symName: __ZNSt3__116reverse_iteratorIP6VertexEC2B8ue170006ES2_, symObjAddr: 0x8C78, symBinAddr: 0x1000194D4, symSize: 0x28 }
  - { offsetInCU: 0x1D8DB, offset: 0x637F2, size: 0x8, addend: 0x0, symName: __ZNSt3__114__split_bufferI6VertexRNS_9allocatorIS1_EEED2Ev, symObjAddr: 0x8CA0, symBinAddr: 0x1000194FC, symSize: 0x8C }
  - { offsetInCU: 0x1D906, offset: 0x6381D, size: 0x8, addend: 0x0, symName: __ZNSt3__114__split_bufferI6VertexRNS_9allocatorIS1_EEE5clearB8ue170006Ev, symObjAddr: 0x8D2C, symBinAddr: 0x100019588, symSize: 0x28 }
  - { offsetInCU: 0x1D92A, offset: 0x63841, size: 0x8, addend: 0x0, symName: __ZNKSt3__114__split_bufferI6VertexRNS_9allocatorIS1_EEE8capacityB8ue170006Ev, symObjAddr: 0x8D54, symBinAddr: 0x1000195B0, symSize: 0x40 }
  - { offsetInCU: 0x1D94E, offset: 0x63865, size: 0x8, addend: 0x0, symName: __ZNSt3__114__split_bufferI6VertexRNS_9allocatorIS1_EEE17__destruct_at_endB8ue170006EPS1_, symObjAddr: 0x8D94, symBinAddr: 0x1000195F0, symSize: 0x2C }
  - { offsetInCU: 0x1D980, offset: 0x63897, size: 0x8, addend: 0x0, symName: __ZNSt3__114__split_bufferI6VertexRNS_9allocatorIS1_EEE17__destruct_at_endB8ue170006EPS1_NS_17integral_constantIbLb0EEE, symObjAddr: 0x8DC0, symBinAddr: 0x10001961C, symSize: 0x80 }
  - { offsetInCU: 0x1D9C0, offset: 0x638D7, size: 0x8, addend: 0x0, symName: __ZNKSt3__114__split_bufferI6VertexRNS_9allocatorIS1_EEE9__end_capB8ue170006Ev, symObjAddr: 0x8E40, symBinAddr: 0x10001969C, symSize: 0x28 }
  - { offsetInCU: 0x1D9E4, offset: 0x638FB, size: 0x8, addend: 0x0, symName: __ZNKSt3__117__compressed_pairIP6VertexRNS_9allocatorIS1_EEE5firstB8ue170006Ev, symObjAddr: 0x8E68, symBinAddr: 0x1000196C4, symSize: 0x24 }
  - { offsetInCU: 0x1DA08, offset: 0x6391F, size: 0x8, addend: 0x0, symName: __ZNSt3__16vectorIjNS_9allocatorIjEEE22__construct_one_at_endB8ue170006IJRKjEEEvDpOT_, symObjAddr: 0x8E8C, symBinAddr: 0x1000196E8, symSize: 0x90 }
  - { offsetInCU: 0x1DA55, offset: 0x6396C, size: 0x8, addend: 0x0, symName: __ZNSt3__16vectorIjNS_9allocatorIjEEE21__push_back_slow_pathIRKjEEvOT_, symObjAddr: 0x8F1C, symBinAddr: 0x100019778, symSize: 0xD8 }
  - { offsetInCU: 0x1DACB, offset: 0x639E2, size: 0x8, addend: 0x0, symName: __ZNSt3__116allocator_traitsINS_9allocatorIjEEE9constructB8ue170006IjJRKjEvEEvRS2_PT_DpOT0_, symObjAddr: 0x9030, symBinAddr: 0x100019850, symSize: 0x34 }
  - { offsetInCU: 0x1DB22, offset: 0x63A39, size: 0x8, addend: 0x0, symName: __ZNSt3__19allocatorIjE9constructB8ue170006IjJRKjEEEvPT_DpOT0_, symObjAddr: 0x90D4, symBinAddr: 0x100019884, symSize: 0x28 }
  - { offsetInCU: 0x1DB76, offset: 0x63A8D, size: 0x8, addend: 0x0, symName: __ZNSt3__114__split_bufferIjRNS_9allocatorIjEEEC1EmmS3_, symObjAddr: 0x91D0, symBinAddr: 0x1000198AC, symSize: 0x44 }
  - { offsetInCU: 0x1DBCB, offset: 0x63AE2, size: 0x8, addend: 0x0, symName: __ZNSt3__114__split_bufferIjRNS_9allocatorIjEEED1Ev, symObjAddr: 0x9324, symBinAddr: 0x100019A00, symSize: 0x2C }
  - { offsetInCU: 0x1DC00, offset: 0x63B17, size: 0x8, addend: 0x0, symName: __ZNSt3__114__split_bufferIjRNS_9allocatorIjEEEC2EmmS3_, symObjAddr: 0x9464, symBinAddr: 0x100019A2C, symSize: 0xD4 }
  - { offsetInCU: 0x1DC73, offset: 0x63B8A, size: 0x8, addend: 0x0, symName: __ZNSt3__117__compressed_pairIPjRNS_9allocatorIjEEEC1B8ue170006IDnS4_EEOT_OT0_, symObjAddr: 0x9538, symBinAddr: 0x100019B00, symSize: 0x3C }
  - { offsetInCU: 0x1DCCA, offset: 0x63BE1, size: 0x8, addend: 0x0, symName: __ZNSt3__114__split_bufferIjRNS_9allocatorIjEEE7__allocB8ue170006Ev, symObjAddr: 0x95B4, symBinAddr: 0x100019B3C, symSize: 0x28 }
  - { offsetInCU: 0x1DCEE, offset: 0x63C05, size: 0x8, addend: 0x0, symName: __ZNSt3__114__split_bufferIjRNS_9allocatorIjEEE9__end_capB8ue170006Ev, symObjAddr: 0x95DC, symBinAddr: 0x100019B64, symSize: 0x28 }
  - { offsetInCU: 0x1DD12, offset: 0x63C29, size: 0x8, addend: 0x0, symName: __ZNSt3__117__compressed_pairIPjRNS_9allocatorIjEEEC2B8ue170006IDnS4_EEOT_OT0_, symObjAddr: 0x9604, symBinAddr: 0x100019B8C, symSize: 0x48 }
  - { offsetInCU: 0x1DD69, offset: 0x63C80, size: 0x8, addend: 0x0, symName: __ZNSt3__122__compressed_pair_elemIRNS_9allocatorIjEELi1ELb0EEC2B8ue170006IS3_vEEOT_, symObjAddr: 0x964C, symBinAddr: 0x100019BD4, symSize: 0x20 }
  - { offsetInCU: 0x1DDAA, offset: 0x63CC1, size: 0x8, addend: 0x0, symName: __ZNSt3__117__compressed_pairIPjRNS_9allocatorIjEEE6secondB8ue170006Ev, symObjAddr: 0x96C4, symBinAddr: 0x100019BF4, symSize: 0x28 }
  - { offsetInCU: 0x1DDCE, offset: 0x63CE5, size: 0x8, addend: 0x0, symName: __ZNSt3__122__compressed_pair_elemIRNS_9allocatorIjEELi1ELb0EE5__getB8ue170006Ev, symObjAddr: 0x96EC, symBinAddr: 0x100019C1C, symSize: 0x18 }
  - { offsetInCU: 0x1DDF2, offset: 0x63D09, size: 0x8, addend: 0x0, symName: __ZNSt3__117__compressed_pairIPjRNS_9allocatorIjEEE5firstB8ue170006Ev, symObjAddr: 0x9704, symBinAddr: 0x100019C34, symSize: 0x24 }
  - { offsetInCU: 0x1DE16, offset: 0x63D2D, size: 0x8, addend: 0x0, symName: __ZNSt3__116reverse_iteratorIPjEC1B8ue170006ES1_, symObjAddr: 0x97A0, symBinAddr: 0x100019CD0, symSize: 0x34 }
  - { offsetInCU: 0x1DE4D, offset: 0x63D64, size: 0x8, addend: 0x0, symName: __ZNKSt3__116reverse_iteratorIPjE4baseB8ue170006Ev, symObjAddr: 0x97D4, symBinAddr: 0x100019D04, symSize: 0x18 }
  - { offsetInCU: 0x1DE8A, offset: 0x63DA1, size: 0x8, addend: 0x0, symName: __ZNKSt3__111__move_loopINS_17_ClassicAlgPolicyEEclB8ue170006INS_16reverse_iteratorIPjEES6_S6_EENS_4pairIT_T1_EES8_T0_S9_, symObjAddr: 0x9BC4, symBinAddr: 0x10001A048, symSize: 0xA0 }
  - { offsetInCU: 0x1DEF8, offset: 0x63E0F, size: 0x8, addend: 0x0, symName: __ZNSt3__18_IterOpsINS_17_ClassicAlgPolicyEE11__iter_moveB8ue170006IRNS_16reverse_iteratorIPjEEEENS_9enable_ifIXsr12is_referenceIDTdeclsr3stdE7declvalIRT_EEEEE5valueEDTclsr3stdE4movedeclsr3stdE7declvalISA_EEEEE4typeEOS9_, symObjAddr: 0x9DF8, symBinAddr: 0x10001A27C, symSize: 0x28 }
  - { offsetInCU: 0x1DF24, offset: 0x63E3B, size: 0x8, addend: 0x0, symName: __ZNKSt3__116reverse_iteratorIPjEdeB8ue170006Ev, symObjAddr: 0x9E20, symBinAddr: 0x10001A2A4, symSize: 0x28 }
  - { offsetInCU: 0x1DF56, offset: 0x63E6D, size: 0x8, addend: 0x0, symName: __ZNSt3__116reverse_iteratorIPjEppB8ue170006Ev, symObjAddr: 0x9E48, symBinAddr: 0x10001A2CC, symSize: 0x20 }
  - { offsetInCU: 0x1DF7A, offset: 0x63E91, size: 0x8, addend: 0x0, symName: __ZNSt3__18_IterOpsINS_17_ClassicAlgPolicyEE25__validate_iter_referenceB8ue170006IRNS_16reverse_iteratorIPjEEEEvv, symObjAddr: 0x9E68, symBinAddr: 0x10001A2EC, symSize: 0x4 }
  - { offsetInCU: 0x1DF98, offset: 0x63EAF, size: 0x8, addend: 0x0, symName: __ZNSt3__118__unwrap_iter_implINS_16reverse_iteratorIPjEELb0EE8__unwrapB8ue170006ES3_, symObjAddr: 0x9E6C, symBinAddr: 0x10001A2F0, symSize: 0x24 }
  - { offsetInCU: 0x1DFC0, offset: 0x63ED7, size: 0x8, addend: 0x0, symName: __ZNSt3__14pairINS_16reverse_iteratorIPjEES3_EC1B8ue170006IS3_S3_LPv0EEEOT_OT0_, symObjAddr: 0x9E90, symBinAddr: 0x10001A314, symSize: 0x3C }
  - { offsetInCU: 0x1E01E, offset: 0x63F35, size: 0x8, addend: 0x0, symName: __ZNSt3__14pairINS_16reverse_iteratorIPjEES3_EC2B8ue170006IS3_S3_LPv0EEEOT_OT0_, symObjAddr: 0x9ECC, symBinAddr: 0x10001A350, symSize: 0x34 }
  - { offsetInCU: 0x1E07C, offset: 0x63F93, size: 0x8, addend: 0x0, symName: __ZNSt3__118__unwrap_iter_implINS_16reverse_iteratorIPjEELb0EE8__rewrapB8ue170006ES3_S3_, symObjAddr: 0x9F00, symBinAddr: 0x10001A384, symSize: 0x2C }
  - { offsetInCU: 0x1E0AA, offset: 0x63FC1, size: 0x8, addend: 0x0, symName: __ZNSt3__116reverse_iteratorIPjEC2B8ue170006ES1_, symObjAddr: 0x9F2C, symBinAddr: 0x10001A3B0, symSize: 0x28 }
  - { offsetInCU: 0x1E0E1, offset: 0x63FF8, size: 0x8, addend: 0x0, symName: __ZNSt3__114__split_bufferIjRNS_9allocatorIjEEED2Ev, symObjAddr: 0x9F54, symBinAddr: 0x10001A3D8, symSize: 0x8C }
  - { offsetInCU: 0x1E10C, offset: 0x64023, size: 0x8, addend: 0x0, symName: __ZNSt3__114__split_bufferIjRNS_9allocatorIjEEE5clearB8ue170006Ev, symObjAddr: 0x9FE0, symBinAddr: 0x10001A464, symSize: 0x28 }
  - { offsetInCU: 0x1E130, offset: 0x64047, size: 0x8, addend: 0x0, symName: __ZNKSt3__114__split_bufferIjRNS_9allocatorIjEEE8capacityB8ue170006Ev, symObjAddr: 0xA008, symBinAddr: 0x10001A48C, symSize: 0x40 }
  - { offsetInCU: 0x1E154, offset: 0x6406B, size: 0x8, addend: 0x0, symName: __ZNSt3__114__split_bufferIjRNS_9allocatorIjEEE17__destruct_at_endB8ue170006EPj, symObjAddr: 0xA048, symBinAddr: 0x10001A4CC, symSize: 0x2C }
  - { offsetInCU: 0x1E186, offset: 0x6409D, size: 0x8, addend: 0x0, symName: __ZNSt3__114__split_bufferIjRNS_9allocatorIjEEE17__destruct_at_endB8ue170006EPjNS_17integral_constantIbLb0EEE, symObjAddr: 0xA074, symBinAddr: 0x10001A4F8, symSize: 0x80 }
  - { offsetInCU: 0x1E1C6, offset: 0x640DD, size: 0x8, addend: 0x0, symName: __ZNKSt3__114__split_bufferIjRNS_9allocatorIjEEE9__end_capB8ue170006Ev, symObjAddr: 0xA0F4, symBinAddr: 0x10001A578, symSize: 0x28 }
  - { offsetInCU: 0x1E1EA, offset: 0x64101, size: 0x8, addend: 0x0, symName: __ZNKSt3__117__compressed_pairIPjRNS_9allocatorIjEEE5firstB8ue170006Ev, symObjAddr: 0xA11C, symBinAddr: 0x10001A5A0, symSize: 0x24 }
  - { offsetInCU: 0x1E20E, offset: 0x64125, size: 0x8, addend: 0x0, symName: __ZNSt3__19allocatorIcEC1B8ue170006Ev, symObjAddr: 0xA140, symBinAddr: 0x10001A5C4, symSize: 0x2C }
  - { offsetInCU: 0x1E237, offset: 0x6414E, size: 0x8, addend: 0x0, symName: __ZNSt3__19basic_iosIcNS_11char_traitsIcEEEC2B8ue170006Ev, symObjAddr: 0xA16C, symBinAddr: 0x10001A5F0, symSize: 0x44 }
  - { offsetInCU: 0x1E260, offset: 0x64177, size: 0x8, addend: 0x0, symName: __ZNSt3__113basic_istreamIcNS_11char_traitsIcEEEC2B8ue170006EPNS_15basic_streambufIcS2_EE, symObjAddr: 0xA1B0, symBinAddr: 0x10001A634, symSize: 0x64 }
  - { offsetInCU: 0x1E2A3, offset: 0x641BA, size: 0x8, addend: 0x0, symName: __ZNSt3__18ios_baseC2B8ue170006Ev, symObjAddr: 0xA214, symBinAddr: 0x10001A698, symSize: 0x24 }
  - { offsetInCU: 0x1E2CC, offset: 0x641E3, size: 0x8, addend: 0x0, symName: __ZNSt3__19basic_iosIcNS_11char_traitsIcEEE4initB8ue170006EPNS_15basic_streambufIcS2_EE, symObjAddr: 0xA238, symBinAddr: 0x10001A6BC, symSize: 0x44 }
  - { offsetInCU: 0x1E302, offset: 0x64219, size: 0x8, addend: 0x0, symName: __ZNKSt3__18ios_base4goodB8ue170006Ev, symObjAddr: 0xA27C, symBinAddr: 0x10001A700, symSize: 0x24 }
  - { offsetInCU: 0x1E329, offset: 0x64240, size: 0x8, addend: 0x0, symName: __ZNSt3__16vectorI7TextureNS_9allocatorIS1_EEE22__construct_one_at_endB8ue170006IJRKS1_EEEvDpOT_, symObjAddr: 0xA2A0, symBinAddr: 0x10001A724, symSize: 0x90 }
  - { offsetInCU: 0x1E376, offset: 0x6428D, size: 0x8, addend: 0x0, symName: __ZNSt3__16vectorI7TextureNS_9allocatorIS1_EEE21__push_back_slow_pathIRKS1_EEvOT_, symObjAddr: 0xA330, symBinAddr: 0x10001A7B4, symSize: 0xD8 }
  - { offsetInCU: 0x1E3EC, offset: 0x64303, size: 0x8, addend: 0x0, symName: __ZNSt3__116allocator_traitsINS_9allocatorI7TextureEEE9constructB8ue170006IS2_JRKS2_EvEEvRS3_PT_DpOT0_, symObjAddr: 0xA444, symBinAddr: 0x10001A88C, symSize: 0x34 }
  - { offsetInCU: 0x1E443, offset: 0x6435A, size: 0x8, addend: 0x0, symName: __ZNSt3__19allocatorI7TextureE9constructB8ue170006IS1_JRKS1_EEEvPT_DpOT0_, symObjAddr: 0xA4F0, symBinAddr: 0x10001A8C0, symSize: 0x30 }
  - { offsetInCU: 0x1E497, offset: 0x643AE, size: 0x8, addend: 0x0, symName: __ZNSt3__114__split_bufferI7TextureRNS_9allocatorIS1_EEEC1EmmS4_, symObjAddr: 0xA5F4, symBinAddr: 0x10001A8F0, symSize: 0x44 }
  - { offsetInCU: 0x1E4EC, offset: 0x64403, size: 0x8, addend: 0x0, symName: __ZNSt3__114__split_bufferI7TextureRNS_9allocatorIS1_EEED1Ev, symObjAddr: 0xA748, symBinAddr: 0x10001AA44, symSize: 0x2C }
  - { offsetInCU: 0x1E521, offset: 0x64438, size: 0x8, addend: 0x0, symName: __ZNSt3__114__split_bufferI7TextureRNS_9allocatorIS1_EEEC2EmmS4_, symObjAddr: 0xA88C, symBinAddr: 0x10001AA70, symSize: 0xE0 }
  - { offsetInCU: 0x1E594, offset: 0x644AB, size: 0x8, addend: 0x0, symName: __ZNSt3__117__compressed_pairIP7TextureRNS_9allocatorIS1_EEEC1B8ue170006IDnS5_EEOT_OT0_, symObjAddr: 0xA96C, symBinAddr: 0x10001AB50, symSize: 0x3C }
  - { offsetInCU: 0x1E5EB, offset: 0x64502, size: 0x8, addend: 0x0, symName: __ZNSt3__114__split_bufferI7TextureRNS_9allocatorIS1_EEE7__allocB8ue170006Ev, symObjAddr: 0xA9E8, symBinAddr: 0x10001AB8C, symSize: 0x28 }
  - { offsetInCU: 0x1E60F, offset: 0x64526, size: 0x8, addend: 0x0, symName: __ZNSt3__114__split_bufferI7TextureRNS_9allocatorIS1_EEE9__end_capB8ue170006Ev, symObjAddr: 0xAA10, symBinAddr: 0x10001ABB4, symSize: 0x28 }
  - { offsetInCU: 0x1E633, offset: 0x6454A, size: 0x8, addend: 0x0, symName: __ZNSt3__117__compressed_pairIP7TextureRNS_9allocatorIS1_EEEC2B8ue170006IDnS5_EEOT_OT0_, symObjAddr: 0xAA38, symBinAddr: 0x10001ABDC, symSize: 0x48 }
  - { offsetInCU: 0x1E68A, offset: 0x645A1, size: 0x8, addend: 0x0, symName: __ZNSt3__122__compressed_pair_elemIRNS_9allocatorI7TextureEELi1ELb0EEC2B8ue170006IS4_vEEOT_, symObjAddr: 0xAA80, symBinAddr: 0x10001AC24, symSize: 0x20 }
  - { offsetInCU: 0x1E6CB, offset: 0x645E2, size: 0x8, addend: 0x0, symName: __ZNSt3__117__compressed_pairIP7TextureRNS_9allocatorIS1_EEE6secondB8ue170006Ev, symObjAddr: 0xAAFC, symBinAddr: 0x10001AC44, symSize: 0x28 }
  - { offsetInCU: 0x1E6EF, offset: 0x64606, size: 0x8, addend: 0x0, symName: __ZNSt3__122__compressed_pair_elemIRNS_9allocatorI7TextureEELi1ELb0EE5__getB8ue170006Ev, symObjAddr: 0xAB24, symBinAddr: 0x10001AC6C, symSize: 0x18 }
  - { offsetInCU: 0x1E713, offset: 0x6462A, size: 0x8, addend: 0x0, symName: __ZNSt3__117__compressed_pairIP7TextureRNS_9allocatorIS1_EEE5firstB8ue170006Ev, symObjAddr: 0xAB3C, symBinAddr: 0x10001AC84, symSize: 0x24 }
  - { offsetInCU: 0x1E737, offset: 0x6464E, size: 0x8, addend: 0x0, symName: __ZNSt3__116reverse_iteratorIP7TextureEC1B8ue170006ES2_, symObjAddr: 0xABD8, symBinAddr: 0x10001AD20, symSize: 0x34 }
  - { offsetInCU: 0x1E76E, offset: 0x64685, size: 0x8, addend: 0x0, symName: __ZNKSt3__116reverse_iteratorIP7TextureE4baseB8ue170006Ev, symObjAddr: 0xAC0C, symBinAddr: 0x10001AD54, symSize: 0x18 }
  - { offsetInCU: 0x1E7AB, offset: 0x646C2, size: 0x8, addend: 0x0, symName: __ZNKSt3__111__move_loopINS_17_ClassicAlgPolicyEEclB8ue170006INS_16reverse_iteratorIP7TextureEES7_S7_EENS_4pairIT_T1_EES9_T0_SA_, symObjAddr: 0xB018, symBinAddr: 0x10001B098, symSize: 0xA8 }
  - { offsetInCU: 0x1E819, offset: 0x64730, size: 0x8, addend: 0x0, symName: __ZNSt3__18_IterOpsINS_17_ClassicAlgPolicyEE11__iter_moveB8ue170006IRNS_16reverse_iteratorIP7TextureEEEENS_9enable_ifIXsr12is_referenceIDTdeclsr3stdE7declvalIRT_EEEEE5valueEDTclsr3stdE4movedeclsr3stdE7declvalISB_EEEEE4typeEOSA_, symObjAddr: 0xB254, symBinAddr: 0x10001B2D4, symSize: 0x28 }
  - { offsetInCU: 0x1E845, offset: 0x6475C, size: 0x8, addend: 0x0, symName: __ZNKSt3__116reverse_iteratorIP7TextureEdeB8ue170006Ev, symObjAddr: 0xB27C, symBinAddr: 0x10001B2FC, symSize: 0x28 }
  - { offsetInCU: 0x1E877, offset: 0x6478E, size: 0x8, addend: 0x0, symName: __ZNSt3__116reverse_iteratorIP7TextureEppB8ue170006Ev, symObjAddr: 0xB2A4, symBinAddr: 0x10001B324, symSize: 0x20 }
  - { offsetInCU: 0x1E89B, offset: 0x647B2, size: 0x8, addend: 0x0, symName: __ZNSt3__18_IterOpsINS_17_ClassicAlgPolicyEE25__validate_iter_referenceB8ue170006IRNS_16reverse_iteratorIP7TextureEEEEvv, symObjAddr: 0xB2C4, symBinAddr: 0x10001B344, symSize: 0x4 }
  - { offsetInCU: 0x1E8B9, offset: 0x647D0, size: 0x8, addend: 0x0, symName: __ZNSt3__118__unwrap_iter_implINS_16reverse_iteratorIP7TextureEELb0EE8__unwrapB8ue170006ES4_, symObjAddr: 0xB2C8, symBinAddr: 0x10001B348, symSize: 0x24 }
  - { offsetInCU: 0x1E8E1, offset: 0x647F8, size: 0x8, addend: 0x0, symName: __ZNSt3__14pairINS_16reverse_iteratorIP7TextureEES4_EC1B8ue170006IS4_S4_LPv0EEEOT_OT0_, symObjAddr: 0xB2EC, symBinAddr: 0x10001B36C, symSize: 0x3C }
  - { offsetInCU: 0x1E93F, offset: 0x64856, size: 0x8, addend: 0x0, symName: __ZNSt3__14pairINS_16reverse_iteratorIP7TextureEES4_EC2B8ue170006IS4_S4_LPv0EEEOT_OT0_, symObjAddr: 0xB328, symBinAddr: 0x10001B3A8, symSize: 0x34 }
  - { offsetInCU: 0x1E99D, offset: 0x648B4, size: 0x8, addend: 0x0, symName: __ZNSt3__118__unwrap_iter_implINS_16reverse_iteratorIP7TextureEELb0EE8__rewrapB8ue170006ES4_S4_, symObjAddr: 0xB35C, symBinAddr: 0x10001B3DC, symSize: 0x2C }
  - { offsetInCU: 0x1E9CB, offset: 0x648E2, size: 0x8, addend: 0x0, symName: __ZNSt3__116reverse_iteratorIP7TextureEC2B8ue170006ES2_, symObjAddr: 0xB388, symBinAddr: 0x10001B408, symSize: 0x28 }
  - { offsetInCU: 0x1EA02, offset: 0x64919, size: 0x8, addend: 0x0, symName: __ZNSt3__114__split_bufferI7TextureRNS_9allocatorIS1_EEED2Ev, symObjAddr: 0xB3B0, symBinAddr: 0x10001B430, symSize: 0x8C }
  - { offsetInCU: 0x1EA2D, offset: 0x64944, size: 0x8, addend: 0x0, symName: __ZNSt3__114__split_bufferI7TextureRNS_9allocatorIS1_EEE5clearB8ue170006Ev, symObjAddr: 0xB43C, symBinAddr: 0x10001B4BC, symSize: 0x28 }
  - { offsetInCU: 0x1EA51, offset: 0x64968, size: 0x8, addend: 0x0, symName: __ZNKSt3__114__split_bufferI7TextureRNS_9allocatorIS1_EEE8capacityB8ue170006Ev, symObjAddr: 0xB464, symBinAddr: 0x10001B4E4, symSize: 0x40 }
  - { offsetInCU: 0x1EA75, offset: 0x6498C, size: 0x8, addend: 0x0, symName: __ZNSt3__114__split_bufferI7TextureRNS_9allocatorIS1_EEE17__destruct_at_endB8ue170006EPS1_, symObjAddr: 0xB4A4, symBinAddr: 0x10001B524, symSize: 0x2C }
  - { offsetInCU: 0x1EAA7, offset: 0x649BE, size: 0x8, addend: 0x0, symName: __ZNSt3__114__split_bufferI7TextureRNS_9allocatorIS1_EEE17__destruct_at_endB8ue170006EPS1_NS_17integral_constantIbLb0EEE, symObjAddr: 0xB4D0, symBinAddr: 0x10001B550, symSize: 0x80 }
  - { offsetInCU: 0x1EAE7, offset: 0x649FE, size: 0x8, addend: 0x0, symName: __ZNKSt3__114__split_bufferI7TextureRNS_9allocatorIS1_EEE9__end_capB8ue170006Ev, symObjAddr: 0xB550, symBinAddr: 0x10001B5D0, symSize: 0x28 }
  - { offsetInCU: 0x1EB0B, offset: 0x64A22, size: 0x8, addend: 0x0, symName: __ZNKSt3__117__compressed_pairIP7TextureRNS_9allocatorIS1_EEE5firstB8ue170006Ev, symObjAddr: 0xB578, symBinAddr: 0x10001B5F8, symSize: 0x24 }
  - { offsetInCU: 0x2604, offset: 0x67184, size: 0x8, addend: 0x0, symName: __ZNSt3__119__allocate_at_leastB8ue170006INS_9allocatorIP4NodeEEEENS_19__allocation_resultINS_16allocator_traitsIT_E7pointerEEERS7_m, symObjAddr: 0x1134, symBinAddr: 0x10001C3D4, symSize: 0x40 }
  - { offsetInCU: 0x2647, offset: 0x671C7, size: 0x8, addend: 0x0, symName: __ZNSt3__142__uninitialized_allocator_move_if_noexceptB8ue170006INS_9allocatorIP4NodeEENS_16reverse_iteratorIPS3_EES7_S3_vEET1_RT_T0_SB_S8_, symObjAddr: 0x14A4, symBinAddr: 0x10001C588, symSize: 0x78 }
  - { offsetInCU: 0x26C5, offset: 0x67245, size: 0x8, addend: 0x0, symName: __ZNSt3__14swapB8ue170006IPP4NodeEENS_9enable_ifIXaasr21is_move_constructibleIT_EE5valuesr18is_move_assignableIS5_EE5valueEvE4typeERS5_S8_, symObjAddr: 0x1568, symBinAddr: 0x10001C64C, symSize: 0x3C }
  - { offsetInCU: 0x2716, offset: 0x67296, size: 0x8, addend: 0x0, symName: __ZNSt3__14moveB8ue170006INS_16reverse_iteratorIPP4NodeEES5_EET0_T_S7_S6_, symObjAddr: 0x1698, symBinAddr: 0x10001C734, symSize: 0x78 }
  - { offsetInCU: 0x2770, offset: 0x672F0, size: 0x8, addend: 0x0, symName: __ZNSt3__16__moveB8ue170006INS_17_ClassicAlgPolicyENS_16reverse_iteratorIPP4NodeEES6_S6_EENS_4pairIT0_T2_EES8_T1_S9_, symObjAddr: 0x1710, symBinAddr: 0x10001C7AC, symSize: 0x64 }
  - { offsetInCU: 0x27DC, offset: 0x6735C, size: 0x8, addend: 0x0, symName: __ZNSt3__123__dispatch_copy_or_moveB8ue170006INS_17_ClassicAlgPolicyENS_11__move_loopIS1_EENS_14__move_trivialENS_16reverse_iteratorIPP4NodeEES9_S9_EENS_4pairIT2_T4_EESB_T3_SC_, symObjAddr: 0x1774, symBinAddr: 0x10001C810, symSize: 0x64 }
  - { offsetInCU: 0x285A, offset: 0x673DA, size: 0x8, addend: 0x0, symName: __ZNSt3__121__unwrap_and_dispatchB8ue170006INS_10__overloadINS_11__move_loopINS_17_ClassicAlgPolicyEEENS_14__move_trivialEEENS_16reverse_iteratorIPP4NodeEESB_SB_Li0EEENS_4pairIT0_T2_EESD_T1_SE_, symObjAddr: 0x17D8, symBinAddr: 0x10001C874, symSize: 0x12C }
  - { offsetInCU: 0x28EA, offset: 0x6746A, size: 0x8, addend: 0x0, symName: __ZNSt3__114__unwrap_rangeB8ue170006INS_16reverse_iteratorIPP4NodeEES5_EENS_4pairIT0_S7_EET_S9_, symObjAddr: 0x1904, symBinAddr: 0x10001C9A0, symSize: 0x84 }
  - { offsetInCU: 0x2A5D, offset: 0x675DD, size: 0x8, addend: 0x0, symName: __ZNSt3__113__unwrap_iterB8ue170006INS_16reverse_iteratorIPP4NodeEENS_18__unwrap_iter_implIS5_Lb0EEELi0EEEDTclsrT0_8__unwrapclsr3stdE7declvalIT_EEEES9_, symObjAddr: 0x1A28, symBinAddr: 0x10001CAC4, symSize: 0x44 }
  - { offsetInCU: 0x2AA1, offset: 0x67621, size: 0x8, addend: 0x0, symName: __ZNSt3__19make_pairB8ue170006INS_16reverse_iteratorIPP4NodeEES5_EENS_4pairINS_18__unwrap_ref_decayIT_E4typeENS7_IT0_E4typeEEEOS8_OSB_, symObjAddr: 0x1A6C, symBinAddr: 0x10001CB08, symSize: 0x38 }
  - { offsetInCU: 0x2AF0, offset: 0x67670, size: 0x8, addend: 0x0, symName: __ZNSt3__114__rewrap_rangeB8ue170006INS_16reverse_iteratorIPP4NodeEES5_EET_S6_T0_, symObjAddr: 0x1AA4, symBinAddr: 0x10001CB40, symSize: 0x5C }
  - { offsetInCU: 0x2B3C, offset: 0x676BC, size: 0x8, addend: 0x0, symName: __ZNSt3__113__rewrap_iterB8ue170006INS_16reverse_iteratorIPP4NodeEES5_NS_18__unwrap_iter_implIS5_Lb0EEEEET_S8_T0_, symObjAddr: 0x1B00, symBinAddr: 0x10001CB9C, symSize: 0x74 }
  - { offsetInCU: 0x2B91, offset: 0x67711, size: 0x8, addend: 0x0, symName: __ZNSt3__1neB8ue170006IPP4NodeS3_EEbRKNS_16reverse_iteratorIT_EERKNS4_IT0_EE, symObjAddr: 0x1B74, symBinAddr: 0x10001CC10, symSize: 0x48 }
  - { offsetInCU: 0x2C91, offset: 0x67811, size: 0x8, addend: 0x0, symName: __ZNSt3__1miB8ue170006IPKP4NodeS4_EEDTmicldtfp_4baseEcldtfp0_4baseEERKNS_11__wrap_iterIT_EERKNS6_IT0_EE, symObjAddr: 0x2144, symBinAddr: 0x10001D024, symSize: 0x48 }
  - { offsetInCU: 0x2CDD, offset: 0x6785D, size: 0x8, addend: 0x0, symName: __ZNSt3__14moveB8ue170006IPP4NodeS3_EET0_T_S5_S4_, symObjAddr: 0x2204, symBinAddr: 0x10001D0E4, symSize: 0x40 }
  - { offsetInCU: 0x2D37, offset: 0x678B7, size: 0x8, addend: 0x0, symName: __ZNSt3__16__moveB8ue170006INS_17_ClassicAlgPolicyEPP4NodeS4_S4_EENS_4pairIT0_T2_EES6_T1_S7_, symObjAddr: 0x2450, symBinAddr: 0x10001D2A4, symSize: 0x44 }
  - { offsetInCU: 0x2DA3, offset: 0x67923, size: 0x8, addend: 0x0, symName: __ZNSt3__123__dispatch_copy_or_moveB8ue170006INS_17_ClassicAlgPolicyENS_11__move_loopIS1_EENS_14__move_trivialEPP4NodeS7_S7_EENS_4pairIT2_T4_EES9_T3_SA_, symObjAddr: 0x2494, symBinAddr: 0x10001D2E8, symSize: 0x44 }
  - { offsetInCU: 0x2E21, offset: 0x679A1, size: 0x8, addend: 0x0, symName: __ZNSt3__121__unwrap_and_dispatchB8ue170006INS_10__overloadINS_11__move_loopINS_17_ClassicAlgPolicyEEENS_14__move_trivialEEEPP4NodeS9_S9_Li0EEENS_4pairIT0_T2_EESB_T1_SC_, symObjAddr: 0x24D8, symBinAddr: 0x10001D32C, symSize: 0xB4 }
  - { offsetInCU: 0x2EAF, offset: 0x67A2F, size: 0x8, addend: 0x0, symName: __ZNSt3__114__unwrap_rangeB8ue170006IPP4NodeS3_EENS_4pairIT0_S5_EET_S7_, symObjAddr: 0x258C, symBinAddr: 0x10001D3E0, symSize: 0x60 }
  - { offsetInCU: 0x3046, offset: 0x67BC6, size: 0x8, addend: 0x0, symName: __ZNSt3__113__unwrap_iterB8ue170006IPP4NodeNS_18__unwrap_iter_implIS3_Lb1EEELi0EEEDTclsrT0_8__unwrapclsr3stdE7declvalIT_EEEES7_, symObjAddr: 0x2634, symBinAddr: 0x10001D488, symSize: 0x24 }
  - { offsetInCU: 0x308A, offset: 0x67C0A, size: 0x8, addend: 0x0, symName: __ZNSt3__19make_pairB8ue170006IPP4NodeS3_EENS_4pairINS_18__unwrap_ref_decayIT_E4typeENS5_IT0_E4typeEEEOS6_OS9_, symObjAddr: 0x2658, symBinAddr: 0x10001D4AC, symSize: 0x38 }
  - { offsetInCU: 0x30D9, offset: 0x67C59, size: 0x8, addend: 0x0, symName: __ZNSt3__114__rewrap_rangeB8ue170006IPP4NodeS3_EET_S4_T0_, symObjAddr: 0x2690, symBinAddr: 0x10001D4E4, symSize: 0x2C }
  - { offsetInCU: 0x3125, offset: 0x67CA5, size: 0x8, addend: 0x0, symName: __ZNSt3__113__rewrap_iterB8ue170006IPP4NodeS3_NS_18__unwrap_iter_implIS3_Lb1EEEEET_S6_T0_, symObjAddr: 0x26BC, symBinAddr: 0x10001D510, symSize: 0x3C }
  - { offsetInCU: 0x317A, offset: 0x67CFA, size: 0x8, addend: 0x0, symName: __ZNSt3__119__copy_trivial_implB8ue170006IP4NodeS2_EENS_4pairIPT_PT0_EES5_S5_S7_, symObjAddr: 0x26F8, symBinAddr: 0x10001D54C, symSize: 0x80 }
  - { offsetInCU: 0x31E2, offset: 0x67D62, size: 0x8, addend: 0x0, symName: __ZNSt3__119__constexpr_memmoveB8ue170006IP4NodeS2_Li0EEEPT_S4_PT0_NS_15__element_countE, symObjAddr: 0x2778, symBinAddr: 0x10001D5CC, symSize: 0x64 }
  - { offsetInCU: 0x3250, offset: 0x67DD0, size: 0x8, addend: 0x0, symName: __ZNSt3__19make_pairB8ue170006IRPP4NodeS3_EENS_4pairINS_18__unwrap_ref_decayIT_E4typeENS6_IT0_E4typeEEEOS7_OSA_, symObjAddr: 0x27DC, symBinAddr: 0x10001D630, symSize: 0x38 }
  - { offsetInCU: 0x359C, offset: 0x6811C, size: 0x8, addend: 0x0, symName: __ZNSt3__16vectorIP4NodeNS_9allocatorIS2_EEE26__swap_out_circular_bufferERNS_14__split_bufferIS2_RS4_EE, symObjAddr: 0xB00, symBinAddr: 0x10001C074, symSize: 0x110 }
  - { offsetInCU: 0x53A2, offset: 0x69F22, size: 0x8, addend: 0x0, symName: __ZN4NodeC2Ev, symObjAddr: 0x0, symBinAddr: 0x10001B61C, symSize: 0x30 }
  - { offsetInCU: 0x53CC, offset: 0x69F4C, size: 0x8, addend: 0x0, symName: __ZNSt3__16vectorIP4NodeNS_9allocatorIS2_EEEC1B8ue170006Ev, symObjAddr: 0x30, symBinAddr: 0x10001B64C, symSize: 0x2C }
  - { offsetInCU: 0x53F5, offset: 0x69F75, size: 0x8, addend: 0x0, symName: __ZN4NodeC1Ev, symObjAddr: 0x5C, symBinAddr: 0x10001B678, symSize: 0x2C }
  - { offsetInCU: 0x541F, offset: 0x69F9F, size: 0x8, addend: 0x0, symName: __ZN4Node9add_childEPS_, symObjAddr: 0x88, symBinAddr: 0x10001B6A4, symSize: 0x40 }
  - { offsetInCU: 0x5453, offset: 0x69FD3, size: 0x8, addend: 0x0, symName: __ZNSt3__16vectorIP4NodeNS_9allocatorIS2_EEE9push_backB8ue170006ERKS2_, symObjAddr: 0xC8, symBinAddr: 0x10001B6E4, symSize: 0x6C }
  - { offsetInCU: 0x5489, offset: 0x6A009, size: 0x8, addend: 0x0, symName: __ZN4Node8reparentEPS_, symObjAddr: 0x134, symBinAddr: 0x10001B750, symSize: 0x70 }
  - { offsetInCU: 0x54BD, offset: 0x6A03D, size: 0x8, addend: 0x0, symName: __ZN4Node12remove_childEPS_, symObjAddr: 0x1A4, symBinAddr: 0x10001B7C0, symSize: 0xE0 }
  - { offsetInCU: 0x550E, offset: 0x6A08E, size: 0x8, addend: 0x0, symName: __ZNSt3__16vectorIP4NodeNS_9allocatorIS2_EEEixB8ue170006Em, symObjAddr: 0x2AC, symBinAddr: 0x10001B8A0, symSize: 0x24 }
  - { offsetInCU: 0x5544, offset: 0x6A0C4, size: 0x8, addend: 0x0, symName: __ZNSt3__16vectorIP4NodeNS_9allocatorIS2_EEE5eraseB8ue170006ENS_11__wrap_iterIPKS2_EE, symObjAddr: 0x2D0, symBinAddr: 0x10001B8C4, symSize: 0x94 }
  - { offsetInCU: 0x5598, offset: 0x6A118, size: 0x8, addend: 0x0, symName: __ZNSt3__16vectorIP4NodeNS_9allocatorIS2_EEE5beginB8ue170006Ev, symObjAddr: 0x364, symBinAddr: 0x10001B958, symSize: 0x30 }
  - { offsetInCU: 0x55BF, offset: 0x6A13F, size: 0x8, addend: 0x0, symName: __ZNKSt3__111__wrap_iterIPP4NodeEplB8ue170006El, symObjAddr: 0x394, symBinAddr: 0x10001B988, symSize: 0x3C }
  - { offsetInCU: 0x5609, offset: 0x6A189, size: 0x8, addend: 0x0, symName: __ZNSt3__111__wrap_iterIPKP4NodeEC1B8ue170006IPS2_EERKNS0_IT_EEPNS_9enable_ifIXsr14is_convertibleIS8_S4_EE5valueEvE4typeE, symObjAddr: 0x3D0, symBinAddr: 0x10001B9C4, symSize: 0x3C }
  - { offsetInCU: 0x5654, offset: 0x6A1D4, size: 0x8, addend: 0x0, symName: __ZN4Node4freeEv, symObjAddr: 0x40C, symBinAddr: 0x10001BA00, symSize: 0x9C }
  - { offsetInCU: 0x5697, offset: 0x6A217, size: 0x8, addend: 0x0, symName: __ZN4Node5startEv, symObjAddr: 0x4A8, symBinAddr: 0x10001BA9C, symSize: 0x10 }
  - { offsetInCU: 0x56BE, offset: 0x6A23E, size: 0x8, addend: 0x0, symName: __ZN4Node6updateEv, symObjAddr: 0x4B8, symBinAddr: 0x10001BAAC, symSize: 0x10 }
  - { offsetInCU: 0x56E5, offset: 0x6A265, size: 0x8, addend: 0x0, symName: __ZNSt3__111__wrap_iterIPP4NodeEpLB8ue170006El, symObjAddr: 0x4C8, symBinAddr: 0x10001BABC, symSize: 0x28 }
  - { offsetInCU: 0x5717, offset: 0x6A297, size: 0x8, addend: 0x0, symName: __ZNSt3__111__wrap_iterIPKP4NodeEC2B8ue170006IPS2_EERKNS0_IT_EEPNS_9enable_ifIXsr14is_convertibleIS8_S4_EE5valueEvE4typeE, symObjAddr: 0x4F0, symBinAddr: 0x10001BAE4, symSize: 0x40 }
  - { offsetInCU: 0x5762, offset: 0x6A2E2, size: 0x8, addend: 0x0, symName: __ZNKSt3__111__wrap_iterIPP4NodeE4baseB8ue170006Ev, symObjAddr: 0x530, symBinAddr: 0x10001BB24, symSize: 0x18 }
  - { offsetInCU: 0x5786, offset: 0x6A306, size: 0x8, addend: 0x0, symName: __ZNSt3__16vectorIP4NodeNS_9allocatorIS2_EEEC2B8ue170006Ev, symObjAddr: 0x548, symBinAddr: 0x10001BB3C, symSize: 0x4C }
  - { offsetInCU: 0x57B9, offset: 0x6A339, size: 0x8, addend: 0x0, symName: __ZNSt3__117__compressed_pairIPP4NodeNS_9allocatorIS2_EEEC1B8ue170006IDnNS_18__default_init_tagEEEOT_OT0_, symObjAddr: 0x594, symBinAddr: 0x10001BB88, symSize: 0x3C }
  - { offsetInCU: 0x5810, offset: 0x6A390, size: 0x8, addend: 0x0, symName: __ZNSt3__117__compressed_pairIPP4NodeNS_9allocatorIS2_EEEC2B8ue170006IDnNS_18__default_init_tagEEEOT_OT0_, symObjAddr: 0x5DC, symBinAddr: 0x10001BBC4, symSize: 0x40 }
  - { offsetInCU: 0x5867, offset: 0x6A3E7, size: 0x8, addend: 0x0, symName: __ZNSt3__122__compressed_pair_elemIPP4NodeLi0ELb0EEC2B8ue170006IDnvEEOT_, symObjAddr: 0x61C, symBinAddr: 0x10001BC04, symSize: 0x1C }
  - { offsetInCU: 0x58A8, offset: 0x6A428, size: 0x8, addend: 0x0, symName: __ZNSt3__122__compressed_pair_elemINS_9allocatorIP4NodeEELi1ELb1EEC2B8ue170006ENS_18__default_init_tagE, symObjAddr: 0x638, symBinAddr: 0x10001BC20, symSize: 0x2C }
  - { offsetInCU: 0x58DC, offset: 0x6A45C, size: 0x8, addend: 0x0, symName: __ZNSt3__19allocatorIP4NodeEC2B8ue170006Ev, symObjAddr: 0x664, symBinAddr: 0x10001BC4C, symSize: 0x2C }
  - { offsetInCU: 0x5905, offset: 0x6A485, size: 0x8, addend: 0x0, symName: __ZNSt3__116__non_trivial_ifILb1ENS_9allocatorIP4NodeEEEC2B8ue170006Ev, symObjAddr: 0x690, symBinAddr: 0x10001BC78, symSize: 0x14 }
  - { offsetInCU: 0x592E, offset: 0x6A4AE, size: 0x8, addend: 0x0, symName: __ZNSt3__16vectorIP4NodeNS_9allocatorIS2_EEE9__end_capB8ue170006Ev, symObjAddr: 0x6A4, symBinAddr: 0x10001BC8C, symSize: 0x28 }
  - { offsetInCU: 0x5952, offset: 0x6A4D2, size: 0x8, addend: 0x0, symName: __ZNSt3__16vectorIP4NodeNS_9allocatorIS2_EEE22__construct_one_at_endB8ue170006IJRKS2_EEEvDpOT_, symObjAddr: 0x6CC, symBinAddr: 0x10001BCB4, symSize: 0x90 }
  - { offsetInCU: 0x599F, offset: 0x6A51F, size: 0x8, addend: 0x0, symName: __ZNSt3__16vectorIP4NodeNS_9allocatorIS2_EEE21__push_back_slow_pathIRKS2_EEvOT_, symObjAddr: 0x75C, symBinAddr: 0x10001BD44, symSize: 0xD8 }
  - { offsetInCU: 0x59FC, offset: 0x6A57C, size: 0x8, addend: 0x0, symName: __ZNSt3__117__compressed_pairIPP4NodeNS_9allocatorIS2_EEE5firstB8ue170006Ev, symObjAddr: 0x834, symBinAddr: 0x10001BE1C, symSize: 0x24 }
  - { offsetInCU: 0x5A20, offset: 0x6A5A0, size: 0x8, addend: 0x0, symName: __ZNSt3__122__compressed_pair_elemIPP4NodeLi0ELb0EE5__getB8ue170006Ev, symObjAddr: 0x858, symBinAddr: 0x10001BE40, symSize: 0x14 }
  - { offsetInCU: 0x5A5D, offset: 0x6A5DD, size: 0x8, addend: 0x0, symName: __ZNSt3__16vectorIP4NodeNS_9allocatorIS2_EEE21_ConstructTransactionC1B8ue170006ERS5_m, symObjAddr: 0x86C, symBinAddr: 0x10001BE54, symSize: 0x3C }
  - { offsetInCU: 0x5AA5, offset: 0x6A625, size: 0x8, addend: 0x0, symName: __ZNSt3__116allocator_traitsINS_9allocatorIP4NodeEEE9constructB8ue170006IS3_JRKS3_EvEEvRS4_PT_DpOT0_, symObjAddr: 0x8A8, symBinAddr: 0x10001BE90, symSize: 0x34 }
  - { offsetInCU: 0x5AFB, offset: 0x6A67B, size: 0x8, addend: 0x0, symName: __ZNSt3__16vectorIP4NodeNS_9allocatorIS2_EEE21_ConstructTransactionD1B8ue170006Ev, symObjAddr: 0x918, symBinAddr: 0x10001BEC4, symSize: 0x2C }
  - { offsetInCU: 0x5B24, offset: 0x6A6A4, size: 0x8, addend: 0x0, symName: __ZNSt3__16vectorIP4NodeNS_9allocatorIS2_EEE21_ConstructTransactionC2B8ue170006ERS5_m, symObjAddr: 0x944, symBinAddr: 0x10001BEF0, symSize: 0x44 }
  - { offsetInCU: 0x5B6B, offset: 0x6A6EB, size: 0x8, addend: 0x0, symName: __ZNSt3__19allocatorIP4NodeE9constructB8ue170006IS2_JRKS2_EEEvPT_DpOT0_, symObjAddr: 0x988, symBinAddr: 0x10001BF34, symSize: 0x28 }
  - { offsetInCU: 0x5BBF, offset: 0x6A73F, size: 0x8, addend: 0x0, symName: __ZNSt3__16vectorIP4NodeNS_9allocatorIS2_EEE21_ConstructTransactionD2B8ue170006Ev, symObjAddr: 0x9E8, symBinAddr: 0x10001BF5C, symSize: 0x20 }
  - { offsetInCU: 0x5BE8, offset: 0x6A768, size: 0x8, addend: 0x0, symName: __ZNKSt3__16vectorIP4NodeNS_9allocatorIS2_EEE11__recommendB8ue170006Em, symObjAddr: 0xA08, symBinAddr: 0x10001BF7C, symSize: 0xB4 }
  - { offsetInCU: 0x5C3D, offset: 0x6A7BD, size: 0x8, addend: 0x0, symName: __ZNSt3__114__split_bufferIP4NodeRNS_9allocatorIS2_EEEC1EmmS5_, symObjAddr: 0xABC, symBinAddr: 0x10001C030, symSize: 0x44 }
  - { offsetInCU: 0x5C92, offset: 0x6A812, size: 0x8, addend: 0x0, symName: __ZNSt3__114__split_bufferIP4NodeRNS_9allocatorIS2_EEED1Ev, symObjAddr: 0xC10, symBinAddr: 0x10001C184, symSize: 0x2C }
  - { offsetInCU: 0x5CBC, offset: 0x6A83C, size: 0x8, addend: 0x0, symName: __ZNKSt3__16vectorIP4NodeNS_9allocatorIS2_EEE8max_sizeEv, symObjAddr: 0xC3C, symBinAddr: 0x10001C1B0, symSize: 0x60 }
  - { offsetInCU: 0x5CE3, offset: 0x6A863, size: 0x8, addend: 0x0, symName: __ZNKSt3__16vectorIP4NodeNS_9allocatorIS2_EEE20__throw_length_errorB8ue170006Ev, symObjAddr: 0xC9C, symBinAddr: 0x10001C210, symSize: 0x1C }
  - { offsetInCU: 0x5D12, offset: 0x6A892, size: 0x8, addend: 0x0, symName: __ZNSt3__116allocator_traitsINS_9allocatorIP4NodeEEE8max_sizeB8ue170006IS4_vEEmRKS4_, symObjAddr: 0xD50, symBinAddr: 0x10001C22C, symSize: 0x24 }
  - { offsetInCU: 0x5D3F, offset: 0x6A8BF, size: 0x8, addend: 0x0, symName: __ZNKSt3__16vectorIP4NodeNS_9allocatorIS2_EEE7__allocB8ue170006Ev, symObjAddr: 0xD74, symBinAddr: 0x10001C250, symSize: 0x28 }
  - { offsetInCU: 0x5D63, offset: 0x6A8E3, size: 0x8, addend: 0x0, symName: __ZNKSt3__19allocatorIP4NodeE8max_sizeB8ue170006Ev, symObjAddr: 0xE38, symBinAddr: 0x10001C278, symSize: 0x14 }
  - { offsetInCU: 0x5D87, offset: 0x6A907, size: 0x8, addend: 0x0, symName: __ZNKSt3__117__compressed_pairIPP4NodeNS_9allocatorIS2_EEE6secondB8ue170006Ev, symObjAddr: 0xE4C, symBinAddr: 0x10001C28C, symSize: 0x24 }
  - { offsetInCU: 0x5DAB, offset: 0x6A92B, size: 0x8, addend: 0x0, symName: __ZNKSt3__122__compressed_pair_elemINS_9allocatorIP4NodeEELi1ELb1EE5__getB8ue170006Ev, symObjAddr: 0xE70, symBinAddr: 0x10001C2B0, symSize: 0x14 }
  - { offsetInCU: 0x5DD0, offset: 0x6A950, size: 0x8, addend: 0x0, symName: __ZNSt3__114__split_bufferIP4NodeRNS_9allocatorIS2_EEEC2EmmS5_, symObjAddr: 0x1024, symBinAddr: 0x10001C2C4, symSize: 0xD4 }
  - { offsetInCU: 0x5E42, offset: 0x6A9C2, size: 0x8, addend: 0x0, symName: __ZNSt3__117__compressed_pairIPP4NodeRNS_9allocatorIS2_EEEC1B8ue170006IDnS6_EEOT_OT0_, symObjAddr: 0x10F8, symBinAddr: 0x10001C398, symSize: 0x3C }
  - { offsetInCU: 0x5E99, offset: 0x6AA19, size: 0x8, addend: 0x0, symName: __ZNSt3__114__split_bufferIP4NodeRNS_9allocatorIS2_EEE7__allocB8ue170006Ev, symObjAddr: 0x1174, symBinAddr: 0x10001C414, symSize: 0x28 }
  - { offsetInCU: 0x5EBD, offset: 0x6AA3D, size: 0x8, addend: 0x0, symName: __ZNSt3__114__split_bufferIP4NodeRNS_9allocatorIS2_EEE9__end_capB8ue170006Ev, symObjAddr: 0x119C, symBinAddr: 0x10001C43C, symSize: 0x28 }
  - { offsetInCU: 0x5EE1, offset: 0x6AA61, size: 0x8, addend: 0x0, symName: __ZNSt3__117__compressed_pairIPP4NodeRNS_9allocatorIS2_EEEC2B8ue170006IDnS6_EEOT_OT0_, symObjAddr: 0x11C4, symBinAddr: 0x10001C464, symSize: 0x48 }
  - { offsetInCU: 0x5F38, offset: 0x6AAB8, size: 0x8, addend: 0x0, symName: __ZNSt3__122__compressed_pair_elemIRNS_9allocatorIP4NodeEELi1ELb0EEC2B8ue170006IS5_vEEOT_, symObjAddr: 0x120C, symBinAddr: 0x10001C4AC, symSize: 0x20 }
  - { offsetInCU: 0x5F79, offset: 0x6AAF9, size: 0x8, addend: 0x0, symName: __ZNSt3__19allocatorIP4NodeE8allocateB8ue170006Em, symObjAddr: 0x122C, symBinAddr: 0x10001C4CC, symSize: 0x58 }
  - { offsetInCU: 0x5FAB, offset: 0x6AB2B, size: 0x8, addend: 0x0, symName: __ZNSt3__117__compressed_pairIPP4NodeRNS_9allocatorIS2_EEE6secondB8ue170006Ev, symObjAddr: 0x1388, symBinAddr: 0x10001C524, symSize: 0x28 }
  - { offsetInCU: 0x5FCF, offset: 0x6AB4F, size: 0x8, addend: 0x0, symName: __ZNSt3__122__compressed_pair_elemIRNS_9allocatorIP4NodeEELi1ELb0EE5__getB8ue170006Ev, symObjAddr: 0x13B0, symBinAddr: 0x10001C54C, symSize: 0x18 }
  - { offsetInCU: 0x5FF3, offset: 0x6AB73, size: 0x8, addend: 0x0, symName: __ZNSt3__117__compressed_pairIPP4NodeRNS_9allocatorIS2_EEE5firstB8ue170006Ev, symObjAddr: 0x13C8, symBinAddr: 0x10001C564, symSize: 0x24 }
  - { offsetInCU: 0x6017, offset: 0x6AB97, size: 0x8, addend: 0x0, symName: __ZNSt3__116reverse_iteratorIPP4NodeEC1B8ue170006ES3_, symObjAddr: 0x151C, symBinAddr: 0x10001C600, symSize: 0x34 }
  - { offsetInCU: 0x604E, offset: 0x6ABCE, size: 0x8, addend: 0x0, symName: __ZNKSt3__116reverse_iteratorIPP4NodeE4baseB8ue170006Ev, symObjAddr: 0x1550, symBinAddr: 0x10001C634, symSize: 0x18 }
  - { offsetInCU: 0x6072, offset: 0x6ABF2, size: 0x8, addend: 0x0, symName: __ZNKSt3__16vectorIP4NodeNS_9allocatorIS2_EEE14__annotate_newB8ue170006Em, symObjAddr: 0x15A4, symBinAddr: 0x10001C688, symSize: 0xAC }
  - { offsetInCU: 0x60C8, offset: 0x6AC48, size: 0x8, addend: 0x0, symName: __ZNKSt3__111__move_loopINS_17_ClassicAlgPolicyEEclB8ue170006INS_16reverse_iteratorIPP4NodeEES8_S8_EENS_4pairIT_T1_EESA_T0_SB_, symObjAddr: 0x1988, symBinAddr: 0x10001CA24, symSize: 0xA0 }
  - { offsetInCU: 0x6137, offset: 0x6ACB7, size: 0x8, addend: 0x0, symName: __ZNSt3__18_IterOpsINS_17_ClassicAlgPolicyEE11__iter_moveB8ue170006IRNS_16reverse_iteratorIPP4NodeEEEENS_9enable_ifIXsr12is_referenceIDTdeclsr3stdE7declvalIRT_EEEEE5valueEDTclsr3stdE4movedeclsr3stdE7declvalISC_EEEEE4typeEOSB_, symObjAddr: 0x1BBC, symBinAddr: 0x10001CC58, symSize: 0x28 }
  - { offsetInCU: 0x6162, offset: 0x6ACE2, size: 0x8, addend: 0x0, symName: __ZNKSt3__116reverse_iteratorIPP4NodeEdeB8ue170006Ev, symObjAddr: 0x1BE4, symBinAddr: 0x10001CC80, symSize: 0x28 }
  - { offsetInCU: 0x6194, offset: 0x6AD14, size: 0x8, addend: 0x0, symName: __ZNSt3__116reverse_iteratorIPP4NodeEppB8ue170006Ev, symObjAddr: 0x1C0C, symBinAddr: 0x10001CCA8, symSize: 0x20 }
  - { offsetInCU: 0x61B9, offset: 0x6AD39, size: 0x8, addend: 0x0, symName: __ZNSt3__18_IterOpsINS_17_ClassicAlgPolicyEE25__validate_iter_referenceB8ue170006IRNS_16reverse_iteratorIPP4NodeEEEEvv, symObjAddr: 0x1C2C, symBinAddr: 0x10001CCC8, symSize: 0x4 }
  - { offsetInCU: 0x61D7, offset: 0x6AD57, size: 0x8, addend: 0x0, symName: __ZNSt3__118__unwrap_iter_implINS_16reverse_iteratorIPP4NodeEELb0EE8__unwrapB8ue170006ES5_, symObjAddr: 0x1C30, symBinAddr: 0x10001CCCC, symSize: 0x24 }
  - { offsetInCU: 0x61FE, offset: 0x6AD7E, size: 0x8, addend: 0x0, symName: __ZNSt3__14pairINS_16reverse_iteratorIPP4NodeEES5_EC1B8ue170006IS5_S5_LPv0EEEOT_OT0_, symObjAddr: 0x1C54, symBinAddr: 0x10001CCF0, symSize: 0x3C }
  - { offsetInCU: 0x625C, offset: 0x6ADDC, size: 0x8, addend: 0x0, symName: __ZNSt3__14pairINS_16reverse_iteratorIPP4NodeEES5_EC2B8ue170006IS5_S5_LPv0EEEOT_OT0_, symObjAddr: 0x1C90, symBinAddr: 0x10001CD2C, symSize: 0x34 }
  - { offsetInCU: 0x62BB, offset: 0x6AE3B, size: 0x8, addend: 0x0, symName: __ZNSt3__118__unwrap_iter_implINS_16reverse_iteratorIPP4NodeEELb0EE8__rewrapB8ue170006ES5_S5_, symObjAddr: 0x1CC4, symBinAddr: 0x10001CD60, symSize: 0x2C }
  - { offsetInCU: 0x62E8, offset: 0x6AE68, size: 0x8, addend: 0x0, symName: __ZNSt3__116reverse_iteratorIPP4NodeEC2B8ue170006ES3_, symObjAddr: 0x1CF0, symBinAddr: 0x10001CD8C, symSize: 0x28 }
  - { offsetInCU: 0x6320, offset: 0x6AEA0, size: 0x8, addend: 0x0, symName: __ZNSt3__114__split_bufferIP4NodeRNS_9allocatorIS2_EEED2Ev, symObjAddr: 0x1D18, symBinAddr: 0x10001CDB4, symSize: 0x8C }
  - { offsetInCU: 0x634A, offset: 0x6AECA, size: 0x8, addend: 0x0, symName: __ZNSt3__114__split_bufferIP4NodeRNS_9allocatorIS2_EEE5clearB8ue170006Ev, symObjAddr: 0x1DA4, symBinAddr: 0x10001CE40, symSize: 0x28 }
  - { offsetInCU: 0x636E, offset: 0x6AEEE, size: 0x8, addend: 0x0, symName: __ZNKSt3__114__split_bufferIP4NodeRNS_9allocatorIS2_EEE8capacityB8ue170006Ev, symObjAddr: 0x1E00, symBinAddr: 0x10001CE68, symSize: 0x40 }
  - { offsetInCU: 0x6392, offset: 0x6AF12, size: 0x8, addend: 0x0, symName: __ZNSt3__114__split_bufferIP4NodeRNS_9allocatorIS2_EEE17__destruct_at_endB8ue170006EPS2_, symObjAddr: 0x1E40, symBinAddr: 0x10001CEA8, symSize: 0x2C }
  - { offsetInCU: 0x63C4, offset: 0x6AF44, size: 0x8, addend: 0x0, symName: __ZNSt3__114__split_bufferIP4NodeRNS_9allocatorIS2_EEE17__destruct_at_endB8ue170006EPS2_NS_17integral_constantIbLb0EEE, symObjAddr: 0x1E6C, symBinAddr: 0x10001CED4, symSize: 0x80 }
  - { offsetInCU: 0x6404, offset: 0x6AF84, size: 0x8, addend: 0x0, symName: __ZNKSt3__114__split_bufferIP4NodeRNS_9allocatorIS2_EEE9__end_capB8ue170006Ev, symObjAddr: 0x2074, symBinAddr: 0x10001CF54, symSize: 0x28 }
  - { offsetInCU: 0x6428, offset: 0x6AFA8, size: 0x8, addend: 0x0, symName: __ZNKSt3__117__compressed_pairIPP4NodeRNS_9allocatorIS2_EEE5firstB8ue170006Ev, symObjAddr: 0x209C, symBinAddr: 0x10001CF7C, symSize: 0x24 }
  - { offsetInCU: 0x644C, offset: 0x6AFCC, size: 0x8, addend: 0x0, symName: __ZNSt3__16vectorIP4NodeNS_9allocatorIS2_EEE11__make_iterB8ue170006EPS2_, symObjAddr: 0x20C0, symBinAddr: 0x10001CFA0, symSize: 0x30 }
  - { offsetInCU: 0x647F, offset: 0x6AFFF, size: 0x8, addend: 0x0, symName: __ZNSt3__111__wrap_iterIPP4NodeEC1B8ue170006ES3_, symObjAddr: 0x20F0, symBinAddr: 0x10001CFD0, symSize: 0x34 }
  - { offsetInCU: 0x64B6, offset: 0x6B036, size: 0x8, addend: 0x0, symName: __ZNSt3__111__wrap_iterIPP4NodeEC2B8ue170006ES3_, symObjAddr: 0x2124, symBinAddr: 0x10001D004, symSize: 0x20 }
  - { offsetInCU: 0x64ED, offset: 0x6B06D, size: 0x8, addend: 0x0, symName: __ZNKSt3__16vectorIP4NodeNS_9allocatorIS2_EEE6cbeginB8ue170006Ev, symObjAddr: 0x218C, symBinAddr: 0x10001D06C, symSize: 0x2C }
  - { offsetInCU: 0x6511, offset: 0x6B091, size: 0x8, addend: 0x0, symName: __ZNSt3__16vectorIP4NodeNS_9allocatorIS2_EEE17__destruct_at_endB8ue170006EPS2_, symObjAddr: 0x21B8, symBinAddr: 0x10001D098, symSize: 0x4C }
  - { offsetInCU: 0x6553, offset: 0x6B0D3, size: 0x8, addend: 0x0, symName: __ZNKSt3__111__wrap_iterIPKP4NodeE4baseB8ue170006Ev, symObjAddr: 0x2244, symBinAddr: 0x10001D124, symSize: 0x18 }
  - { offsetInCU: 0x6577, offset: 0x6B0F7, size: 0x8, addend: 0x0, symName: __ZNKSt3__16vectorIP4NodeNS_9allocatorIS2_EEE5beginB8ue170006Ev, symObjAddr: 0x225C, symBinAddr: 0x10001D13C, symSize: 0x30 }
  - { offsetInCU: 0x659E, offset: 0x6B11E, size: 0x8, addend: 0x0, symName: __ZNKSt3__16vectorIP4NodeNS_9allocatorIS2_EEE11__make_iterB8ue170006EPKS2_, symObjAddr: 0x228C, symBinAddr: 0x10001D16C, symSize: 0x30 }
  - { offsetInCU: 0x65D1, offset: 0x6B151, size: 0x8, addend: 0x0, symName: __ZNSt3__111__wrap_iterIPKP4NodeEC1B8ue170006ES4_, symObjAddr: 0x22BC, symBinAddr: 0x10001D19C, symSize: 0x34 }
  - { offsetInCU: 0x6608, offset: 0x6B188, size: 0x8, addend: 0x0, symName: __ZNSt3__111__wrap_iterIPKP4NodeEC2B8ue170006ES4_, symObjAddr: 0x22F0, symBinAddr: 0x10001D1D0, symSize: 0x20 }
  - { offsetInCU: 0x663F, offset: 0x6B1BF, size: 0x8, addend: 0x0, symName: __ZNKSt3__16vectorIP4NodeNS_9allocatorIS2_EEE17__annotate_shrinkB8ue170006Em, symObjAddr: 0x239C, symBinAddr: 0x10001D1F0, symSize: 0xB4 }
  - { offsetInCU: 0x6695, offset: 0x6B215, size: 0x8, addend: 0x0, symName: __ZNKSt3__114__move_trivialclB8ue170006IP4NodeS3_Li0EEENS_4pairIPT_PT0_EES6_S6_S8_, symObjAddr: 0x25EC, symBinAddr: 0x10001D440, symSize: 0x48 }
  - { offsetInCU: 0x6700, offset: 0x6B280, size: 0x8, addend: 0x0, symName: __ZNSt3__14pairIPP4NodeS3_EC1B8ue170006IRS3_S3_LPv0EEEOT_OT0_, symObjAddr: 0x2814, symBinAddr: 0x10001D668, symSize: 0x3C }
  - { offsetInCU: 0x675E, offset: 0x6B2DE, size: 0x8, addend: 0x0, symName: __ZNSt3__14pairIPP4NodeS3_EC2B8ue170006IRS3_S3_LPv0EEEOT_OT0_, symObjAddr: 0x2850, symBinAddr: 0x10001D6A4, symSize: 0x34 }
  - { offsetInCU: 0x67BD, offset: 0x6B33D, size: 0x8, addend: 0x0, symName: __ZNSt3__118__unwrap_iter_implIPP4NodeLb1EE8__unwrapB8ue170006ES3_, symObjAddr: 0x2884, symBinAddr: 0x10001D6D8, symSize: 0x24 }
  - { offsetInCU: 0x67DF, offset: 0x6B35F, size: 0x8, addend: 0x0, symName: __ZNSt3__14pairIPP4NodeS3_EC1B8ue170006IS3_S3_LPv0EEEOT_OT0_, symObjAddr: 0x28A8, symBinAddr: 0x10001D6FC, symSize: 0x3C }
  - { offsetInCU: 0x683D, offset: 0x6B3BD, size: 0x8, addend: 0x0, symName: __ZNSt3__14pairIPP4NodeS3_EC2B8ue170006IS3_S3_LPv0EEEOT_OT0_, symObjAddr: 0x28E4, symBinAddr: 0x10001D738, symSize: 0x34 }
  - { offsetInCU: 0x689C, offset: 0x6B41C, size: 0x8, addend: 0x0, symName: __ZNSt3__118__unwrap_iter_implIPP4NodeLb1EE8__rewrapB8ue170006ES3_S3_, symObjAddr: 0x2918, symBinAddr: 0x10001D76C, symSize: 0x50 }
  - { offsetInCU: 0x9F, offset: 0x6B563, size: 0x8, addend: 0x0, symName: __ZN3glm9translateIfLNS_9qualifierE0EEENS_3matILi4ELi4ET_XT0_EEERKS4_RKNS_3vecILi3ES3_XT0_EEE, symObjAddr: 0x700, symBinAddr: 0x10001DD10, symSize: 0x188 }
  - { offsetInCU: 0xFB, offset: 0x6B5BF, size: 0x8, addend: 0x0, symName: __ZN3glm5scaleIfLNS_9qualifierE0EEENS_3matILi4ELi4ET_XT0_EEERKS4_RKNS_3vecILi3ES3_XT0_EEE, symObjAddr: 0x11D4, symBinAddr: 0x10001DE98, symSize: 0x150 }
  - { offsetInCU: 0x6010, offset: 0x714D4, size: 0x8, addend: 0x0, symName: __ZNSt3__17advanceB8ue170006IP4MeshllvEEvRT_T0_, symObjAddr: 0x7CFC, symBinAddr: 0x10001F288, symSize: 0x38 }
  - { offsetInCU: 0x6E73, offset: 0x72337, size: 0x8, addend: 0x0, symName: __ZNSt3__1neB8ue170006IP4MeshEEbRKNS_11__wrap_iterIT_EES7_, symObjAddr: 0x1494, symBinAddr: 0x10001E158, symSize: 0x34 }
  - { offsetInCU: 0x6EB6, offset: 0x7237A, size: 0x8, addend: 0x0, symName: __ZNSt3__1eqB8ue170006IP4MeshEEbRKNS_11__wrap_iterIT_EES7_, symObjAddr: 0x27A0, symBinAddr: 0x10001E4C4, symSize: 0x48 }
  - { offsetInCU: 0x6EF9, offset: 0x723BD, size: 0x8, addend: 0x0, symName: __ZNSt3__122__make_exception_guardB8ue170006INS_6vectorI6VertexNS_9allocatorIS2_EEE16__destroy_vectorEEENS_28__exception_guard_exceptionsIT_EES8_, symObjAddr: 0x2C40, symBinAddr: 0x10001E7D0, symSize: 0x40 }
  - { offsetInCU: 0x6F2E, offset: 0x723F2, size: 0x8, addend: 0x0, symName: __ZNSt3__122__make_exception_guardB8ue170006INS_6vectorIjNS_9allocatorIjEEE16__destroy_vectorEEENS_28__exception_guard_exceptionsIT_EES7_, symObjAddr: 0x41DC, symBinAddr: 0x10001EA5C, symSize: 0x40 }
  - { offsetInCU: 0x6F63, offset: 0x72427, size: 0x8, addend: 0x0, symName: __ZNSt3__122__make_exception_guardB8ue170006INS_6vectorI7TextureNS_9allocatorIS2_EEE16__destroy_vectorEEENS_28__exception_guard_exceptionsIT_EES8_, symObjAddr: 0x5470, symBinAddr: 0x10001ECE8, symSize: 0x40 }
  - { offsetInCU: 0x6F98, offset: 0x7245C, size: 0x8, addend: 0x0, symName: __ZNSt3__18distanceB8ue170006IP4MeshEENS_15iterator_traitsIT_E15difference_typeES4_S4_, symObjAddr: 0x7944, symBinAddr: 0x10001F018, symSize: 0x2C }
  - { offsetInCU: 0x6FDB, offset: 0x7249F, size: 0x8, addend: 0x0, symName: __ZNSt3__14nextB8ue170006IP4MeshEENS_9enable_ifIXsr29__has_input_iterator_categoryIT_EE5valueES4_E4typeES4_NS_15iterator_traitsIS4_E15difference_typeE, symObjAddr: 0x7970, symBinAddr: 0x10001F044, symSize: 0x34 }
  - { offsetInCU: 0x701E, offset: 0x724E2, size: 0x8, addend: 0x0, symName: __ZNSt3__14copyB8ue170006IP4MeshS2_EET0_T_S4_S3_, symObjAddr: 0x79A4, symBinAddr: 0x10001F078, symSize: 0x40 }
  - { offsetInCU: 0x7078, offset: 0x7253C, size: 0x8, addend: 0x0, symName: __ZNSt3__16__copyB8ue170006INS_17_ClassicAlgPolicyEP4MeshS3_S3_EENS_4pairIT0_T2_EES5_T1_S6_, symObjAddr: 0x7A70, symBinAddr: 0x10001F144, symSize: 0x44 }
  - { offsetInCU: 0x70E4, offset: 0x725A8, size: 0x8, addend: 0x0, symName: __ZNSt3__19__advanceB8ue170006IP4MeshEEvRT_NS_15iterator_traitsIS3_E15difference_typeENS_26random_access_iterator_tagE, symObjAddr: 0x7D48, symBinAddr: 0x10001F2C0, symSize: 0x30 }
  - { offsetInCU: 0x712F, offset: 0x725F3, size: 0x8, addend: 0x0, symName: __ZNSt3__130__uninitialized_allocator_copyB8ue170006INS_9allocatorI4MeshEEPS2_S4_S4_EET2_RT_T0_T1_S5_, symObjAddr: 0x7DB4, symBinAddr: 0x10001F2F0, symSize: 0x80 }
  - { offsetInCU: 0x71CC, offset: 0x72690, size: 0x8, addend: 0x0, symName: __ZNSt3__114__unwrap_rangeB8ue170006IP4MeshS2_EENS_4pairIT0_S4_EET_S6_, symObjAddr: 0x7EAC, symBinAddr: 0x10001F370, symSize: 0x60 }
  - { offsetInCU: 0x7218, offset: 0x726DC, size: 0x8, addend: 0x0, symName: __ZNSt3__135__uninitialized_allocator_copy_implB8ue170006INS_9allocatorI4MeshEEPS2_S4_S4_EET2_RT_T0_T1_S5_, symObjAddr: 0x7F0C, symBinAddr: 0x10001F3D0, symSize: 0xF4 }
  - { offsetInCU: 0x72B6, offset: 0x7277A, size: 0x8, addend: 0x0, symName: __ZNSt3__113__unwrap_iterB8ue170006IP4MeshNS_18__unwrap_iter_implIS2_Lb1EEELi0EEEDTclsrT0_8__unwrapclsr3stdE7declvalIT_EEEES6_, symObjAddr: 0x8000, symBinAddr: 0x10001F4C4, symSize: 0x24 }
  - { offsetInCU: 0x72FA, offset: 0x727BE, size: 0x8, addend: 0x0, symName: __ZNSt3__113__rewrap_iterB8ue170006IP4MeshS2_NS_18__unwrap_iter_implIS2_Lb1EEEEET_S5_T0_, symObjAddr: 0x8024, symBinAddr: 0x10001F4E8, symSize: 0x3C }
  - { offsetInCU: 0x734F, offset: 0x72813, size: 0x8, addend: 0x0, symName: __ZNSt3__19make_pairB8ue170006IP4MeshS2_EENS_4pairINS_18__unwrap_ref_decayIT_E4typeENS4_IT0_E4typeEEEOS5_OS8_, symObjAddr: 0x8060, symBinAddr: 0x10001F524, symSize: 0x38 }
  - { offsetInCU: 0x7473, offset: 0x72937, size: 0x8, addend: 0x0, symName: __ZNSt3__122__make_exception_guardB8ue170006INS_29_AllocatorDestroyRangeReverseINS_9allocatorI4MeshEEPS3_EEEENS_28__exception_guard_exceptionsIT_EES8_, symObjAddr: 0x8108, symBinAddr: 0x10001F5CC, symSize: 0x4C }
  - { offsetInCU: 0x74A9, offset: 0x7296D, size: 0x8, addend: 0x0, symName: __ZNSt3__119__allocator_destroyB8ue170006INS_9allocatorI4MeshEENS_16reverse_iteratorIPS2_EES6_EEvRT_T0_T1_, symObjAddr: 0x8398, symBinAddr: 0x10001F85C, symSize: 0x70 }
  - { offsetInCU: 0x7561, offset: 0x72A25, size: 0x8, addend: 0x0, symName: __ZNSt3__123__dispatch_copy_or_moveB8ue170006INS_17_ClassicAlgPolicyENS_11__copy_loopIS1_EENS_14__copy_trivialEP4MeshS6_S6_EENS_4pairIT2_T4_EES8_T3_S9_, symObjAddr: 0x8628, symBinAddr: 0x10001F948, symSize: 0x44 }
  - { offsetInCU: 0x75DF, offset: 0x72AA3, size: 0x8, addend: 0x0, symName: __ZNSt3__121__unwrap_and_dispatchB8ue170006INS_10__overloadINS_11__copy_loopINS_17_ClassicAlgPolicyEEENS_14__copy_trivialEEEP4MeshS8_S8_Li0EEENS_4pairIT0_T2_EESA_T1_SB_, symObjAddr: 0x866C, symBinAddr: 0x10001F98C, symSize: 0xB4 }
  - { offsetInCU: 0x76BF, offset: 0x72B83, size: 0x8, addend: 0x0, symName: __ZNSt3__114__rewrap_rangeB8ue170006IP4MeshS2_EET_S3_T0_, symObjAddr: 0x87A8, symBinAddr: 0x10001FAC8, symSize: 0x2C }
  - { offsetInCU: 0x770B, offset: 0x72BCF, size: 0x8, addend: 0x0, symName: __ZNSt3__110__distanceB8ue170006IP4MeshEENS_15iterator_traitsIT_E15difference_typeES4_S4_NS_26random_access_iterator_tagE, symObjAddr: 0x9E88, symBinAddr: 0x10001FB5C, symSize: 0x28 }
  - { offsetInCU: 0x9C67, offset: 0x7512B, size: 0x8, addend: 0x0, symName: __ZN6Node3DC2EN3glm3vecILi3EfLNS0_9qualifierE0EEES3_S3_R6ShaderNSt3__112basic_stringIcNS6_11char_traitsIcEENS6_9allocatorIcEEEE, symObjAddr: 0x0, symBinAddr: 0x10001D7BC, symSize: 0x190 }
  - { offsetInCU: 0x9CD8, offset: 0x7519C, size: 0x8, addend: 0x0, symName: __ZN6Node3D12update_modelEv, symObjAddr: 0x2B0, symBinAddr: 0x10001D94C, symSize: 0x1C4 }
  - { offsetInCU: 0x9CFE, offset: 0x751C2, size: 0x8, addend: 0x0, symName: __ZN6Node3DC1EN3glm3vecILi3EfLNS0_9qualifierE0EEES3_S3_R6ShaderNSt3__112basic_stringIcNS6_11char_traitsIcEENS6_9allocatorIcEEEE, symObjAddr: 0x4CC, symBinAddr: 0x10001DB10, symSize: 0xA0 }
  - { offsetInCU: 0x9D6F, offset: 0x75233, size: 0x8, addend: 0x0, symName: __ZN6Node3D13assign_meshesENSt3__16vectorI4MeshNS0_9allocatorIS2_EEEE, symObjAddr: 0x56C, symBinAddr: 0x10001DBB0, symSize: 0x30 }
  - { offsetInCU: 0x9DA4, offset: 0x75268, size: 0x8, addend: 0x0, symName: __ZNSt3__16vectorI4MeshNS_9allocatorIS1_EEEaSB8ue170006ERKS4_, symObjAddr: 0x59C, symBinAddr: 0x10001DBE0, symSize: 0x68 }
  - { offsetInCU: 0x9DDA, offset: 0x7529E, size: 0x8, addend: 0x0, symName: __ZN6Node3D12set_positionEN3glm3vecILi3EfLNS0_9qualifierE0EEE, symObjAddr: 0x604, symBinAddr: 0x10001DC48, symSize: 0x48 }
  - { offsetInCU: 0x9E0E, offset: 0x752D2, size: 0x8, addend: 0x0, symName: __ZN6Node3D12set_rotationEN3glm3vecILi3EfLNS0_9qualifierE0EEE, symObjAddr: 0x64C, symBinAddr: 0x10001DC90, symSize: 0x40 }
  - { offsetInCU: 0x9E42, offset: 0x75306, size: 0x8, addend: 0x0, symName: __ZN6Node3D9set_scaleEN3glm3vecILi3EfLNS0_9qualifierE0EEE, symObjAddr: 0x68C, symBinAddr: 0x10001DCD0, symSize: 0x40 }
  - { offsetInCU: 0x9E76, offset: 0x7533A, size: 0x8, addend: 0x0, symName: __ZN6Node3D22update_shadow_uniformsEN3glm3matILi4ELi4EfLNS0_9qualifierE0EEEj, symObjAddr: 0x1324, symBinAddr: 0x10001DFE8, symSize: 0x110 }
  - { offsetInCU: 0x9EFB, offset: 0x753BF, size: 0x8, addend: 0x0, symName: __ZNSt3__16vectorI4MeshNS_9allocatorIS1_EEE5beginB8ue170006Ev, symObjAddr: 0x1434, symBinAddr: 0x10001E0F8, symSize: 0x30 }
  - { offsetInCU: 0x9F22, offset: 0x753E6, size: 0x8, addend: 0x0, symName: __ZNSt3__16vectorI4MeshNS_9allocatorIS1_EEE3endB8ue170006Ev, symObjAddr: 0x1464, symBinAddr: 0x10001E128, symSize: 0x30 }
  - { offsetInCU: 0x9F49, offset: 0x7540D, size: 0x8, addend: 0x0, symName: __ZNKSt3__111__wrap_iterIP4MeshEdeB8ue170006Ev, symObjAddr: 0x14C8, symBinAddr: 0x10001E18C, symSize: 0x18 }
  - { offsetInCU: 0x9F6D, offset: 0x75431, size: 0x8, addend: 0x0, symName: __ZN4MeshC1ERKS_, symObjAddr: 0x14E0, symBinAddr: 0x10001E1A4, symSize: 0x34 }
  - { offsetInCU: 0x9FA0, offset: 0x75464, size: 0x8, addend: 0x0, symName: __ZNSt3__111__wrap_iterIP4MeshEppB8ue170006Ev, symObjAddr: 0x1540, symBinAddr: 0x10001E1D8, symSize: 0x20 }
  - { offsetInCU: 0x9FC4, offset: 0x75488, size: 0x8, addend: 0x0, symName: __ZN6Node3D4drawEv, symObjAddr: 0x1560, symBinAddr: 0x10001E1F8, symSize: 0x1BC }
  - { offsetInCU: 0xA048, offset: 0x7550C, size: 0x8, addend: 0x0, symName: __ZN6Node3D4drawER6ShaderR6Camera, symObjAddr: 0x1744, symBinAddr: 0x10001E3B4, symSize: 0x110 }
  - { offsetInCU: 0xA0CC, offset: 0x75590, size: 0x8, addend: 0x0, symName: __ZNKSt3__111__wrap_iterIP4MeshE4baseB8ue170006Ev, symObjAddr: 0x27E8, symBinAddr: 0x10001E50C, symSize: 0x18 }
  - { offsetInCU: 0xA0F0, offset: 0x755B4, size: 0x8, addend: 0x0, symName: __ZN4MeshC2ERKS_, symObjAddr: 0x2800, symBinAddr: 0x10001E524, symSize: 0xB4 }
  - { offsetInCU: 0xA123, offset: 0x755E7, size: 0x8, addend: 0x0, symName: __ZNSt3__16vectorI6VertexNS_9allocatorIS1_EEEC1ERKS4_, symObjAddr: 0x28B4, symBinAddr: 0x10001E5D8, symSize: 0x34 }
  - { offsetInCU: 0xA15D, offset: 0x75621, size: 0x8, addend: 0x0, symName: __ZNSt3__16vectorIjNS_9allocatorIjEEEC1ERKS3_, symObjAddr: 0x28E8, symBinAddr: 0x10001E60C, symSize: 0x34 }
  - { offsetInCU: 0xA197, offset: 0x7565B, size: 0x8, addend: 0x0, symName: __ZNSt3__16vectorI7TextureNS_9allocatorIS1_EEEC1ERKS4_, symObjAddr: 0x291C, symBinAddr: 0x10001E640, symSize: 0x34 }
  - { offsetInCU: 0xA1D1, offset: 0x75695, size: 0x8, addend: 0x0, symName: __ZNSt3__16vectorI6VertexNS_9allocatorIS1_EEEC2ERKS4_, symObjAddr: 0x29A8, symBinAddr: 0x10001E674, symSize: 0x94 }
  - { offsetInCU: 0xA215, offset: 0x756D9, size: 0x8, addend: 0x0, symName: __ZNSt3__116allocator_traitsINS_9allocatorI6VertexEEE37select_on_container_copy_constructionB8ue170006IS3_vvEES3_RKS3_, symObjAddr: 0x2A3C, symBinAddr: 0x10001E708, symSize: 0x10 }
  - { offsetInCU: 0xA244, offset: 0x75708, size: 0x8, addend: 0x0, symName: __ZNSt3__16vectorI6VertexNS_9allocatorIS1_EEE16__init_with_sizeB8ue170006IPS1_S6_EEvT_T0_m, symObjAddr: 0x2AB0, symBinAddr: 0x10001E718, symSize: 0xB8 }
  - { offsetInCU: 0xA2B6, offset: 0x7577A, size: 0x8, addend: 0x0, symName: __ZNSt3__128__exception_guard_exceptionsINS_6vectorI6VertexNS_9allocatorIS2_EEE16__destroy_vectorEE10__completeB8ue170006Ev, symObjAddr: 0x2DF4, symBinAddr: 0x10001E810, symSize: 0x1C }
  - { offsetInCU: 0xA2DA, offset: 0x7579E, size: 0x8, addend: 0x0, symName: __ZNSt3__128__exception_guard_exceptionsINS_6vectorI6VertexNS_9allocatorIS2_EEE16__destroy_vectorEED1B8ue170006Ev, symObjAddr: 0x2E10, symBinAddr: 0x10001E82C, symSize: 0x2C }
  - { offsetInCU: 0xA303, offset: 0x757C7, size: 0x8, addend: 0x0, symName: __ZNSt3__128__exception_guard_exceptionsINS_6vectorI6VertexNS_9allocatorIS2_EEE16__destroy_vectorEEC1B8ue170006ES6_, symObjAddr: 0x2E3C, symBinAddr: 0x10001E858, symSize: 0x34 }
  - { offsetInCU: 0xA33A, offset: 0x757FE, size: 0x8, addend: 0x0, symName: __ZNSt3__128__exception_guard_exceptionsINS_6vectorI6VertexNS_9allocatorIS2_EEE16__destroy_vectorEEC2B8ue170006ES6_, symObjAddr: 0x2E70, symBinAddr: 0x10001E88C, symSize: 0x24 }
  - { offsetInCU: 0xA38A, offset: 0x7584E, size: 0x8, addend: 0x0, symName: __ZNSt3__128__exception_guard_exceptionsINS_6vectorI6VertexNS_9allocatorIS2_EEE16__destroy_vectorEED2B8ue170006Ev, symObjAddr: 0x3C24, symBinAddr: 0x10001E8B0, symSize: 0x50 }
  - { offsetInCU: 0xA3B3, offset: 0x75877, size: 0x8, addend: 0x0, symName: __ZNSt3__16vectorIjNS_9allocatorIjEEEC2ERKS3_, symObjAddr: 0x3F44, symBinAddr: 0x10001E900, symSize: 0x94 }
  - { offsetInCU: 0xA3F7, offset: 0x758BB, size: 0x8, addend: 0x0, symName: __ZNSt3__116allocator_traitsINS_9allocatorIjEEE37select_on_container_copy_constructionB8ue170006IS2_vvEES2_RKS2_, symObjAddr: 0x3FD8, symBinAddr: 0x10001E994, symSize: 0x10 }
  - { offsetInCU: 0xA426, offset: 0x758EA, size: 0x8, addend: 0x0, symName: __ZNSt3__16vectorIjNS_9allocatorIjEEE16__init_with_sizeB8ue170006IPjS5_EEvT_T0_m, symObjAddr: 0x404C, symBinAddr: 0x10001E9A4, symSize: 0xB8 }
  - { offsetInCU: 0xA498, offset: 0x7595C, size: 0x8, addend: 0x0, symName: __ZNSt3__128__exception_guard_exceptionsINS_6vectorIjNS_9allocatorIjEEE16__destroy_vectorEE10__completeB8ue170006Ev, symObjAddr: 0x4388, symBinAddr: 0x10001EA9C, symSize: 0x1C }
  - { offsetInCU: 0xA4BC, offset: 0x75980, size: 0x8, addend: 0x0, symName: __ZNSt3__128__exception_guard_exceptionsINS_6vectorIjNS_9allocatorIjEEE16__destroy_vectorEED1B8ue170006Ev, symObjAddr: 0x43A4, symBinAddr: 0x10001EAB8, symSize: 0x2C }
  - { offsetInCU: 0xA4E5, offset: 0x759A9, size: 0x8, addend: 0x0, symName: __ZNSt3__128__exception_guard_exceptionsINS_6vectorIjNS_9allocatorIjEEE16__destroy_vectorEEC1B8ue170006ES5_, symObjAddr: 0x43D0, symBinAddr: 0x10001EAE4, symSize: 0x34 }
  - { offsetInCU: 0xA51C, offset: 0x759E0, size: 0x8, addend: 0x0, symName: __ZNSt3__128__exception_guard_exceptionsINS_6vectorIjNS_9allocatorIjEEE16__destroy_vectorEEC2B8ue170006ES5_, symObjAddr: 0x4404, symBinAddr: 0x10001EB18, symSize: 0x24 }
  - { offsetInCU: 0xA56C, offset: 0x75A30, size: 0x8, addend: 0x0, symName: __ZNSt3__128__exception_guard_exceptionsINS_6vectorIjNS_9allocatorIjEEE16__destroy_vectorEED2B8ue170006Ev, symObjAddr: 0x4ED8, symBinAddr: 0x10001EB3C, symSize: 0x50 }
  - { offsetInCU: 0xA595, offset: 0x75A59, size: 0x8, addend: 0x0, symName: __ZNSt3__16vectorI7TextureNS_9allocatorIS1_EEEC2ERKS4_, symObjAddr: 0x51D8, symBinAddr: 0x10001EB8C, symSize: 0x94 }
  - { offsetInCU: 0xA5D9, offset: 0x75A9D, size: 0x8, addend: 0x0, symName: __ZNSt3__116allocator_traitsINS_9allocatorI7TextureEEE37select_on_container_copy_constructionB8ue170006IS3_vvEES3_RKS3_, symObjAddr: 0x526C, symBinAddr: 0x10001EC20, symSize: 0x10 }
  - { offsetInCU: 0xA608, offset: 0x75ACC, size: 0x8, addend: 0x0, symName: __ZNSt3__16vectorI7TextureNS_9allocatorIS1_EEE16__init_with_sizeB8ue170006IPS1_S6_EEvT_T0_m, symObjAddr: 0x52E0, symBinAddr: 0x10001EC30, symSize: 0xB8 }
  - { offsetInCU: 0xA67A, offset: 0x75B3E, size: 0x8, addend: 0x0, symName: __ZNSt3__128__exception_guard_exceptionsINS_6vectorI7TextureNS_9allocatorIS2_EEE16__destroy_vectorEE10__completeB8ue170006Ev, symObjAddr: 0x5624, symBinAddr: 0x10001ED28, symSize: 0x1C }
  - { offsetInCU: 0xA69E, offset: 0x75B62, size: 0x8, addend: 0x0, symName: __ZNSt3__128__exception_guard_exceptionsINS_6vectorI7TextureNS_9allocatorIS2_EEE16__destroy_vectorEED1B8ue170006Ev, symObjAddr: 0x5640, symBinAddr: 0x10001ED44, symSize: 0x2C }
  - { offsetInCU: 0xA6C7, offset: 0x75B8B, size: 0x8, addend: 0x0, symName: __ZNSt3__128__exception_guard_exceptionsINS_6vectorI7TextureNS_9allocatorIS2_EEE16__destroy_vectorEEC1B8ue170006ES6_, symObjAddr: 0x566C, symBinAddr: 0x10001ED70, symSize: 0x34 }
  - { offsetInCU: 0xA6FE, offset: 0x75BC2, size: 0x8, addend: 0x0, symName: __ZNSt3__128__exception_guard_exceptionsINS_6vectorI7TextureNS_9allocatorIS2_EEE16__destroy_vectorEEC2B8ue170006ES6_, symObjAddr: 0x56A0, symBinAddr: 0x10001EDA4, symSize: 0x24 }
  - { offsetInCU: 0xA74E, offset: 0x75C12, size: 0x8, addend: 0x0, symName: __ZNSt3__128__exception_guard_exceptionsINS_6vectorI7TextureNS_9allocatorIS2_EEE16__destroy_vectorEED2B8ue170006Ev, symObjAddr: 0x61B4, symBinAddr: 0x10001EDC8, symSize: 0x50 }
  - { offsetInCU: 0xA777, offset: 0x75C3B, size: 0x8, addend: 0x0, symName: __ZNSt3__16vectorI4MeshNS_9allocatorIS1_EEE19__copy_assign_allocB8ue170006ERKS4_, symObjAddr: 0x7744, symBinAddr: 0x10001EE18, symSize: 0x2C }
  - { offsetInCU: 0xA7AA, offset: 0x75C6E, size: 0x8, addend: 0x0, symName: __ZNSt3__16vectorI4MeshNS_9allocatorIS1_EEE6assignIPS1_Li0EEEvT_S7_, symObjAddr: 0x7770, symBinAddr: 0x10001EE44, symSize: 0x5C }
  - { offsetInCU: 0xA7FE, offset: 0x75CC2, size: 0x8, addend: 0x0, symName: __ZNSt3__16vectorI4MeshNS_9allocatorIS1_EEE19__copy_assign_allocB8ue170006ERKS4_NS_17integral_constantIbLb0EEE, symObjAddr: 0x77CC, symBinAddr: 0x10001EEA0, symSize: 0x14 }
  - { offsetInCU: 0xA83A, offset: 0x75CFE, size: 0x8, addend: 0x0, symName: __ZNSt3__16vectorI4MeshNS_9allocatorIS1_EEE18__assign_with_sizeB8ue170006IPS1_S6_EEvT_T0_l, symObjAddr: 0x77E0, symBinAddr: 0x10001EEB4, symSize: 0x164 }
  - { offsetInCU: 0xA8EB, offset: 0x75DAF, size: 0x8, addend: 0x0, symName: __ZNSt3__16vectorI4MeshNS_9allocatorIS1_EEE18__construct_at_endIPS1_S6_EEvT_T0_m, symObjAddr: 0x79E4, symBinAddr: 0x10001F0B8, symSize: 0x8C }
  - { offsetInCU: 0xA960, offset: 0x75E24, size: 0x8, addend: 0x0, symName: __ZNSt3__16vectorI4MeshNS_9allocatorIS1_EEE17__destruct_at_endB8ue170006EPS1_, symObjAddr: 0x7AB4, symBinAddr: 0x10001F188, symSize: 0x4C }
  - { offsetInCU: 0xA9A2, offset: 0x75E66, size: 0x8, addend: 0x0, symName: __ZNSt3__16vectorI4MeshNS_9allocatorIS1_EEE11__vallocateB8ue170006Em, symObjAddr: 0x7B94, symBinAddr: 0x10001F1D4, symSize: 0xB4 }
  - { offsetInCU: 0xAA1B, offset: 0x75EDF, size: 0x8, addend: 0x0, symName: __ZNSt3__14pairIP4MeshS2_EC1B8ue170006IS2_S2_LPv0EEEOT_OT0_, symObjAddr: 0x8098, symBinAddr: 0x10001F55C, symSize: 0x3C }
  - { offsetInCU: 0xAA79, offset: 0x75F3D, size: 0x8, addend: 0x0, symName: __ZNSt3__14pairIP4MeshS2_EC2B8ue170006IS2_S2_LPv0EEEOT_OT0_, symObjAddr: 0x80D4, symBinAddr: 0x10001F598, symSize: 0x34 }
  - { offsetInCU: 0xAAD7, offset: 0x75F9B, size: 0x8, addend: 0x0, symName: __ZNSt3__129_AllocatorDestroyRangeReverseINS_9allocatorI4MeshEEPS2_EC1B8ue170006ERS3_RS4_S7_, symObjAddr: 0x8154, symBinAddr: 0x10001F618, symSize: 0x44 }
  - { offsetInCU: 0xAB2D, offset: 0x75FF1, size: 0x8, addend: 0x0, symName: __ZNSt3__116allocator_traitsINS_9allocatorI4MeshEEE9constructB8ue170006IS2_JRS2_EvEEvRS3_PT_DpOT0_, symObjAddr: 0x8198, symBinAddr: 0x10001F65C, symSize: 0x34 }
  - { offsetInCU: 0xAB84, offset: 0x76048, size: 0x8, addend: 0x0, symName: __ZNSt3__128__exception_guard_exceptionsINS_29_AllocatorDestroyRangeReverseINS_9allocatorI4MeshEEPS3_EEE10__completeB8ue170006Ev, symObjAddr: 0x81CC, symBinAddr: 0x10001F690, symSize: 0x1C }
  - { offsetInCU: 0xABA8, offset: 0x7606C, size: 0x8, addend: 0x0, symName: __ZNSt3__128__exception_guard_exceptionsINS_29_AllocatorDestroyRangeReverseINS_9allocatorI4MeshEEPS3_EEED1B8ue170006Ev, symObjAddr: 0x81E8, symBinAddr: 0x10001F6AC, symSize: 0x2C }
  - { offsetInCU: 0xABD1, offset: 0x76095, size: 0x8, addend: 0x0, symName: __ZNSt3__128__exception_guard_exceptionsINS_29_AllocatorDestroyRangeReverseINS_9allocatorI4MeshEEPS3_EEEC1B8ue170006ES6_, symObjAddr: 0x8214, symBinAddr: 0x10001F6D8, symSize: 0x34 }
  - { offsetInCU: 0xAC09, offset: 0x760CD, size: 0x8, addend: 0x0, symName: __ZNSt3__128__exception_guard_exceptionsINS_29_AllocatorDestroyRangeReverseINS_9allocatorI4MeshEEPS3_EEEC2B8ue170006ES6_, symObjAddr: 0x8248, symBinAddr: 0x10001F70C, symSize: 0x30 }
  - { offsetInCU: 0xAC41, offset: 0x76105, size: 0x8, addend: 0x0, symName: __ZNSt3__129_AllocatorDestroyRangeReverseINS_9allocatorI4MeshEEPS2_EC2B8ue170006ERS3_RS4_S7_, symObjAddr: 0x8278, symBinAddr: 0x10001F73C, symSize: 0x38 }
  - { offsetInCU: 0xAC97, offset: 0x7615B, size: 0x8, addend: 0x0, symName: __ZNSt3__19allocatorI4MeshE9constructB8ue170006IS1_JRS1_EEEvPT_DpOT0_, symObjAddr: 0x82B0, symBinAddr: 0x10001F774, symSize: 0x30 }
  - { offsetInCU: 0xACEB, offset: 0x761AF, size: 0x8, addend: 0x0, symName: __ZNSt3__128__exception_guard_exceptionsINS_29_AllocatorDestroyRangeReverseINS_9allocatorI4MeshEEPS3_EEED2B8ue170006Ev, symObjAddr: 0x82E0, symBinAddr: 0x10001F7A4, symSize: 0x50 }
  - { offsetInCU: 0xAD14, offset: 0x761D8, size: 0x8, addend: 0x0, symName: __ZNKSt3__129_AllocatorDestroyRangeReverseINS_9allocatorI4MeshEEPS2_EclB8ue170006Ev, symObjAddr: 0x8330, symBinAddr: 0x10001F7F4, symSize: 0x68 }
  - { offsetInCU: 0xAD38, offset: 0x761FC, size: 0x8, addend: 0x0, symName: __ZNSt3__118__unwrap_iter_implIP4MeshLb1EE8__unwrapB8ue170006ES2_, symObjAddr: 0x858C, symBinAddr: 0x10001F8CC, symSize: 0x24 }
  - { offsetInCU: 0xAD5B, offset: 0x7621F, size: 0x8, addend: 0x0, symName: __ZNSt3__118__unwrap_iter_implIP4MeshLb1EE8__rewrapB8ue170006ES2_S2_, symObjAddr: 0x85B0, symBinAddr: 0x10001F8F0, symSize: 0x58 }
  - { offsetInCU: 0xAD96, offset: 0x7625A, size: 0x8, addend: 0x0, symName: __ZNKSt3__111__copy_loopINS_17_ClassicAlgPolicyEEclB8ue170006IP4MeshS5_S5_EENS_4pairIT_T1_EES7_T0_S8_, symObjAddr: 0x8720, symBinAddr: 0x10001FA40, symSize: 0x88 }
  - { offsetInCU: 0xADFF, offset: 0x762C3, size: 0x8, addend: 0x0, symName: __ZN4MeshaSERKS_, symObjAddr: 0x87D4, symBinAddr: 0x10001FAF4, symSize: 0x68 }
  - { offsetInCU: 0xAE38, offset: 0x762FC, size: 0x8, addend: 0x0, symName: __ZNSt3__16vectorI4MeshNS_9allocatorIS1_EEE11__make_iterB8ue170006EPS1_, symObjAddr: 0xA3AC, symBinAddr: 0x10001FB94, symSize: 0x30 }
  - { offsetInCU: 0xAE6B, offset: 0x7632F, size: 0x8, addend: 0x0, symName: __ZNSt3__111__wrap_iterIP4MeshEC1B8ue170006ES2_, symObjAddr: 0xA3DC, symBinAddr: 0x10001FBC4, symSize: 0x34 }
  - { offsetInCU: 0xAEA2, offset: 0x76366, size: 0x8, addend: 0x0, symName: __ZNSt3__111__wrap_iterIP4MeshEC2B8ue170006ES2_, symObjAddr: 0xA410, symBinAddr: 0x10001FBF8, symSize: 0x20 }
  - { offsetInCU: 0xD4, offset: 0x764C5, size: 0x8, addend: 0x0, symName: __ZN11btTransform11getIdentityEv, symObjAddr: 0xB84, symBinAddr: 0x10002066C, symSize: 0x248 }
  - { offsetInCU: 0xF4, offset: 0x764E5, size: 0x8, addend: 0x0, symName: __ZZN11btTransform11getIdentityEvE17identityTransform, symObjAddr: 0xABA0, symBinAddr: 0x1000DD910, symSize: 0x0 }
  - { offsetInCU: 0x287, offset: 0x76678, size: 0x8, addend: 0x0, symName: __ZN11btMatrix3x311getIdentityEv, symObjAddr: 0x2230, symBinAddr: 0x10002167C, symSize: 0x158 }
  - { offsetInCU: 0x2A8, offset: 0x76699, size: 0x8, addend: 0x0, symName: __ZZN11btMatrix3x311getIdentityEvE14identityMatrix, symObjAddr: 0xABF0, symBinAddr: 0x1000DD960, symSize: 0x0 }
  - { offsetInCU: 0x387, offset: 0x76778, size: 0x8, addend: 0x0, symName: __ZN3glm7degreesIfEET_S1_, symObjAddr: 0x12F4, symBinAddr: 0x100020D98, symSize: 0x24 }
  - { offsetInCU: 0x5E33, offset: 0x7C224, size: 0x8, addend: 0x0, symName: __ZNSt3__122__make_exception_guardB8ue170006INS_6vectorI4MeshNS_9allocatorIS2_EEE16__destroy_vectorEEENS_28__exception_guard_exceptionsIT_EES8_, symObjAddr: 0x601C, symBinAddr: 0x100023F1C, symSize: 0x40 }
  - { offsetInCU: 0x80E0, offset: 0x7E4D1, size: 0x8, addend: 0x0, symName: __ZN13PhysicsNode3DC2EN3glm3vecILi3EfLNS0_9qualifierE0EEES3_S3_R6ShaderNSt3__112basic_stringIcNS6_11char_traitsIcEENS6_9allocatorIcEEEEf, symObjAddr: 0x0, symBinAddr: 0x10001FC18, symSize: 0x260 }
  - { offsetInCU: 0x8196, offset: 0x7E587, size: 0x8, addend: 0x0, symName: __ZNSt3__16vectorI4MeshNS_9allocatorIS1_EEEC1ERKS4_, symObjAddr: 0x260, symBinAddr: 0x10001FE78, symSize: 0x34 }
  - { offsetInCU: 0x8475, offset: 0x7E866, size: 0x8, addend: 0x0, symName: __ZN13PhysicsNode3D17create_rigid_bodyEP16btCollisionShape, symObjAddr: 0x2C0, symBinAddr: 0x10001FEAC, symSize: 0x37C }
  - { offsetInCU: 0x8720, offset: 0x7EB11, size: 0x8, addend: 0x0, symName: __ZN13PhysicsNode3D12update_scaleEv, symObjAddr: 0x63C, symBinAddr: 0x100020228, symSize: 0xB0 }
  - { offsetInCU: 0x87D9, offset: 0x7EBCA, size: 0x8, addend: 0x0, symName: __ZN13PhysicsNode3DC1EN3glm3vecILi3EfLNS0_9qualifierE0EEES3_S3_R6ShaderNSt3__112basic_stringIcNS6_11char_traitsIcEENS6_9allocatorIcEEEEf, symObjAddr: 0x724, symBinAddr: 0x1000202D8, symSize: 0xB0 }
  - { offsetInCU: 0x8858, offset: 0x7EC49, size: 0x8, addend: 0x0, symName: __ZN13PhysicsNode3DC2EN3glm3vecILi3EfLNS0_9qualifierE0EEES3_S3_R6ShaderNSt3__112basic_stringIcNS6_11char_traitsIcEENS6_9allocatorIcEEEEfP16btCollisionShape, symObjAddr: 0x7D4, symBinAddr: 0x100020388, symSize: 0x134 }
  - { offsetInCU: 0x88E7, offset: 0x7ECD8, size: 0x8, addend: 0x0, symName: __ZN13PhysicsNode3DC1EN3glm3vecILi3EfLNS0_9qualifierE0EEES3_S3_R6ShaderNSt3__112basic_stringIcNS6_11char_traitsIcEENS6_9allocatorIcEEEEfP16btCollisionShape, symObjAddr: 0x908, symBinAddr: 0x1000204BC, symSize: 0xB8 }
  - { offsetInCU: 0x8974, offset: 0x7ED65, size: 0x8, addend: 0x0, symName: __ZN11btTransformC1Ev, symObjAddr: 0x9C0, symBinAddr: 0x100020574, symSize: 0x2C }
  - { offsetInCU: 0x89DA, offset: 0x7EDCB, size: 0x8, addend: 0x0, symName: __ZN11btTransform11setIdentityEv, symObjAddr: 0x9EC, symBinAddr: 0x1000205A0, symSize: 0x88 }
  - { offsetInCU: 0x8A38, offset: 0x7EE29, size: 0x8, addend: 0x0, symName: __ZN12btQuaternionC1ERKfS1_S1_, symObjAddr: 0xA74, symBinAddr: 0x100020628, symSize: 0x44 }
  - { offsetInCU: 0x8B8C, offset: 0x7EF7D, size: 0x8, addend: 0x0, symName: __ZN20btDefaultMotionStateC1ERK11btTransformS2_, symObjAddr: 0xDCC, symBinAddr: 0x1000208B4, symSize: 0x3C }
  - { offsetInCU: 0x8BD1, offset: 0x7EFC2, size: 0x8, addend: 0x0, symName: __ZN11btRigidBody27btRigidBodyConstructionInfoC1EfP13btMotionStateP16btCollisionShapeRK9btVector3, symObjAddr: 0xE08, symBinAddr: 0x1000208F0, symSize: 0x4C }
  - { offsetInCU: 0x8C48, offset: 0x7F039, size: 0x8, addend: 0x0, symName: __ZN13PhysicsNode3D6updateEv, symObjAddr: 0xE54, symBinAddr: 0x10002093C, symSize: 0x148 }
  - { offsetInCU: 0x8D35, offset: 0x7F126, size: 0x8, addend: 0x0, symName: __ZN11btRigidBody14getMotionStateEv, symObjAddr: 0xF9C, symBinAddr: 0x100020A84, symSize: 0x18 }
  - { offsetInCU: 0x8D59, offset: 0x7F14A, size: 0x8, addend: 0x0, symName: __ZNK11btTransform11getRotationEv, symObjAddr: 0xFF8, symBinAddr: 0x100020A9C, symSize: 0x48 }
  - { offsetInCU: 0x8DD9, offset: 0x7F1CA, size: 0x8, addend: 0x0, symName: __ZNK12btQuaternion11getEulerZYXERfS0_S0_, symObjAddr: 0x1040, symBinAddr: 0x100020AE4, symSize: 0x2B4 }
  - { offsetInCU: 0x8F2C, offset: 0x7F31D, size: 0x8, addend: 0x0, symName: __ZN11btTransformC2Ev, symObjAddr: 0x1970, symBinAddr: 0x100020DBC, symSize: 0x40 }
  - { offsetInCU: 0x8F55, offset: 0x7F346, size: 0x8, addend: 0x0, symName: __ZN11btMatrix3x3C1Ev, symObjAddr: 0x19B0, symBinAddr: 0x100020DFC, symSize: 0x2C }
  - { offsetInCU: 0x8F7E, offset: 0x7F36F, size: 0x8, addend: 0x0, symName: __ZN11btMatrix3x3C2Ev, symObjAddr: 0x19DC, symBinAddr: 0x100020E28, symSize: 0x5C }
  - { offsetInCU: 0x8FF3, offset: 0x7F3E4, size: 0x8, addend: 0x0, symName: __ZN11btMatrix3x311setIdentityEv, symObjAddr: 0x1A38, symBinAddr: 0x100020E84, symSize: 0x10C }
  - { offsetInCU: 0x9197, offset: 0x7F588, size: 0x8, addend: 0x0, symName: __ZN11btMatrix3x311setRotationERK12btQuaternion, symObjAddr: 0x1B44, symBinAddr: 0x100020F90, symSize: 0x280 }
  - { offsetInCU: 0x92A9, offset: 0x7F69A, size: 0x8, addend: 0x0, symName: __ZNK12btQuaternion7length2Ev, symObjAddr: 0x1DC4, symBinAddr: 0x100021210, symSize: 0x28 }
  - { offsetInCU: 0x92CD, offset: 0x7F6BE, size: 0x8, addend: 0x0, symName: __ZN11btMatrix3x38setValueERKfS1_S1_S1_S1_S1_S1_S1_S1_, symObjAddr: 0x1DEC, symBinAddr: 0x100021238, symSize: 0x128 }
  - { offsetInCU: 0x942B, offset: 0x7F81C, size: 0x8, addend: 0x0, symName: __ZNK12btQuaternion3dotERKS_, symObjAddr: 0x1F14, symBinAddr: 0x100021360, symSize: 0xE0 }
  - { offsetInCU: 0x94A9, offset: 0x7F89A, size: 0x8, addend: 0x0, symName: __ZN12btQuaternionC2ERKfS1_S1_, symObjAddr: 0x1FF4, symBinAddr: 0x100021440, symSize: 0x48 }
  - { offsetInCU: 0x9587, offset: 0x7F978, size: 0x8, addend: 0x0, symName: __ZN12btQuaternion8setEulerERKfS1_S1_, symObjAddr: 0x203C, symBinAddr: 0x100021488, symSize: 0x1F4 }
  - { offsetInCU: 0x9820, offset: 0x7FC11, size: 0x8, addend: 0x0, symName: __ZN20btDefaultMotionStateC2ERK11btTransformS2_, symObjAddr: 0x2388, symBinAddr: 0x1000217D4, symSize: 0x378 }
  - { offsetInCU: 0x9B56, offset: 0x7FF47, size: 0x8, addend: 0x0, symName: __ZN13btMotionStateC2Ev, symObjAddr: 0x2700, symBinAddr: 0x100021B4C, symSize: 0x24 }
  - { offsetInCU: 0x9B81, offset: 0x7FF72, size: 0x8, addend: 0x0, symName: __ZN13btMotionStateD2Ev, symObjAddr: 0x2724, symBinAddr: 0x100021B70, symSize: 0x14 }
  - { offsetInCU: 0x9BAA, offset: 0x7FF9B, size: 0x8, addend: 0x0, symName: __ZN20btDefaultMotionStateD1Ev, symObjAddr: 0x2738, symBinAddr: 0x100021B84, symSize: 0x2C }
  - { offsetInCU: 0x9BD4, offset: 0x7FFC5, size: 0x8, addend: 0x0, symName: __ZN20btDefaultMotionStateD0Ev, symObjAddr: 0x2764, symBinAddr: 0x100021BB0, symSize: 0x40 }
  - { offsetInCU: 0xA126, offset: 0x80517, size: 0x8, addend: 0x0, symName: __ZNK20btDefaultMotionState17getWorldTransformER11btTransform, symObjAddr: 0x27A4, symBinAddr: 0x100021BF0, symSize: 0xA80 }
  - { offsetInCU: 0xAA13, offset: 0x80E04, size: 0x8, addend: 0x0, symName: __ZN20btDefaultMotionState17setWorldTransformERK11btTransform, symObjAddr: 0x3224, symBinAddr: 0x100022670, symSize: 0xA68 }
  - { offsetInCU: 0xB304, offset: 0x816F5, size: 0x8, addend: 0x0, symName: __ZN13btMotionStateD1Ev, symObjAddr: 0x3C8C, symBinAddr: 0x1000230D8, symSize: 0x14 }
  - { offsetInCU: 0xB32D, offset: 0x8171E, size: 0x8, addend: 0x0, symName: __ZN13btMotionStateD0Ev, symObjAddr: 0x3CA0, symBinAddr: 0x1000230EC, symSize: 0xC }
  - { offsetInCU: 0xB356, offset: 0x81747, size: 0x8, addend: 0x0, symName: __ZN20btDefaultMotionStateD2Ev, symObjAddr: 0x3CAC, symBinAddr: 0x1000230F8, symSize: 0x2C }
  - { offsetInCU: 0xB460, offset: 0x81851, size: 0x8, addend: 0x0, symName: __ZNK11btTransform7inverseEv, symObjAddr: 0x3CD8, symBinAddr: 0x100023124, symSize: 0x6A4 }
  - { offsetInCU: 0xB86D, offset: 0x81C5E, size: 0x8, addend: 0x0, symName: __ZN11btRigidBody27btRigidBodyConstructionInfoC2EfP13btMotionStateP16btCollisionShapeRK9btVector3, symObjAddr: 0x437C, symBinAddr: 0x1000237C8, symSize: 0xF8 }
  - { offsetInCU: 0xB91E, offset: 0x81D0F, size: 0x8, addend: 0x0, symName: __ZN12btQuaternionC1Ev, symObjAddr: 0x44AC, symBinAddr: 0x1000238C0, symSize: 0x2C }
  - { offsetInCU: 0xB989, offset: 0x81D7A, size: 0x8, addend: 0x0, symName: __ZNK11btMatrix3x311getRotationER12btQuaternion, symObjAddr: 0x44D8, symBinAddr: 0x1000238EC, symSize: 0x3AC }
  - { offsetInCU: 0xBAA3, offset: 0x81E94, size: 0x8, addend: 0x0, symName: __ZN12btQuaternionC2Ev, symObjAddr: 0x4884, symBinAddr: 0x100023C98, symSize: 0x18 }
  - { offsetInCU: 0xBACC, offset: 0x81EBD, size: 0x8, addend: 0x0, symName: __ZN12btQuaternionmLERKf, symObjAddr: 0x489C, symBinAddr: 0x100023CB0, symSize: 0x78 }
  - { offsetInCU: 0xBAFE, offset: 0x81EEF, size: 0x8, addend: 0x0, symName: __ZNSt3__16vectorI4MeshNS_9allocatorIS1_EEEC2ERKS4_, symObjAddr: 0x5DAC, symBinAddr: 0x100023D28, symSize: 0x94 }
  - { offsetInCU: 0xBB42, offset: 0x81F33, size: 0x8, addend: 0x0, symName: __ZNSt3__116allocator_traitsINS_9allocatorI4MeshEEE37select_on_container_copy_constructionB8ue170006IS3_vvEES3_RKS3_, symObjAddr: 0x5E40, symBinAddr: 0x100023DBC, symSize: 0x10 }
  - { offsetInCU: 0xBB7B, offset: 0x81F6C, size: 0x8, addend: 0x0, symName: __ZNSt3__117__compressed_pairIP4MeshNS_9allocatorIS1_EEEC1B8ue170006IDnS4_EEOT_OT0_, symObjAddr: 0x5E78, symBinAddr: 0x100023DCC, symSize: 0x3C }
  - { offsetInCU: 0xBBD2, offset: 0x81FC3, size: 0x8, addend: 0x0, symName: __ZNSt3__16vectorI4MeshNS_9allocatorIS1_EEE16__init_with_sizeB8ue170006IPS1_S6_EEvT_T0_m, symObjAddr: 0x5EB4, symBinAddr: 0x100023E08, symSize: 0xB8 }
  - { offsetInCU: 0xBC44, offset: 0x82035, size: 0x8, addend: 0x0, symName: __ZNSt3__117__compressed_pairIP4MeshNS_9allocatorIS1_EEEC2B8ue170006IDnS4_EEOT_OT0_, symObjAddr: 0x5FA4, symBinAddr: 0x100023EC0, symSize: 0x44 }
  - { offsetInCU: 0xBC9B, offset: 0x8208C, size: 0x8, addend: 0x0, symName: __ZNSt3__122__compressed_pair_elemINS_9allocatorI4MeshEELi1ELb1EEC2B8ue170006IS3_vEEOT_, symObjAddr: 0x6004, symBinAddr: 0x100023F04, symSize: 0x18 }
  - { offsetInCU: 0xBCDC, offset: 0x820CD, size: 0x8, addend: 0x0, symName: __ZNSt3__128__exception_guard_exceptionsINS_6vectorI4MeshNS_9allocatorIS2_EEE16__destroy_vectorEE10__completeB8ue170006Ev, symObjAddr: 0x619C, symBinAddr: 0x100023F5C, symSize: 0x1C }
  - { offsetInCU: 0xBD00, offset: 0x820F1, size: 0x8, addend: 0x0, symName: __ZNSt3__128__exception_guard_exceptionsINS_6vectorI4MeshNS_9allocatorIS2_EEE16__destroy_vectorEED1B8ue170006Ev, symObjAddr: 0x61B8, symBinAddr: 0x100023F78, symSize: 0x2C }
  - { offsetInCU: 0xBD29, offset: 0x8211A, size: 0x8, addend: 0x0, symName: __ZNSt3__128__exception_guard_exceptionsINS_6vectorI4MeshNS_9allocatorIS2_EEE16__destroy_vectorEEC1B8ue170006ES6_, symObjAddr: 0x61E4, symBinAddr: 0x100023FA4, symSize: 0x34 }
  - { offsetInCU: 0xBD60, offset: 0x82151, size: 0x8, addend: 0x0, symName: __ZNSt3__128__exception_guard_exceptionsINS_6vectorI4MeshNS_9allocatorIS2_EEE16__destroy_vectorEEC2B8ue170006ES6_, symObjAddr: 0x6218, symBinAddr: 0x100023FD8, symSize: 0x24 }
  - { offsetInCU: 0xBDFB, offset: 0x821EC, size: 0x8, addend: 0x0, symName: __ZNSt3__128__exception_guard_exceptionsINS_6vectorI4MeshNS_9allocatorIS2_EEE16__destroy_vectorEED2B8ue170006Ev, symObjAddr: 0x9C28, symBinAddr: 0x100023FFC, symSize: 0x48 }
  - { offsetInCU: 0x26, offset: 0x82262, size: 0x8, addend: 0x0, symName: __ZN10PointLightC2EN3glm3vecILi3EfLNS0_9qualifierE0EEES3_S3_NS1_ILi4EfLS2_0EEEfff, symObjAddr: 0x0, symBinAddr: 0x100024044, symSize: 0x140 }
  - { offsetInCU: 0x47AB, offset: 0x869E7, size: 0x8, addend: 0x0, symName: __ZN10PointLightC2EN3glm3vecILi3EfLNS0_9qualifierE0EEES3_S3_NS1_ILi4EfLS2_0EEEfff, symObjAddr: 0x0, symBinAddr: 0x100024044, symSize: 0x140 }
  - { offsetInCU: 0x483A, offset: 0x86A76, size: 0x8, addend: 0x0, symName: __ZN10PointLightC1EN3glm3vecILi3EfLNS0_9qualifierE0EEES3_S3_NS1_ILi4EfLS2_0EEEfff, symObjAddr: 0x140, symBinAddr: 0x100024184, symSize: 0x100 }
  - { offsetInCU: 0x48C7, offset: 0x86B03, size: 0x8, addend: 0x0, symName: __ZN10PointLightC2EN3glm3vecILi3EfLNS0_9qualifierE0EEES3_S3_NS1_ILi4EfLS2_0EEEfffNSt3__112basic_stringIcNS5_11char_traitsIcEENS5_9allocatorIcEEEE, symObjAddr: 0x240, symBinAddr: 0x100024284, symSize: 0x194 }
  - { offsetInCU: 0x4968, offset: 0x86BA4, size: 0x8, addend: 0x0, symName: __ZN10PointLightC1EN3glm3vecILi3EfLNS0_9qualifierE0EEES3_S3_NS1_ILi4EfLS2_0EEEfffNSt3__112basic_stringIcNS5_11char_traitsIcEENS5_9allocatorIcEEEE, symObjAddr: 0x3D4, symBinAddr: 0x100024418, symSize: 0x108 }
  - { offsetInCU: 0xC862, offset: 0x934A9, size: 0x8, addend: 0x0, symName: __Z17get_file_contentsPKc, symObjAddr: 0x0, symBinAddr: 0x100024520, symSize: 0x220 }
  - { offsetInCU: 0xC9EF, offset: 0x93636, size: 0x8, addend: 0x0, symName: __ZNKSt3__19basic_iosIcNS_11char_traitsIcEEEcvbB8ue170006Ev, symObjAddr: 0x38C, symBinAddr: 0x100024740, symSize: 0x2C }
  - { offsetInCU: 0xCA13, offset: 0x9365A, size: 0x8, addend: 0x0, symName: __ZNSt3__112basic_stringIcNS_11char_traitsIcEENS_9allocatorIcEEE6resizeB8ue170006Em, symObjAddr: 0x3E4, symBinAddr: 0x10002476C, symSize: 0x30 }
  - { offsetInCU: 0xCA46, offset: 0x9368D, size: 0x8, addend: 0x0, symName: __ZNKSt3__14fposI11__mbstate_tEcvxB8ue170006Ev, symObjAddr: 0x414, symBinAddr: 0x10002479C, symSize: 0x18 }
  - { offsetInCU: 0xCA6A, offset: 0x936B1, size: 0x8, addend: 0x0, symName: __ZNSt3__112basic_stringIcNS_11char_traitsIcEENS_9allocatorIcEEEixB8ue170006Em, symObjAddr: 0x42C, symBinAddr: 0x1000247B4, symSize: 0x30 }
  - { offsetInCU: 0xCA9D, offset: 0x936E4, size: 0x8, addend: 0x0, symName: __ZNSt3__114basic_ifstreamIcNS_11char_traitsIcEEE5closeEv, symObjAddr: 0x4B0, symBinAddr: 0x1000247E4, symSize: 0x58 }
  - { offsetInCU: 0xCAC9, offset: 0x93710, size: 0x8, addend: 0x0, symName: __ZN6ShaderC2Ev, symObjAddr: 0x548, symBinAddr: 0x10002483C, symSize: 0x21C }
  - { offsetInCU: 0xCB4D, offset: 0x93794, size: 0x8, addend: 0x0, symName: __ZN6ShaderC1Ev, symObjAddr: 0x788, symBinAddr: 0x100024A58, symSize: 0x2C }
  - { offsetInCU: 0xCB77, offset: 0x937BE, size: 0x8, addend: 0x0, symName: __ZN6ShaderC2EPKcS1_, symObjAddr: 0x7B4, symBinAddr: 0x100024A84, symSize: 0x2C4 }
  - { offsetInCU: 0xCC35, offset: 0x9387C, size: 0x8, addend: 0x0, symName: __ZN6ShaderC1EPKcS1_, symObjAddr: 0xA78, symBinAddr: 0x100024D48, symSize: 0x3C }
  - { offsetInCU: 0xCC7B, offset: 0x938C2, size: 0x8, addend: 0x0, symName: __ZN6Shader8ActivateEv, symObjAddr: 0xAB4, symBinAddr: 0x100024D84, symSize: 0x34 }
  - { offsetInCU: 0xCCA1, offset: 0x938E8, size: 0x8, addend: 0x0, symName: __ZN6Shader6DeleteEv, symObjAddr: 0xAE8, symBinAddr: 0x100024DB8, symSize: 0x34 }
  - { offsetInCU: 0xCCC7, offset: 0x9390E, size: 0x8, addend: 0x0, symName: __ZNKSt3__19basic_iosIcNS_11char_traitsIcEEE4failB8ue170006Ev, symObjAddr: 0x1048, symBinAddr: 0x100024DEC, symSize: 0x28 }
  - { offsetInCU: 0xCCEC, offset: 0x93933, size: 0x8, addend: 0x0, symName: __ZNKSt3__18ios_base4failB8ue170006Ev, symObjAddr: 0x1070, symBinAddr: 0x100024E14, symSize: 0x28 }
  - { offsetInCU: 0x5547, offset: 0x98EBE, size: 0x8, addend: 0x0, symName: __ZNSt3__1neB8ue170006IPK6VertexEEbRKNS_11__wrap_iterIT_EES8_, symObjAddr: 0x2CC, symBinAddr: 0x10002505C, symSize: 0x34 }
  - { offsetInCU: 0x558A, offset: 0x98F01, size: 0x8, addend: 0x0, symName: __ZNSt3__1eqB8ue170006IPK6VertexEEbRKNS_11__wrap_iterIT_EES8_, symObjAddr: 0x910, symBinAddr: 0x1000255EC, symSize: 0x48 }
  - { offsetInCU: 0xA34E, offset: 0x9DCC5, size: 0x8, addend: 0x0, symName: __ZN12ShapeFactory24create_convex_hull_shapeENSt3__16vectorI4MeshNS0_9allocatorIS2_EEEE, symObjAddr: 0x0, symBinAddr: 0x100024E3C, symSize: 0x1C0 }
  - { offsetInCU: 0xA4DB, offset: 0x9DE52, size: 0x8, addend: 0x0, symName: __ZNKSt3__16vectorI6VertexNS_9allocatorIS1_EEE5beginB8ue170006Ev, symObjAddr: 0x26C, symBinAddr: 0x100024FFC, symSize: 0x30 }
  - { offsetInCU: 0xA502, offset: 0x9DE79, size: 0x8, addend: 0x0, symName: __ZNKSt3__16vectorI6VertexNS_9allocatorIS1_EEE3endB8ue170006Ev, symObjAddr: 0x29C, symBinAddr: 0x10002502C, symSize: 0x30 }
  - { offsetInCU: 0xA529, offset: 0x9DEA0, size: 0x8, addend: 0x0, symName: __ZNKSt3__111__wrap_iterIPK6VertexEdeB8ue170006Ev, symObjAddr: 0x300, symBinAddr: 0x100025090, symSize: 0x18 }
  - { offsetInCU: 0xA54D, offset: 0x9DEC4, size: 0x8, addend: 0x0, symName: __ZNSt3__111__wrap_iterIPK6VertexEppB8ue170006Ev, symObjAddr: 0x318, symBinAddr: 0x1000250A8, symSize: 0x20 }
  - { offsetInCU: 0xAF13, offset: 0x9E88A, size: 0x8, addend: 0x0, symName: __ZN12ShapeFactory30create_bvh_triangle_mesh_shapeENSt3__16vectorI4MeshNS0_9allocatorIS2_EEEE, symObjAddr: 0x358, symBinAddr: 0x1000250C8, symSize: 0x4D4 }
  - { offsetInCU: 0xB1EE, offset: 0x9EB65, size: 0x8, addend: 0x0, symName: __ZNKSt3__16vectorI6VertexNS_9allocatorIS1_EEEixB8ue170006Em, symObjAddr: 0x854, symBinAddr: 0x10002559C, symSize: 0x2C }
  - { offsetInCU: 0xB224, offset: 0x9EB9B, size: 0x8, addend: 0x0, symName: __ZNKSt3__16vectorIjNS_9allocatorIjEEEixB8ue170006Em, symObjAddr: 0x880, symBinAddr: 0x1000255C8, symSize: 0x24 }
  - { offsetInCU: 0xB25A, offset: 0x9EBD1, size: 0x8, addend: 0x0, symName: __ZNKSt3__111__wrap_iterIPK6VertexE4baseB8ue170006Ev, symObjAddr: 0x958, symBinAddr: 0x100025634, symSize: 0x18 }
  - { offsetInCU: 0xB27E, offset: 0x9EBF5, size: 0x8, addend: 0x0, symName: __ZNKSt3__16vectorI6VertexNS_9allocatorIS1_EEE11__make_iterB8ue170006EPKS1_, symObjAddr: 0x9F4, symBinAddr: 0x10002564C, symSize: 0x30 }
  - { offsetInCU: 0xB2B1, offset: 0x9EC28, size: 0x8, addend: 0x0, symName: __ZNSt3__111__wrap_iterIPK6VertexEC1B8ue170006ES3_, symObjAddr: 0xA24, symBinAddr: 0x10002567C, symSize: 0x34 }
  - { offsetInCU: 0xB2E8, offset: 0x9EC5F, size: 0x8, addend: 0x0, symName: __ZNSt3__111__wrap_iterIPK6VertexEC2B8ue170006ES3_, symObjAddr: 0xA58, symBinAddr: 0x1000256B0, symSize: 0x20 }
  - { offsetInCU: 0x583C, offset: 0xA5460, size: 0x8, addend: 0x0, symName: __ZN6SkyboxC2ENSt3__16vectorINS0_12basic_stringIcNS0_11char_traitsIcEENS0_9allocatorIcEEEENS5_IS7_EEEE, symObjAddr: 0x0, symBinAddr: 0x1000256D0, symSize: 0x210 }
  - { offsetInCU: 0x588C, offset: 0xA54B0, size: 0x8, addend: 0x0, symName: __ZN6Skybox12load_cubemapENSt3__16vectorINS0_12basic_stringIcNS0_11char_traitsIcEENS0_9allocatorIcEEEENS5_IS7_EEEE, symObjAddr: 0x210, symBinAddr: 0x1000258E0, symSize: 0x204 }
  - { offsetInCU: 0x5924, offset: 0xA5548, size: 0x8, addend: 0x0, symName: __ZN6SkyboxC1ENSt3__16vectorINS0_12basic_stringIcNS0_11char_traitsIcEENS0_9allocatorIcEEEENS5_IS7_EEEE, symObjAddr: 0x474, symBinAddr: 0x100025AE4, symSize: 0x34 }
  - { offsetInCU: 0x595D, offset: 0xA5581, size: 0x8, addend: 0x0, symName: __ZNSt3__16vectorINS_12basic_stringIcNS_11char_traitsIcEENS_9allocatorIcEEEENS4_IS6_EEEixB8ue170006Em, symObjAddr: 0x4D0, symBinAddr: 0x100025B18, symSize: 0x2C }
  - { offsetInCU: 0x5993, offset: 0xA55B7, size: 0x8, addend: 0x0, symName: __ZN6Skybox4drawER6Camera, symObjAddr: 0x638, symBinAddr: 0x100025B44, symSize: 0x1B0 }
  - { offsetInCU: 0x59D6, offset: 0xA55FA, size: 0x8, addend: 0x0, symName: __ZN3glm3matILi4ELi4EfLNS_9qualifierE0EEC1ERKNS0_ILi3ELi3EfLS1_0EEE, symObjAddr: 0x81C, symBinAddr: 0x100025CF4, symSize: 0x34 }
  - { offsetInCU: 0x5A0E, offset: 0xA5632, size: 0x8, addend: 0x0, symName: __ZN3glm3matILi4ELi4EfLNS_9qualifierE0EEC2ERKNS0_ILi3ELi3EfLS1_0EEE, symObjAddr: 0xA30, symBinAddr: 0x100025D28, symSize: 0xAC }
  - { offsetInCU: 0x5A46, offset: 0xA566A, size: 0x8, addend: 0x0, symName: __ZN3glm3vecILi4EfLNS_9qualifierE0EEC1IfiLS1_0EEERKNS0_ILi3ET_XT1_EEET0_, symObjAddr: 0xB9C, symBinAddr: 0x100025DD4, symSize: 0x3C }
  - { offsetInCU: 0x5AAA, offset: 0xA56CE, size: 0x8, addend: 0x0, symName: __ZN3glm3vecILi4EfLNS_9qualifierE0EEC1IiiiiEET_T0_T1_T2_, symObjAddr: 0xBD8, symBinAddr: 0x100025E10, symSize: 0x4C }
  - { offsetInCU: 0x5B30, offset: 0xA5754, size: 0x8, addend: 0x0, symName: __ZN3glm3vecILi4EfLNS_9qualifierE0EEC2IfiLS1_0EEERKNS0_ILi3ET_XT1_EEET0_, symObjAddr: 0xC2C, symBinAddr: 0x100025E5C, symSize: 0x4C }
  - { offsetInCU: 0x5B94, offset: 0xA57B8, size: 0x8, addend: 0x0, symName: __ZN3glm3vecILi4EfLNS_9qualifierE0EEC2IiiiiEET_T0_T1_T2_, symObjAddr: 0xC78, symBinAddr: 0x100025EA8, symSize: 0x54 }
  - { offsetInCU: 0x26, offset: 0xA58A7, size: 0x8, addend: 0x0, symName: _stbi_failure_reason, symObjAddr: 0x0, symBinAddr: 0x100025EFC, symSize: 0x24 }
  - { offsetInCU: 0x58, offset: 0xA58D9, size: 0x8, addend: 0x0, symName: __ZL36stbi__vertically_flip_on_load_global, symObjAddr: 0x3B358, symBinAddr: 0x1000E2D20, symSize: 0x0 }
  - { offsetInCU: 0x7A, offset: 0xA58FB, size: 0x8, addend: 0x0, symName: __ZL21stbi__stdio_callbacks, symObjAddr: 0x1A458, symBinAddr: 0x1000DD9A8, symSize: 0x0 }
  - { offsetInCU: 0x105, offset: 0xA5986, size: 0x8, addend: 0x0, symName: __ZL22stbi__check_png_headerP13stbi__context, symObjAddr: 0x761C, symBinAddr: 0x10002D518, symSize: 0x98 }
  - { offsetInCU: 0x131, offset: 0xA59B2, size: 0x8, addend: 0x0, symName: __ZZL22stbi__check_png_headerP13stbi__contextE7png_sig, symObjAddr: 0x1A4D8, symBinAddr: 0x1000B7698, symSize: 0x0 }
  - { offsetInCU: 0x17E, offset: 0xA59FF, size: 0x8, addend: 0x0, symName: __ZL20stbi__parse_png_fileP9stbi__pngii, symObjAddr: 0x7B38, symBinAddr: 0x10002DA34, symSize: 0xEEC }
  - { offsetInCU: 0x1AA, offset: 0xA5A2B, size: 0x8, addend: 0x0, symName: __ZZL20stbi__parse_png_fileP9stbi__pngiiE13invalid_chunk, symObjAddr: 0x1A470, symBinAddr: 0x1000DD9C0, symSize: 0x0 }
  - { offsetInCU: 0x397, offset: 0xA5C18, size: 0x8, addend: 0x0, symName: __ZL23stbi__depth_scale_table, symObjAddr: 0x1A4E0, symBinAddr: 0x1000B76A0, symSize: 0x0 }
  - { offsetInCU: 0x3BE, offset: 0xA5C3F, size: 0x8, addend: 0x0, symName: __ZL16first_row_filter, symObjAddr: 0x1A489, symBinAddr: 0x1000DD9D9, symSize: 0x0 }
  - { offsetInCU: 0x3D8, offset: 0xA5C59, size: 0x8, addend: 0x0, symName: __ZL17stbi__shiftsignedjii, symObjAddr: 0xC8FC, symBinAddr: 0x1000327F8, symSize: 0x144 }
  - { offsetInCU: 0x404, offset: 0xA5C85, size: 0x8, addend: 0x0, symName: __ZZL17stbi__shiftsignedjiiE9mul_table, symObjAddr: 0x1A490, symBinAddr: 0x1000DD9E0, symSize: 0x0 }
  - { offsetInCU: 0x41B, offset: 0xA5C9C, size: 0x8, addend: 0x0, symName: __ZZL17stbi__shiftsignedjiiE11shift_table, symObjAddr: 0x1A4B4, symBinAddr: 0x1000DDA04, symSize: 0x0 }
  - { offsetInCU: 0x466, offset: 0xA5CE7, size: 0x8, addend: 0x0, symName: __ZL20stbi__process_markerP10stbi__jpegi, symObjAddr: 0xFDE0, symBinAddr: 0x100035CDC, symSize: 0x844 }
  - { offsetInCU: 0x492, offset: 0xA5D13, size: 0x8, addend: 0x0, symName: __ZZL20stbi__process_markerP10stbi__jpegiE3tag, symObjAddr: 0x1A5AB, symBinAddr: 0x1000B776B, symSize: 0x0 }
  - { offsetInCU: 0x4A9, offset: 0xA5D2A, size: 0x8, addend: 0x0, symName: __ZZL20stbi__process_markerP10stbi__jpegiE3tag_0, symObjAddr: 0x1A5B0, symBinAddr: 0x1000B7770, symSize: 0x0 }
  - { offsetInCU: 0x63F, offset: 0xA5EC0, size: 0x8, addend: 0x0, symName: __ZL19stbi__jpeg_dezigzag, symObjAddr: 0x1A55C, symBinAddr: 0x1000B771C, symSize: 0x0 }
  - { offsetInCU: 0x659, offset: 0xA5EDA, size: 0x8, addend: 0x0, symName: __ZL26stbi__process_frame_headerP10stbi__jpegi, symObjAddr: 0x10624, symBinAddr: 0x100036520, symSize: 0xC44 }
  - { offsetInCU: 0x685, offset: 0xA5F06, size: 0x8, addend: 0x0, symName: __ZZL26stbi__process_frame_headerP10stbi__jpegiE3rgb, symObjAddr: 0x1A5B6, symBinAddr: 0x1000B7776, symSize: 0x0 }
  - { offsetInCU: 0x73F, offset: 0xA5FC0, size: 0x8, addend: 0x0, symName: __ZL11stbi__bmask, symObjAddr: 0x1A5BC, symBinAddr: 0x1000B777C, symSize: 0x0 }
  - { offsetInCU: 0x777, offset: 0xA5FF8, size: 0x8, addend: 0x0, symName: __ZL11stbi__jbias, symObjAddr: 0x1A600, symBinAddr: 0x1000B77C0, symSize: 0x0 }
  - { offsetInCU: 0x7A3, offset: 0xA6024, size: 0x8, addend: 0x0, symName: __ZL15stbi__l2h_gamma, symObjAddr: 0x1A448, symBinAddr: 0x1000DD998, symSize: 0x0 }
  - { offsetInCU: 0x7C5, offset: 0xA6046, size: 0x8, addend: 0x0, symName: __ZL15stbi__l2h_scale, symObjAddr: 0x1A44C, symBinAddr: 0x1000DD99C, symSize: 0x0 }
  - { offsetInCU: 0x7E0, offset: 0xA6061, size: 0x8, addend: 0x0, symName: __ZL17stbi__h2l_gamma_i, symObjAddr: 0x1A450, symBinAddr: 0x1000DD9A0, symSize: 0x0 }
  - { offsetInCU: 0x7FB, offset: 0xA607C, size: 0x8, addend: 0x0, symName: __ZL17stbi__h2l_scale_i, symObjAddr: 0x1A454, symBinAddr: 0x1000DD9A4, symSize: 0x0 }
  - { offsetInCU: 0x816, offset: 0xA6097, size: 0x8, addend: 0x0, symName: __ZL21stbi__zdefault_length, symObjAddr: 0x1A640, symBinAddr: 0x1000B7800, symSize: 0x0 }
  - { offsetInCU: 0x83F, offset: 0xA60C0, size: 0x8, addend: 0x0, symName: __ZL23stbi__zdefault_distance, symObjAddr: 0x1A760, symBinAddr: 0x1000B7920, symSize: 0x0 }
  - { offsetInCU: 0x859, offset: 0xA60DA, size: 0x8, addend: 0x0, symName: __ZL27stbi__compute_huffman_codesP10stbi__zbuf, symObjAddr: 0x17914, symBinAddr: 0x10003D810, symSize: 0x3D0 }
  - { offsetInCU: 0x885, offset: 0xA6106, size: 0x8, addend: 0x0, symName: __ZZL27stbi__compute_huffman_codesP10stbi__zbufE15length_dezigzag, symObjAddr: 0x1A780, symBinAddr: 0x1000B7940, symSize: 0x0 }
  - { offsetInCU: 0x993, offset: 0xA6214, size: 0x8, addend: 0x0, symName: __ZL18stbi__zlength_base, symObjAddr: 0x1A794, symBinAddr: 0x1000B7954, symSize: 0x0 }
  - { offsetInCU: 0x9BA, offset: 0xA623B, size: 0x8, addend: 0x0, symName: __ZL19stbi__zlength_extra, symObjAddr: 0x1A810, symBinAddr: 0x1000B79D0, symSize: 0x0 }
  - { offsetInCU: 0x9D5, offset: 0xA6256, size: 0x8, addend: 0x0, symName: __ZL16stbi__zdist_base, symObjAddr: 0x1A88C, symBinAddr: 0x1000B7A4C, symSize: 0x0 }
  - { offsetInCU: 0x9FC, offset: 0xA627D, size: 0x8, addend: 0x0, symName: __ZL17stbi__zdist_extra, symObjAddr: 0x1A90C, symBinAddr: 0x1000B7ACC, symSize: 0x0 }
  - { offsetInCU: 0xA17, offset: 0xA6298, size: 0x8, addend: 0x0, symName: __ZL34stbi__unpremultiply_on_load_global, symObjAddr: 0x3B35C, symBinAddr: 0x1000E2D24, symSize: 0x0 }
  - { offsetInCU: 0xA32, offset: 0xA62B3, size: 0x8, addend: 0x0, symName: __ZL27stbi__de_iphone_flag_global, symObjAddr: 0x3B360, symBinAddr: 0x1000E2D28, symSize: 0x0 }
  - { offsetInCU: 0x143A, offset: 0xA6CBB, size: 0x8, addend: 0x0, symName: _stbi_failure_reason, symObjAddr: 0x0, symBinAddr: 0x100025EFC, symSize: 0x24 }
  - { offsetInCU: 0x1455, offset: 0xA6CD6, size: 0x8, addend: 0x0, symName: _stbi_image_free, symObjAddr: 0x24, symBinAddr: 0x100025F20, symSize: 0x24 }
  - { offsetInCU: 0x147C, offset: 0xA6CFD, size: 0x8, addend: 0x0, symName: _stbi_set_flip_vertically_on_load, symObjAddr: 0x48, symBinAddr: 0x100025F44, symSize: 0x1C }
  - { offsetInCU: 0x14A3, offset: 0xA6D24, size: 0x8, addend: 0x0, symName: _stbi_set_flip_vertically_on_load_thread, symObjAddr: 0x64, symBinAddr: 0x100025F60, symSize: 0x4C }
  - { offsetInCU: 0x14CA, offset: 0xA6D4B, size: 0x8, addend: 0x0, symName: _stbi_load, symObjAddr: 0xB0, symBinAddr: 0x100025FAC, symSize: 0xB4 }
  - { offsetInCU: 0x154F, offset: 0xA6DD0, size: 0x8, addend: 0x0, symName: __ZL11stbi__fopenPKcS0_, symObjAddr: 0x164, symBinAddr: 0x100026060, symSize: 0x34 }
  - { offsetInCU: 0x159C, offset: 0xA6E1D, size: 0x8, addend: 0x0, symName: __ZL9stbi__errPKc, symObjAddr: 0x198, symBinAddr: 0x100026094, symSize: 0x38 }
  - { offsetInCU: 0x15CB, offset: 0xA6E4C, size: 0x8, addend: 0x0, symName: _stbi_load_from_file, symObjAddr: 0x1D0, symBinAddr: 0x1000260CC, symSize: 0xE4 }
  - { offsetInCU: 0x1652, offset: 0xA6ED3, size: 0x8, addend: 0x0, symName: __ZL16stbi__start_fileP13stbi__contextP7__sFILE, symObjAddr: 0x2B4, symBinAddr: 0x1000261B0, symSize: 0x34 }
  - { offsetInCU: 0x168C, offset: 0xA6F0D, size: 0x8, addend: 0x0, symName: __ZL31stbi__load_and_postprocess_8bitP13stbi__contextPiS1_S1_i, symObjAddr: 0x2E8, symBinAddr: 0x1000261E4, symSize: 0x1F4 }
  - { offsetInCU: 0x1733, offset: 0xA6FB4, size: 0x8, addend: 0x0, symName: _stbi_load_from_file_16, symObjAddr: 0x4DC, symBinAddr: 0x1000263D8, symSize: 0xE4 }
  - { offsetInCU: 0x17BA, offset: 0xA703B, size: 0x8, addend: 0x0, symName: __ZL32stbi__load_and_postprocess_16bitP13stbi__contextPiS1_S1_i, symObjAddr: 0x5C0, symBinAddr: 0x1000264BC, symSize: 0x1F8 }
  - { offsetInCU: 0x1861, offset: 0xA70E2, size: 0x8, addend: 0x0, symName: _stbi_load_16, symObjAddr: 0x7B8, symBinAddr: 0x1000266B4, symSize: 0xB4 }
  - { offsetInCU: 0x18E6, offset: 0xA7167, size: 0x8, addend: 0x0, symName: _stbi_load_16_from_memory, symObjAddr: 0x86C, symBinAddr: 0x100026768, symSize: 0xA0 }
  - { offsetInCU: 0x196D, offset: 0xA71EE, size: 0x8, addend: 0x0, symName: __ZL15stbi__start_memP13stbi__contextPKhi, symObjAddr: 0x90C, symBinAddr: 0x100026808, symSize: 0x60 }
  - { offsetInCU: 0x19B6, offset: 0xA7237, size: 0x8, addend: 0x0, symName: _stbi_load_16_from_callbacks, symObjAddr: 0x96C, symBinAddr: 0x100026868, symSize: 0xA0 }
  - { offsetInCU: 0x1A3D, offset: 0xA72BE, size: 0x8, addend: 0x0, symName: __ZL21stbi__start_callbacksP13stbi__contextP17stbi_io_callbacksPv, symObjAddr: 0xA0C, symBinAddr: 0x100026908, symSize: 0x9C }
  - { offsetInCU: 0x1A86, offset: 0xA7307, size: 0x8, addend: 0x0, symName: _stbi_load_from_memory, symObjAddr: 0xAA8, symBinAddr: 0x1000269A4, symSize: 0xA0 }
  - { offsetInCU: 0x1B0D, offset: 0xA738E, size: 0x8, addend: 0x0, symName: _stbi_load_from_callbacks, symObjAddr: 0xB48, symBinAddr: 0x100026A44, symSize: 0xA0 }
  - { offsetInCU: 0x1B94, offset: 0xA7415, size: 0x8, addend: 0x0, symName: _stbi_load_gif_from_memory, symObjAddr: 0xBE8, symBinAddr: 0x100026AE4, symSize: 0x134 }
  - { offsetInCU: 0x1C4C, offset: 0xA74CD, size: 0x8, addend: 0x0, symName: __ZL19stbi__load_gif_mainP13stbi__contextPPiS1_S1_S1_S1_i, symObjAddr: 0xD1C, symBinAddr: 0x100026C18, symSize: 0x500 }
  - { offsetInCU: 0x1D9E, offset: 0xA761F, size: 0x8, addend: 0x0, symName: __ZL26stbi__vertical_flip_slicesPviiii, symObjAddr: 0x121C, symBinAddr: 0x100027118, symSize: 0xA4 }
  - { offsetInCU: 0x1E32, offset: 0xA76B3, size: 0x8, addend: 0x0, symName: _stbi_loadf_from_memory, symObjAddr: 0x12C0, symBinAddr: 0x1000271BC, symSize: 0xA0 }
  - { offsetInCU: 0x1EB9, offset: 0xA773A, size: 0x8, addend: 0x0, symName: __ZL16stbi__loadf_mainP13stbi__contextPiS1_S1_i, symObjAddr: 0x1360, symBinAddr: 0x10002725C, symSize: 0x16C }
  - { offsetInCU: 0x1F60, offset: 0xA77E1, size: 0x8, addend: 0x0, symName: _stbi_loadf_from_callbacks, symObjAddr: 0x14CC, symBinAddr: 0x1000273C8, symSize: 0xA0 }
  - { offsetInCU: 0x1FE7, offset: 0xA7868, size: 0x8, addend: 0x0, symName: _stbi_loadf, symObjAddr: 0x156C, symBinAddr: 0x100027468, symSize: 0xB4 }
  - { offsetInCU: 0x206C, offset: 0xA78ED, size: 0x8, addend: 0x0, symName: _stbi_loadf_from_file, symObjAddr: 0x1620, symBinAddr: 0x10002751C, symSize: 0x98 }
  - { offsetInCU: 0x20E2, offset: 0xA7963, size: 0x8, addend: 0x0, symName: _stbi_is_hdr_from_memory, symObjAddr: 0x16B8, symBinAddr: 0x1000275B4, symSize: 0x80 }
  - { offsetInCU: 0x212B, offset: 0xA79AC, size: 0x8, addend: 0x0, symName: __ZL14stbi__hdr_testP13stbi__context, symObjAddr: 0x1738, symBinAddr: 0x100027634, symSize: 0x70 }
  - { offsetInCU: 0x2169, offset: 0xA79EA, size: 0x8, addend: 0x0, symName: _stbi_is_hdr, symObjAddr: 0x17A8, symBinAddr: 0x1000276A4, symSize: 0x64 }
  - { offsetInCU: 0x21B2, offset: 0xA7A33, size: 0x8, addend: 0x0, symName: _stbi_is_hdr_from_file, symObjAddr: 0x180C, symBinAddr: 0x100027708, symSize: 0x9C }
  - { offsetInCU: 0x220A, offset: 0xA7A8B, size: 0x8, addend: 0x0, symName: _stbi_is_hdr_from_callbacks, symObjAddr: 0x18A8, symBinAddr: 0x1000277A4, symSize: 0x80 }
  - { offsetInCU: 0x2253, offset: 0xA7AD4, size: 0x8, addend: 0x0, symName: _stbi_ldr_to_hdr_gamma, symObjAddr: 0x1928, symBinAddr: 0x100027824, symSize: 0x1C }
  - { offsetInCU: 0x227A, offset: 0xA7AFB, size: 0x8, addend: 0x0, symName: _stbi_ldr_to_hdr_scale, symObjAddr: 0x1944, symBinAddr: 0x100027840, symSize: 0x1C }
  - { offsetInCU: 0x22A1, offset: 0xA7B22, size: 0x8, addend: 0x0, symName: _stbi_hdr_to_ldr_gamma, symObjAddr: 0x1960, symBinAddr: 0x10002785C, symSize: 0x24 }
  - { offsetInCU: 0x22C8, offset: 0xA7B49, size: 0x8, addend: 0x0, symName: _stbi_hdr_to_ldr_scale, symObjAddr: 0x1984, symBinAddr: 0x100027880, symSize: 0x24 }
  - { offsetInCU: 0x22EF, offset: 0xA7B70, size: 0x8, addend: 0x0, symName: _stbi_zlib_decode_malloc_guesssize, symObjAddr: 0x19A8, symBinAddr: 0x1000278A4, symSize: 0x138 }
  - { offsetInCU: 0x2365, offset: 0xA7BE6, size: 0x8, addend: 0x0, symName: __ZL12stbi__mallocm, symObjAddr: 0x1AE0, symBinAddr: 0x1000279DC, symSize: 0x24 }
  - { offsetInCU: 0x2394, offset: 0xA7C15, size: 0x8, addend: 0x0, symName: __ZL13stbi__do_zlibP10stbi__zbufPciii, symObjAddr: 0x1B04, symBinAddr: 0x100027A00, symSize: 0x70 }
  - { offsetInCU: 0x23FF, offset: 0xA7C80, size: 0x8, addend: 0x0, symName: _stbi_zlib_decode_malloc, symObjAddr: 0x1B74, symBinAddr: 0x100027A70, symSize: 0x38 }
  - { offsetInCU: 0x2448, offset: 0xA7CC9, size: 0x8, addend: 0x0, symName: _stbi_zlib_decode_malloc_guesssize_headerflag, symObjAddr: 0x1BAC, symBinAddr: 0x100027AA8, symSize: 0x13C }
  - { offsetInCU: 0x24CE, offset: 0xA7D4F, size: 0x8, addend: 0x0, symName: _stbi_zlib_decode_buffer, symObjAddr: 0x1CE8, symBinAddr: 0x100027BE4, symSize: 0xE8 }
  - { offsetInCU: 0x2535, offset: 0xA7DB6, size: 0x8, addend: 0x0, symName: _stbi_zlib_decode_noheader_malloc, symObjAddr: 0x1DD0, symBinAddr: 0x100027CCC, symSize: 0x134 }
  - { offsetInCU: 0x259C, offset: 0xA7E1D, size: 0x8, addend: 0x0, symName: _stbi_zlib_decode_noheader_buffer, symObjAddr: 0x1F04, symBinAddr: 0x100027E00, symSize: 0xE8 }
  - { offsetInCU: 0x2603, offset: 0xA7E84, size: 0x8, addend: 0x0, symName: _stbi_set_unpremultiply_on_load, symObjAddr: 0x1FEC, symBinAddr: 0x100027EE8, symSize: 0x1C }
  - { offsetInCU: 0x262A, offset: 0xA7EAB, size: 0x8, addend: 0x0, symName: _stbi_convert_iphone_png_to_rgb, symObjAddr: 0x2008, symBinAddr: 0x100027F04, symSize: 0x1C }
  - { offsetInCU: 0x2651, offset: 0xA7ED2, size: 0x8, addend: 0x0, symName: _stbi_set_unpremultiply_on_load_thread, symObjAddr: 0x2024, symBinAddr: 0x100027F20, symSize: 0x4C }
  - { offsetInCU: 0x2678, offset: 0xA7EF9, size: 0x8, addend: 0x0, symName: _stbi_convert_iphone_png_to_rgb_thread, symObjAddr: 0x2070, symBinAddr: 0x100027F6C, symSize: 0x4C }
  - { offsetInCU: 0x269F, offset: 0xA7F20, size: 0x8, addend: 0x0, symName: _stbi_info, symObjAddr: 0x20BC, symBinAddr: 0x100027FB8, symSize: 0x94 }
  - { offsetInCU: 0x2715, offset: 0xA7F96, size: 0x8, addend: 0x0, symName: _stbi_info_from_file, symObjAddr: 0x2150, symBinAddr: 0x10002804C, symSize: 0xB4 }
  - { offsetInCU: 0x279C, offset: 0xA801D, size: 0x8, addend: 0x0, symName: __ZL15stbi__info_mainP13stbi__contextPiS1_S1_, symObjAddr: 0x2204, symBinAddr: 0x100028100, symSize: 0x1F0 }
  - { offsetInCU: 0x27F8, offset: 0xA8079, size: 0x8, addend: 0x0, symName: _stbi_is_16_bit, symObjAddr: 0x23F4, symBinAddr: 0x1000282F0, symSize: 0x7C }
  - { offsetInCU: 0x2841, offset: 0xA80C2, size: 0x8, addend: 0x0, symName: _stbi_is_16_bit_from_file, symObjAddr: 0x2470, symBinAddr: 0x10002836C, symSize: 0x9C }
  - { offsetInCU: 0x2899, offset: 0xA811A, size: 0x8, addend: 0x0, symName: __ZL16stbi__is_16_mainP13stbi__context, symObjAddr: 0x250C, symBinAddr: 0x100028408, symSize: 0x94 }
  - { offsetInCU: 0x28C8, offset: 0xA8149, size: 0x8, addend: 0x0, symName: _stbi_info_from_memory, symObjAddr: 0x25A0, symBinAddr: 0x10002849C, symSize: 0x98 }
  - { offsetInCU: 0x293E, offset: 0xA81BF, size: 0x8, addend: 0x0, symName: _stbi_info_from_callbacks, symObjAddr: 0x2638, symBinAddr: 0x100028534, symSize: 0x98 }
  - { offsetInCU: 0x29B4, offset: 0xA8235, size: 0x8, addend: 0x0, symName: _stbi_is_16_bit_from_memory, symObjAddr: 0x26D0, symBinAddr: 0x1000285CC, symSize: 0x80 }
  - { offsetInCU: 0x29FD, offset: 0xA827E, size: 0x8, addend: 0x0, symName: _stbi_is_16_bit_from_callbacks, symObjAddr: 0x2750, symBinAddr: 0x10002864C, symSize: 0x80 }
  - { offsetInCU: 0x2A46, offset: 0xA82C7, size: 0x8, addend: 0x0, symName: __ZL16stbi__stdio_readPvPci, symObjAddr: 0x27D0, symBinAddr: 0x1000286CC, symSize: 0x38 }
  - { offsetInCU: 0x2A93, offset: 0xA8314, size: 0x8, addend: 0x0, symName: __ZL16stbi__stdio_skipPvi, symObjAddr: 0x2808, symBinAddr: 0x100028704, symSize: 0x60 }
  - { offsetInCU: 0x2ADC, offset: 0xA835D, size: 0x8, addend: 0x0, symName: __ZL15stbi__stdio_eofPv, symObjAddr: 0x2868, symBinAddr: 0x100028764, symSize: 0x5C }
  - { offsetInCU: 0x2B0B, offset: 0xA838C, size: 0x8, addend: 0x0, symName: __ZL15stbi__load_mainP13stbi__contextPiS1_S1_iP17stbi__result_infoi, symObjAddr: 0x28C4, symBinAddr: 0x1000287C0, symSize: 0x314 }
  - { offsetInCU: 0x2BB2, offset: 0xA8433, size: 0x8, addend: 0x0, symName: __ZL21stbi__convert_16_to_8Ptiii, symObjAddr: 0x2BD8, symBinAddr: 0x100028AD4, symSize: 0xF8 }
  - { offsetInCU: 0x2C3B, offset: 0xA84BC, size: 0x8, addend: 0x0, symName: __ZL19stbi__vertical_flipPviii, symObjAddr: 0x2CD0, symBinAddr: 0x100028BCC, symSize: 0x1B0 }
  - { offsetInCU: 0x2D2F, offset: 0xA85B0, size: 0x8, addend: 0x0, symName: __ZL14stbi__png_testP13stbi__context, symObjAddr: 0x2E80, symBinAddr: 0x100028D7C, symSize: 0x34 }
  - { offsetInCU: 0x2D6D, offset: 0xA85EE, size: 0x8, addend: 0x0, symName: __ZL14stbi__png_loadP13stbi__contextPiS1_S1_iP17stbi__result_info, symObjAddr: 0x2EB4, symBinAddr: 0x100028DB0, symSize: 0x54 }
  - { offsetInCU: 0x2DF6, offset: 0xA8677, size: 0x8, addend: 0x0, symName: __ZL14stbi__bmp_testP13stbi__context, symObjAddr: 0x2F08, symBinAddr: 0x100028E04, symSize: 0x34 }
  - { offsetInCU: 0x2E34, offset: 0xA86B5, size: 0x8, addend: 0x0, symName: __ZL14stbi__bmp_loadP13stbi__contextPiS1_S1_iP17stbi__result_info, symObjAddr: 0x2F3C, symBinAddr: 0x100028E38, symSize: 0x13CC }
  - { offsetInCU: 0x31DB, offset: 0xA8A5C, size: 0x8, addend: 0x0, symName: __ZL14stbi__gif_testP13stbi__context, symObjAddr: 0x4308, symBinAddr: 0x10002A204, symSize: 0x34 }
  - { offsetInCU: 0x3219, offset: 0xA8A9A, size: 0x8, addend: 0x0, symName: __ZL14stbi__gif_loadP13stbi__contextPiS1_S1_iP17stbi__result_info, symObjAddr: 0x433C, symBinAddr: 0x10002A238, symSize: 0x184 }
  - { offsetInCU: 0x32B2, offset: 0xA8B33, size: 0x8, addend: 0x0, symName: __ZL14stbi__psd_testP13stbi__context, symObjAddr: 0x44C0, symBinAddr: 0x10002A3BC, symSize: 0x48 }
  - { offsetInCU: 0x32F0, offset: 0xA8B71, size: 0x8, addend: 0x0, symName: __ZL14stbi__psd_loadP13stbi__contextPiS1_S1_iP17stbi__result_infoi, symObjAddr: 0x4508, symBinAddr: 0x10002A404, symSize: 0xC90 }
  - { offsetInCU: 0x357D, offset: 0xA8DFE, size: 0x8, addend: 0x0, symName: __ZL14stbi__pic_testP13stbi__context, symObjAddr: 0x5198, symBinAddr: 0x10002B094, symSize: 0x34 }
  - { offsetInCU: 0x35BB, offset: 0xA8E3C, size: 0x8, addend: 0x0, symName: __ZL14stbi__pic_loadP13stbi__contextPiS1_S1_iP17stbi__result_info, symObjAddr: 0x51CC, symBinAddr: 0x10002B0C8, symSize: 0x2F0 }
  - { offsetInCU: 0x3680, offset: 0xA8F01, size: 0x8, addend: 0x0, symName: __ZL15stbi__jpeg_testP13stbi__context, symObjAddr: 0x54BC, symBinAddr: 0x10002B3B8, symSize: 0xA0 }
  - { offsetInCU: 0x36CD, offset: 0xA8F4E, size: 0x8, addend: 0x0, symName: __ZL15stbi__jpeg_loadP13stbi__contextPiS1_S1_iP17stbi__result_info, symObjAddr: 0x555C, symBinAddr: 0x10002B458, symSize: 0xD0 }
  - { offsetInCU: 0x3765, offset: 0xA8FE6, size: 0x8, addend: 0x0, symName: __ZL14stbi__pnm_testP13stbi__context, symObjAddr: 0x562C, symBinAddr: 0x10002B528, symSize: 0x90 }
  - { offsetInCU: 0x37B2, offset: 0xA9033, size: 0x8, addend: 0x0, symName: __ZL14stbi__pnm_loadP13stbi__contextPiS1_S1_iP17stbi__result_info, symObjAddr: 0x56BC, symBinAddr: 0x10002B5B8, symSize: 0x384 }
  - { offsetInCU: 0x383B, offset: 0xA90BC, size: 0x8, addend: 0x0, symName: __ZL14stbi__hdr_loadP13stbi__contextPiS1_S1_iP17stbi__result_info, symObjAddr: 0x5A40, symBinAddr: 0x10002B93C, symSize: 0xA40 }
  - { offsetInCU: 0x3A33, offset: 0xA92B4, size: 0x8, addend: 0x0, symName: __ZL16stbi__hdr_to_ldrPfiii, symObjAddr: 0x6480, symBinAddr: 0x10002C37C, symSize: 0x2D0 }
  - { offsetInCU: 0x3B07, offset: 0xA9388, size: 0x8, addend: 0x0, symName: __ZL14stbi__tga_testP13stbi__context, symObjAddr: 0x6750, symBinAddr: 0x10002C64C, symSize: 0x2A0 }
  - { offsetInCU: 0x3B74, offset: 0xA93F5, size: 0x8, addend: 0x0, symName: __ZL14stbi__tga_loadP13stbi__contextPiS1_S1_iP17stbi__result_info, symObjAddr: 0x69F0, symBinAddr: 0x10002C8EC, symSize: 0xC2C }
  - { offsetInCU: 0x3E6F, offset: 0xA96F0, size: 0x8, addend: 0x0, symName: __ZL12stbi__rewindP13stbi__context, symObjAddr: 0x76B4, symBinAddr: 0x10002D5B0, symSize: 0x30 }
  - { offsetInCU: 0x3E9A, offset: 0xA971B, size: 0x8, addend: 0x0, symName: __ZL10stbi__get8P13stbi__context, symObjAddr: 0x76E4, symBinAddr: 0x10002D5E0, symSize: 0xA0 }
  - { offsetInCU: 0x3EC9, offset: 0xA974A, size: 0x8, addend: 0x0, symName: __ZL19stbi__refill_bufferP13stbi__context, symObjAddr: 0x7784, symBinAddr: 0x10002D680, symSize: 0xE4 }
  - { offsetInCU: 0x3F03, offset: 0xA9784, size: 0x8, addend: 0x0, symName: __ZL12stbi__do_pngP9stbi__pngPiS1_S1_iP17stbi__result_info, symObjAddr: 0x7868, symBinAddr: 0x10002D764, symSize: 0x2D0 }
  - { offsetInCU: 0x3F8C, offset: 0xA980D, size: 0x8, addend: 0x0, symName: __ZL20stbi__convert_formatPhiijj, symObjAddr: 0x8A24, symBinAddr: 0x10002E920, symSize: 0x7C8 }
  - { offsetInCU: 0x4051, offset: 0xA98D2, size: 0x8, addend: 0x0, symName: __ZL22stbi__convert_format16Ptiijj, symObjAddr: 0x9254, symBinAddr: 0x10002F150, symSize: 0x7D4 }
  - { offsetInCU: 0x4116, offset: 0xA9997, size: 0x8, addend: 0x0, symName: __ZL22stbi__get_chunk_headerP13stbi__context, symObjAddr: 0x9A90, symBinAddr: 0x10002F98C, symSize: 0x38 }
  - { offsetInCU: 0x4154, offset: 0xA99D5, size: 0x8, addend: 0x0, symName: __ZL10stbi__skipP13stbi__contexti, symObjAddr: 0x9AC8, symBinAddr: 0x10002F9C4, symSize: 0xF8 }
  - { offsetInCU: 0x41AC, offset: 0xA9A2D, size: 0x8, addend: 0x0, symName: __ZL13stbi__get32beP13stbi__context, symObjAddr: 0x9BC0, symBinAddr: 0x10002FABC, symSize: 0x40 }
  - { offsetInCU: 0x41EA, offset: 0xA9A6B, size: 0x8, addend: 0x0, symName: __ZL13stbi__get16beP13stbi__context, symObjAddr: 0x9C00, symBinAddr: 0x10002FAFC, symSize: 0x48 }
  - { offsetInCU: 0x4228, offset: 0xA9AA9, size: 0x8, addend: 0x0, symName: __ZL10stbi__getnP13stbi__contextPhi, symObjAddr: 0x9C48, symBinAddr: 0x10002FB44, symSize: 0x158 }
  - { offsetInCU: 0x42C0, offset: 0xA9B41, size: 0x8, addend: 0x0, symName: __ZL22stbi__create_png_imageP9stbi__pngPhjiiii, symObjAddr: 0x9DA0, symBinAddr: 0x10002FC9C, symSize: 0x464 }
  - { offsetInCU: 0x4462, offset: 0xA9CE3, size: 0x8, addend: 0x0, symName: __ZL28stbi__compute_transparency16P9stbi__pngPti, symObjAddr: 0xA204, symBinAddr: 0x100030100, symSize: 0x1F4 }
  - { offsetInCU: 0x44EB, offset: 0xA9D6C, size: 0x8, addend: 0x0, symName: __ZL26stbi__compute_transparencyP9stbi__pngPhi, symObjAddr: 0xA3F8, symBinAddr: 0x1000302F4, symSize: 0x1F4 }
  - { offsetInCU: 0x4574, offset: 0xA9DF5, size: 0x8, addend: 0x0, symName: __ZL15stbi__de_iphoneP9stbi__png, symObjAddr: 0xA5EC, symBinAddr: 0x1000304E8, symSize: 0x2BC }
  - { offsetInCU: 0x4662, offset: 0xA9EE3, size: 0x8, addend: 0x0, symName: __ZL24stbi__expand_png_paletteP9stbi__pngPhii, symObjAddr: 0xA8A8, symBinAddr: 0x1000307A4, symSize: 0x240 }
  - { offsetInCU: 0x4745, offset: 0xA9FC6, size: 0x8, addend: 0x0, symName: __ZL26stbi__create_png_image_rawP9stbi__pngPhjijjii, symObjAddr: 0xAAE8, symBinAddr: 0x1000309E4, symSize: 0xD50 }
  - { offsetInCU: 0x49A2, offset: 0xAA223, size: 0x8, addend: 0x0, symName: __ZL17stbi__malloc_mad3iiii, symObjAddr: 0xB850, symBinAddr: 0x10003174C, symSize: 0x88 }
  - { offsetInCU: 0x49FE, offset: 0xAA27F, size: 0x8, addend: 0x0, symName: __ZL21stbi__mad3sizes_validiiii, symObjAddr: 0xB8D8, symBinAddr: 0x1000317D4, symSize: 0xAC }
  - { offsetInCU: 0x4A5A, offset: 0xAA2DB, size: 0x8, addend: 0x0, symName: __ZL21stbi__mad2sizes_validiii, symObjAddr: 0xB984, symBinAddr: 0x100031880, symSize: 0x74 }
  - { offsetInCU: 0x4AA7, offset: 0xAA328, size: 0x8, addend: 0x0, symName: __ZL17stbi__malloc_mad2iii, symObjAddr: 0xB9F8, symBinAddr: 0x1000318F4, symSize: 0x78 }
  - { offsetInCU: 0x4AF4, offset: 0xAA375, size: 0x8, addend: 0x0, symName: __ZL11stbi__paethiii, symObjAddr: 0xBA70, symBinAddr: 0x10003196C, symSize: 0x11C }
  - { offsetInCU: 0x4B8C, offset: 0xAA40D, size: 0x8, addend: 0x0, symName: __ZL30stbi__create_png_alpha_expand8PhS_ji, symObjAddr: 0xBB8C, symBinAddr: 0x100031A88, symSize: 0x1E0 }
  - { offsetInCU: 0x4BF3, offset: 0xAA474, size: 0x8, addend: 0x0, symName: __ZL21stbi__mul2sizes_validii, symObjAddr: 0xBD6C, symBinAddr: 0x100031C68, symSize: 0x8C }
  - { offsetInCU: 0x4C31, offset: 0xAA4B2, size: 0x8, addend: 0x0, symName: __ZL20stbi__addsizes_validii, symObjAddr: 0xBDF8, symBinAddr: 0x100031CF4, symSize: 0x58 }
  - { offsetInCU: 0x4C6F, offset: 0xAA4F0, size: 0x8, addend: 0x0, symName: __ZL15stbi__compute_yiii, symObjAddr: 0xBE50, symBinAddr: 0x100031D4C, symSize: 0x4C }
  - { offsetInCU: 0x4CBC, offset: 0xAA53D, size: 0x8, addend: 0x0, symName: __ZL18stbi__compute_y_16iii, symObjAddr: 0xBE9C, symBinAddr: 0x100031D98, symSize: 0x4C }
  - { offsetInCU: 0x4D09, offset: 0xAA58A, size: 0x8, addend: 0x0, symName: __ZL18stbi__bmp_test_rawP13stbi__context, symObjAddr: 0xBEE8, symBinAddr: 0x100031DE4, symSize: 0x130 }
  - { offsetInCU: 0x4D56, offset: 0xAA5D7, size: 0x8, addend: 0x0, symName: __ZL13stbi__get32leP13stbi__context, symObjAddr: 0xC018, symBinAddr: 0x100031F14, symSize: 0x40 }
  - { offsetInCU: 0x4D94, offset: 0xAA615, size: 0x8, addend: 0x0, symName: __ZL13stbi__get16leP13stbi__context, symObjAddr: 0xC058, symBinAddr: 0x100031F54, symSize: 0x48 }
  - { offsetInCU: 0x4DD2, offset: 0xAA653, size: 0x8, addend: 0x0, symName: __ZL22stbi__bmp_parse_headerP13stbi__contextP14stbi__bmp_data, symObjAddr: 0xC0A0, symBinAddr: 0x100031F9C, symSize: 0x6B4 }
  - { offsetInCU: 0x4E5B, offset: 0xAA6DC, size: 0x8, addend: 0x0, symName: __ZL14stbi__high_bitj, symObjAddr: 0xC754, symBinAddr: 0x100032650, symSize: 0x128 }
  - { offsetInCU: 0x4E99, offset: 0xAA71A, size: 0x8, addend: 0x0, symName: __ZL14stbi__bitcountj, symObjAddr: 0xC87C, symBinAddr: 0x100032778, symSize: 0x80 }
  - { offsetInCU: 0x4EC8, offset: 0xAA749, size: 0x8, addend: 0x0, symName: __ZL27stbi__bmp_set_mask_defaultsP14stbi__bmp_datai, symObjAddr: 0xCA40, symBinAddr: 0x10003293C, symSize: 0x11C }
  - { offsetInCU: 0x4F06, offset: 0xAA787, size: 0x8, addend: 0x0, symName: __ZL18stbi__gif_test_rawP13stbi__context, symObjAddr: 0xCB5C, symBinAddr: 0x100032A58, symSize: 0x108 }
  - { offsetInCU: 0x4F44, offset: 0xAA7C5, size: 0x8, addend: 0x0, symName: __ZL19stbi__gif_load_nextP13stbi__contextP9stbi__gifPiiPh, symObjAddr: 0xCC64, symBinAddr: 0x100032B60, symSize: 0xA60 }
  - { offsetInCU: 0x5094, offset: 0xAA915, size: 0x8, addend: 0x0, symName: __ZL16stbi__gif_headerP13stbi__contextP9stbi__gifPii, symObjAddr: 0xD6C4, symBinAddr: 0x1000335C0, symSize: 0x24C }
  - { offsetInCU: 0x50FF, offset: 0xAA980, size: 0x8, addend: 0x0, symName: __ZL26stbi__gif_parse_colortableP13stbi__contextPA4_hii, symObjAddr: 0xD910, symBinAddr: 0x10003380C, symSize: 0xD8 }
  - { offsetInCU: 0x5166, offset: 0xAA9E7, size: 0x8, addend: 0x0, symName: __ZL24stbi__process_gif_rasterP13stbi__contextP9stbi__gif, symObjAddr: 0xD9E8, symBinAddr: 0x1000338E4, symSize: 0x4E4 }
  - { offsetInCU: 0x5276, offset: 0xAAAF7, size: 0x8, addend: 0x0, symName: __ZL18stbi__out_gif_codeP9stbi__gift, symObjAddr: 0xDECC, symBinAddr: 0x100033DC8, symSize: 0x2B0 }
  - { offsetInCU: 0x52DD, offset: 0xAAB5E, size: 0x8, addend: 0x0, symName: __ZL20stbi__psd_decode_rleP13stbi__contextPhi, symObjAddr: 0xE17C, symBinAddr: 0x100034078, symSize: 0x1CC }
  - { offsetInCU: 0x5375, offset: 0xAABF6, size: 0x8, addend: 0x0, symName: __ZL19stbi__pic_test_coreP13stbi__context, symObjAddr: 0xE348, symBinAddr: 0x100034244, symSize: 0xB4 }
  - { offsetInCU: 0x53B3, offset: 0xAAC34, size: 0x8, addend: 0x0, symName: __ZL13stbi__pic_is4P13stbi__contextPKc, symObjAddr: 0xE3FC, symBinAddr: 0x1000342F8, symSize: 0x8C }
  - { offsetInCU: 0x5400, offset: 0xAAC81, size: 0x8, addend: 0x0, symName: __ZL12stbi__at_eofP13stbi__context, symObjAddr: 0xE488, symBinAddr: 0x100034384, symSize: 0xB0 }
  - { offsetInCU: 0x542F, offset: 0xAACB0, size: 0x8, addend: 0x0, symName: __ZL19stbi__pic_load_coreP13stbi__contextiiPiPh, symObjAddr: 0xE538, symBinAddr: 0x100034434, symSize: 0x708 }
  - { offsetInCU: 0x562E, offset: 0xAAEAF, size: 0x8, addend: 0x0, symName: __ZL13stbi__readvalP13stbi__contextiPh, symObjAddr: 0xEC40, symBinAddr: 0x100034B3C, symSize: 0xEC }
  - { offsetInCU: 0x5699, offset: 0xAAF1A, size: 0x8, addend: 0x0, symName: __ZL13stbi__copyvaliPhPKh, symObjAddr: 0xED2C, symBinAddr: 0x100034C28, symSize: 0x98 }
  - { offsetInCU: 0x5700, offset: 0xAAF81, size: 0x8, addend: 0x0, symName: __ZL16stbi__setup_jpegP10stbi__jpeg, symObjAddr: 0xEDC4, symBinAddr: 0x100034CC0, symSize: 0x40 }
  - { offsetInCU: 0x572B, offset: 0xAAFAC, size: 0x8, addend: 0x0, symName: __ZL24stbi__decode_jpeg_headerP10stbi__jpegi, symObjAddr: 0xEE04, symBinAddr: 0x100034D00, symSize: 0x1FC }
  - { offsetInCU: 0x5778, offset: 0xAAFF9, size: 0x8, addend: 0x0, symName: __ZL16stbi__idct_blockPhiPs, symObjAddr: 0xF000, symBinAddr: 0x100034EFC, symSize: 0x8DC }
  - { offsetInCU: 0x59E6, offset: 0xAB267, size: 0x8, addend: 0x0, symName: __ZL22stbi__YCbCr_to_RGB_rowPhPKhS1_S1_ii, symObjAddr: 0xF8DC, symBinAddr: 0x1000357D8, symSize: 0x228 }
  - { offsetInCU: 0x5AD6, offset: 0xAB357, size: 0x8, addend: 0x0, symName: __ZL23stbi__resample_row_hv_2PhS_S_ii, symObjAddr: 0xFB04, symBinAddr: 0x100035A00, symSize: 0x194 }
  - { offsetInCU: 0x5B6E, offset: 0xAB3EF, size: 0x8, addend: 0x0, symName: __ZL11stbi__clampi, symObjAddr: 0xFC98, symBinAddr: 0x100035B94, symSize: 0x74 }
  - { offsetInCU: 0x5B9D, offset: 0xAB41E, size: 0x8, addend: 0x0, symName: __ZL16stbi__get_markerP10stbi__jpeg, symObjAddr: 0xFD0C, symBinAddr: 0x100035C08, symSize: 0xD4 }
  - { offsetInCU: 0x5BDB, offset: 0xAB45C, size: 0x8, addend: 0x0, symName: __ZL19stbi__build_huffmanP13stbi__huffmanPi, symObjAddr: 0x11268, symBinAddr: 0x100037164, symSize: 0x344 }
  - { offsetInCU: 0x5CA0, offset: 0xAB521, size: 0x8, addend: 0x0, symName: __ZL19stbi__build_fast_acPsP13stbi__huffman, symObjAddr: 0x115AC, symBinAddr: 0x1000374A8, symSize: 0x1C0 }
  - { offsetInCU: 0x5D7F, offset: 0xAB600, size: 0x8, addend: 0x0, symName: __ZL26stbi__free_jpeg_componentsP10stbi__jpegii, symObjAddr: 0x1176C, symBinAddr: 0x100037668, symSize: 0x20C }
  - { offsetInCU: 0x5DDB, offset: 0xAB65C, size: 0x8, addend: 0x0, symName: __ZL15load_jpeg_imageP10stbi__jpegPiS1_S1_i, symObjAddr: 0x11978, symBinAddr: 0x100037874, symSize: 0x10C8 }
  - { offsetInCU: 0x6021, offset: 0xAB8A2, size: 0x8, addend: 0x0, symName: __ZL23stbi__decode_jpeg_imageP10stbi__jpeg, symObjAddr: 0x12A40, symBinAddr: 0x10003893C, symSize: 0x2D4 }
  - { offsetInCU: 0x608C, offset: 0xAB90D, size: 0x8, addend: 0x0, symName: __ZL18stbi__cleanup_jpegP10stbi__jpeg, symObjAddr: 0x12D14, symBinAddr: 0x100038C10, symSize: 0x34 }
  - { offsetInCU: 0x60B7, offset: 0xAB938, size: 0x8, addend: 0x0, symName: __ZL14resample_row_1PhS_S_ii, symObjAddr: 0x12D48, symBinAddr: 0x100038C44, symSize: 0x24 }
  - { offsetInCU: 0x6122, offset: 0xAB9A3, size: 0x8, addend: 0x0, symName: __ZL22stbi__resample_row_v_2PhS_S_ii, symObjAddr: 0x12D6C, symBinAddr: 0x100038C68, symSize: 0x90 }
  - { offsetInCU: 0x619C, offset: 0xABA1D, size: 0x8, addend: 0x0, symName: __ZL22stbi__resample_row_h_2PhS_S_ii, symObjAddr: 0x12DFC, symBinAddr: 0x100038CF8, symSize: 0x1D8 }
  - { offsetInCU: 0x6243, offset: 0xABAC4, size: 0x8, addend: 0x0, symName: __ZL26stbi__resample_row_genericPhS_S_ii, symObjAddr: 0x12FD4, symBinAddr: 0x100038ED0, symSize: 0xBC }
  - { offsetInCU: 0x62CC, offset: 0xABB4D, size: 0x8, addend: 0x0, symName: __ZL15stbi__blinn_8x8hh, symObjAddr: 0x13090, symBinAddr: 0x100038F8C, symSize: 0x3C }
  - { offsetInCU: 0x6319, offset: 0xABB9A, size: 0x8, addend: 0x0, symName: __ZL25stbi__process_scan_headerP10stbi__jpeg, symObjAddr: 0x130CC, symBinAddr: 0x100038FC8, symSize: 0x4B4 }
  - { offsetInCU: 0x63C0, offset: 0xABC41, size: 0x8, addend: 0x0, symName: __ZL30stbi__parse_entropy_coded_dataP10stbi__jpeg, symObjAddr: 0x13580, symBinAddr: 0x10003947C, symSize: 0xD14 }
  - { offsetInCU: 0x669B, offset: 0xABF1C, size: 0x8, addend: 0x0, symName: __ZL27stbi__skip_jpeg_junk_at_endP10stbi__jpeg, symObjAddr: 0x14294, symBinAddr: 0x10003A190, symSize: 0xE8 }
  - { offsetInCU: 0x66E8, offset: 0xABF69, size: 0x8, addend: 0x0, symName: __ZL17stbi__jpeg_finishP10stbi__jpeg, symObjAddr: 0x1437C, symBinAddr: 0x10003A278, symSize: 0x23C }
  - { offsetInCU: 0x679A, offset: 0xAC01B, size: 0x8, addend: 0x0, symName: __ZL16stbi__jpeg_resetP10stbi__jpeg, symObjAddr: 0x145B8, symBinAddr: 0x10003A4B4, symSize: 0xD8 }
  - { offsetInCU: 0x67C5, offset: 0xAC046, size: 0x8, addend: 0x0, symName: __ZL23stbi__jpeg_decode_blockP10stbi__jpegPsP13stbi__huffmanS3_S1_iPt, symObjAddr: 0x14690, symBinAddr: 0x10003A58C, symSize: 0x430 }
  - { offsetInCU: 0x68EA, offset: 0xAC16B, size: 0x8, addend: 0x0, symName: __ZL24stbi__grow_buffer_unsafeP10stbi__jpeg, symObjAddr: 0x14AC0, symBinAddr: 0x10003A9BC, symSize: 0x164 }
  - { offsetInCU: 0x6948, offset: 0xAC1C9, size: 0x8, addend: 0x0, symName: __ZL31stbi__jpeg_decode_block_prog_dcP10stbi__jpegPsP13stbi__huffmani, symObjAddr: 0x14C24, symBinAddr: 0x10003AB20, symSize: 0x284 }
  - { offsetInCU: 0x69D1, offset: 0xAC252, size: 0x8, addend: 0x0, symName: __ZL31stbi__jpeg_decode_block_prog_acP10stbi__jpegPsP13stbi__huffmanS1_, symObjAddr: 0x14EA8, symBinAddr: 0x10003ADA4, symSize: 0x7AC }
  - { offsetInCU: 0x6B3E, offset: 0xAC3BF, size: 0x8, addend: 0x0, symName: __ZL22stbi__jpeg_huff_decodeP10stbi__jpegP13stbi__huffman, symObjAddr: 0x15654, symBinAddr: 0x10003B550, symSize: 0x334 }
  - { offsetInCU: 0x6BC7, offset: 0xAC448, size: 0x8, addend: 0x0, symName: __ZL20stbi__extend_receiveP10stbi__jpegi, symObjAddr: 0x15988, symBinAddr: 0x10003B884, symSize: 0x13C }
  - { offsetInCU: 0x6C23, offset: 0xAC4A4, size: 0x8, addend: 0x0, symName: __ZL19stbi__addints_validii, symObjAddr: 0x15AC4, symBinAddr: 0x10003B9C0, symSize: 0xC4 }
  - { offsetInCU: 0x6C61, offset: 0xAC4E2, size: 0x8, addend: 0x0, symName: __ZL22stbi__mul2shorts_validii, symObjAddr: 0x15B88, symBinAddr: 0x10003BA84, symSize: 0xFC }
  - { offsetInCU: 0x6C9F, offset: 0xAC520, size: 0x8, addend: 0x0, symName: __ZL18stbi__jpeg_get_bitP10stbi__jpeg, symObjAddr: 0x15C84, symBinAddr: 0x10003BB80, symSize: 0xB8 }
  - { offsetInCU: 0x6CDD, offset: 0xAC55E, size: 0x8, addend: 0x0, symName: __ZL19stbi__jpeg_get_bitsP10stbi__jpegi, symObjAddr: 0x15D3C, symBinAddr: 0x10003BC38, symSize: 0x10C }
  - { offsetInCU: 0x6D2A, offset: 0xAC5AB, size: 0x8, addend: 0x0, symName: __ZL21stbi__jpeg_dequantizePsPt, symObjAddr: 0x15E48, symBinAddr: 0x10003BD44, symSize: 0x68 }
  - { offsetInCU: 0x6D73, offset: 0xAC5F4, size: 0x8, addend: 0x0, symName: __ZL14stbi__pnm_infoP13stbi__contextPiS1_S1_, symObjAddr: 0x15EB0, symBinAddr: 0x10003BDAC, symSize: 0x23C }
  - { offsetInCU: 0x6E1A, offset: 0xAC69B, size: 0x8, addend: 0x0, symName: __ZL21stbi__mad4sizes_validiiiii, symObjAddr: 0x160EC, symBinAddr: 0x10003BFE8, symSize: 0xEC }
  - { offsetInCU: 0x6E85, offset: 0xAC706, size: 0x8, addend: 0x0, symName: __ZL17stbi__malloc_mad4iiiii, symObjAddr: 0x161D8, symBinAddr: 0x10003C0D4, symSize: 0x98 }
  - { offsetInCU: 0x6EF0, offset: 0xAC771, size: 0x8, addend: 0x0, symName: __ZL25stbi__pnm_skip_whitespaceP13stbi__contextPc, symObjAddr: 0x16270, symBinAddr: 0x10003C16C, symSize: 0x138 }
  - { offsetInCU: 0x6F2A, offset: 0xAC7AB, size: 0x8, addend: 0x0, symName: __ZL20stbi__pnm_getintegerP13stbi__contextPc, symObjAddr: 0x163A8, symBinAddr: 0x10003C2A4, symSize: 0x118 }
  - { offsetInCU: 0x6F77, offset: 0xAC7F8, size: 0x8, addend: 0x0, symName: __ZL17stbi__pnm_isspacec, symObjAddr: 0x164C0, symBinAddr: 0x10003C3BC, symSize: 0xB8 }
  - { offsetInCU: 0x6FA6, offset: 0xAC827, size: 0x8, addend: 0x0, symName: __ZL17stbi__pnm_isdigitc, symObjAddr: 0x16578, symBinAddr: 0x10003C474, symSize: 0x48 }
  - { offsetInCU: 0x6FD5, offset: 0xAC856, size: 0x8, addend: 0x0, symName: __ZL18stbi__hdr_gettokenP13stbi__contextPc, symObjAddr: 0x165C0, symBinAddr: 0x10003C4BC, symSize: 0x124 }
  - { offsetInCU: 0x7031, offset: 0xAC8B2, size: 0x8, addend: 0x0, symName: __ZL17stbi__hdr_convertPfPhi, symObjAddr: 0x166E4, symBinAddr: 0x10003C5E0, symSize: 0x1D4 }
  - { offsetInCU: 0x7098, offset: 0xAC919, size: 0x8, addend: 0x0, symName: __Z5ldexpB8ue170006fi, symObjAddr: 0x168C8, symBinAddr: 0x10003C7C4, symSize: 0x2C }
  - { offsetInCU: 0x70D5, offset: 0xAC956, size: 0x8, addend: 0x0, symName: __Z3powB8ue170006ff, symObjAddr: 0x168F4, symBinAddr: 0x10003C7F0, symSize: 0x2C }
  - { offsetInCU: 0x7112, offset: 0xAC993, size: 0x8, addend: 0x0, symName: __ZL18stbi__tga_get_compiiPi, symObjAddr: 0x16920, symBinAddr: 0x10003C81C, symSize: 0xEC }
  - { offsetInCU: 0x715F, offset: 0xAC9E0, size: 0x8, addend: 0x0, symName: __ZL20stbi__tga_read_rgb16P13stbi__contextPh, symObjAddr: 0x16A70, symBinAddr: 0x10003C96C, symSize: 0xA8 }
  - { offsetInCU: 0x71E4, offset: 0xACA65, size: 0x8, addend: 0x0, symName: __ZL21stbi__convert_8_to_16Phiii, symObjAddr: 0x16B18, symBinAddr: 0x10003CA14, symSize: 0x10C }
  - { offsetInCU: 0x726D, offset: 0xACAEE, size: 0x8, addend: 0x0, symName: __ZL23stbi__float_postprocessPfPiS0_S0_i, symObjAddr: 0x16C24, symBinAddr: 0x10003CB20, symSize: 0xE0 }
  - { offsetInCU: 0x72F2, offset: 0xACB73, size: 0x8, addend: 0x0, symName: __ZL16stbi__ldr_to_hdrPhiii, symObjAddr: 0x16D04, symBinAddr: 0x10003CC00, symSize: 0x260 }
  - { offsetInCU: 0x738A, offset: 0xACC0B, size: 0x8, addend: 0x0, symName: __ZL16stbi__parse_zlibP10stbi__zbufi, symObjAddr: 0x16F64, symBinAddr: 0x10003CE60, symSize: 0x1D4 }
  - { offsetInCU: 0x73E6, offset: 0xACC67, size: 0x8, addend: 0x0, symName: __ZL23stbi__parse_zlib_headerP10stbi__zbuf, symObjAddr: 0x17138, symBinAddr: 0x10003D034, symSize: 0x114 }
  - { offsetInCU: 0x7442, offset: 0xACCC3, size: 0x8, addend: 0x0, symName: __ZL14stbi__zreceiveP10stbi__zbufi, symObjAddr: 0x1724C, symBinAddr: 0x10003D148, symSize: 0x94 }
  - { offsetInCU: 0x748F, offset: 0xACD10, size: 0x8, addend: 0x0, symName: __ZL30stbi__parse_uncompressed_blockP10stbi__zbuf, symObjAddr: 0x172E0, symBinAddr: 0x10003D1DC, symSize: 0x24C }
  - { offsetInCU: 0x74FA, offset: 0xACD7B, size: 0x8, addend: 0x0, symName: __ZL20stbi__zbuild_huffmanP14stbi__zhuffmanPKhi, symObjAddr: 0x1752C, symBinAddr: 0x10003D428, symSize: 0x3E8 }
  - { offsetInCU: 0x75FD, offset: 0xACE7E, size: 0x8, addend: 0x0, symName: __ZL25stbi__parse_huffman_blockP10stbi__zbuf, symObjAddr: 0x17CE4, symBinAddr: 0x10003DBE0, symSize: 0x418 }
  - { offsetInCU: 0x76B3, offset: 0xACF34, size: 0x8, addend: 0x0, symName: __ZL11stbi__zget8P10stbi__zbuf, symObjAddr: 0x180FC, symBinAddr: 0x10003DFF8, symSize: 0x64 }
  - { offsetInCU: 0x76E2, offset: 0xACF63, size: 0x8, addend: 0x0, symName: __ZL10stbi__zeofP10stbi__zbuf, symObjAddr: 0x18160, symBinAddr: 0x10003E05C, symSize: 0x2C }
  - { offsetInCU: 0x7711, offset: 0xACF92, size: 0x8, addend: 0x0, symName: __ZL15stbi__fill_bitsP10stbi__zbuf, symObjAddr: 0x1818C, symBinAddr: 0x10003E088, symSize: 0xB0 }
  - { offsetInCU: 0x773C, offset: 0xACFBD, size: 0x8, addend: 0x0, symName: __ZL13stbi__zexpandP10stbi__zbufPci, symObjAddr: 0x1823C, symBinAddr: 0x10003E138, symSize: 0x1AC }
  - { offsetInCU: 0x77C5, offset: 0xAD046, size: 0x8, addend: 0x0, symName: __ZL17stbi__bit_reverseii, symObjAddr: 0x183E8, symBinAddr: 0x10003E2E4, symSize: 0x70 }
  - { offsetInCU: 0x7803, offset: 0xAD084, size: 0x8, addend: 0x0, symName: __ZL18stbi__bitreverse16i, symObjAddr: 0x18458, symBinAddr: 0x10003E354, symSize: 0x98 }
  - { offsetInCU: 0x7832, offset: 0xAD0B3, size: 0x8, addend: 0x0, symName: __ZL21stbi__zhuffman_decodeP10stbi__zbufP14stbi__zhuffman, symObjAddr: 0x184F0, symBinAddr: 0x10003E3EC, symSize: 0x130 }
  - { offsetInCU: 0x788E, offset: 0xAD10F, size: 0x8, addend: 0x0, symName: __ZL30stbi__zhuffman_decode_slowpathP10stbi__zbufP14stbi__zhuffman, symObjAddr: 0x18620, symBinAddr: 0x10003E51C, symSize: 0x170 }
  - { offsetInCU: 0x78F9, offset: 0xAD17A, size: 0x8, addend: 0x0, symName: __ZL28stbi__load_gif_main_outofmemP9stbi__gifPhPPi, symObjAddr: 0x18790, symBinAddr: 0x10003E68C, symSize: 0xC8 }
  - { offsetInCU: 0x7946, offset: 0xAD1C7, size: 0x8, addend: 0x0, symName: __ZL19stbi__hdr_test_coreP13stbi__contextPKc, symObjAddr: 0x18858, symBinAddr: 0x10003E754, symSize: 0xA0 }
  - { offsetInCU: 0x7993, offset: 0xAD214, size: 0x8, addend: 0x0, symName: __ZL15stbi__jpeg_infoP13stbi__contextPiS1_S1_, symObjAddr: 0x188F8, symBinAddr: 0x10003E7F4, symSize: 0xA4 }
  - { offsetInCU: 0x7A0D, offset: 0xAD28E, size: 0x8, addend: 0x0, symName: __ZL14stbi__png_infoP13stbi__contextPiS1_S1_, symObjAddr: 0x1899C, symBinAddr: 0x10003E898, symSize: 0x44 }
  - { offsetInCU: 0x7A78, offset: 0xAD2F9, size: 0x8, addend: 0x0, symName: __ZL14stbi__gif_infoP13stbi__contextPiS1_S1_, symObjAddr: 0x189E0, symBinAddr: 0x10003E8DC, symSize: 0x3C }
  - { offsetInCU: 0x7AD4, offset: 0xAD355, size: 0x8, addend: 0x0, symName: __ZL14stbi__bmp_infoP13stbi__contextPiS1_S1_, symObjAddr: 0x18A1C, symBinAddr: 0x10003E918, symSize: 0x144 }
  - { offsetInCU: 0x7B4E, offset: 0xAD3CF, size: 0x8, addend: 0x0, symName: __ZL14stbi__psd_infoP13stbi__contextPiS1_S1_, symObjAddr: 0x18B60, symBinAddr: 0x10003EA5C, symSize: 0x1D8 }
  - { offsetInCU: 0x7BD7, offset: 0xAD458, size: 0x8, addend: 0x0, symName: __ZL14stbi__pic_infoP13stbi__contextPiS1_S1_, symObjAddr: 0x18D38, symBinAddr: 0x10003EC34, symSize: 0x2E4 }
  - { offsetInCU: 0x7C93, offset: 0xAD514, size: 0x8, addend: 0x0, symName: __ZL14stbi__hdr_infoP13stbi__contextPiS1_S1_, symObjAddr: 0x1901C, symBinAddr: 0x10003EF18, symSize: 0x28C }
  - { offsetInCU: 0x7D2C, offset: 0xAD5AD, size: 0x8, addend: 0x0, symName: __ZL14stbi__tga_infoP13stbi__contextPiS1_S1_, symObjAddr: 0x192A8, symBinAddr: 0x10003F1A4, symSize: 0x3AC }
  - { offsetInCU: 0x7E00, offset: 0xAD681, size: 0x8, addend: 0x0, symName: __ZL19stbi__jpeg_info_rawP10stbi__jpegPiS1_S1_, symObjAddr: 0x19654, symBinAddr: 0x10003F550, symSize: 0x104 }
  - { offsetInCU: 0x7E5C, offset: 0xAD6DD, size: 0x8, addend: 0x0, symName: __ZL18stbi__png_info_rawP9stbi__pngPiS1_S1_, symObjAddr: 0x19758, symBinAddr: 0x10003F654, symSize: 0xF0 }
  - { offsetInCU: 0x7EB8, offset: 0xAD739, size: 0x8, addend: 0x0, symName: __ZL18stbi__gif_info_rawP13stbi__contextPiS1_S1_, symObjAddr: 0x19848, symBinAddr: 0x10003F744, symSize: 0x100 }
  - { offsetInCU: 0x7F23, offset: 0xAD7A4, size: 0x8, addend: 0x0, symName: __ZL14stbi__png_is16P13stbi__context, symObjAddr: 0x19948, symBinAddr: 0x10003F844, symSize: 0x84 }
  - { offsetInCU: 0x7F61, offset: 0xAD7E2, size: 0x8, addend: 0x0, symName: __ZL14stbi__psd_is16P13stbi__context, symObjAddr: 0x199CC, symBinAddr: 0x10003F8C8, symSize: 0x104 }
  - { offsetInCU: 0x7FAE, offset: 0xAD82F, size: 0x8, addend: 0x0, symName: __ZL14stbi__pnm_is16P13stbi__context, symObjAddr: 0x19AD0, symBinAddr: 0x10003F9CC, symSize: 0x58 }
  - { offsetInCU: 0x26, offset: 0xADCE5, size: 0x8, addend: 0x0, symName: _stbi_flip_vertically_on_write, symObjAddr: 0x0, symBinAddr: 0x10003FA24, symSize: 0x1C }
  - { offsetInCU: 0x3F, offset: 0xADCFE, size: 0x8, addend: 0x0, symName: _stbi_write_png_compression_level, symObjAddr: 0x68DC, symBinAddr: 0x1000DDA28, symSize: 0x0 }
  - { offsetInCU: 0x5B, offset: 0xADD1A, size: 0x8, addend: 0x0, symName: _stbi_write_tga_with_rle, symObjAddr: 0x68E0, symBinAddr: 0x1000DDA2C, symSize: 0x0 }
  - { offsetInCU: 0x70, offset: 0xADD2F, size: 0x8, addend: 0x0, symName: _stbi_write_force_png_filter, symObjAddr: 0x68E4, symBinAddr: 0x1000DDA30, symSize: 0x0 }
  - { offsetInCU: 0x79, offset: 0xADD38, size: 0x8, addend: 0x0, symName: _stbi_zlib_compress, symObjAddr: 0x1004, symBinAddr: 0x100040A28, symSize: 0x1300 }
  - { offsetInCU: 0xA1, offset: 0xADD60, size: 0x8, addend: 0x0, symName: __ZZ18stbi_zlib_compressE7lengthc, symObjAddr: 0x68E8, symBinAddr: 0x1000DDA34, symSize: 0x0 }
  - { offsetInCU: 0xB8, offset: 0xADD77, size: 0x8, addend: 0x0, symName: __ZZ18stbi_zlib_compressE8lengtheb, symObjAddr: 0x6924, symBinAddr: 0x1000DDA70, symSize: 0x0 }
  - { offsetInCU: 0xCF, offset: 0xADD8E, size: 0x8, addend: 0x0, symName: __ZZ18stbi_zlib_compressE5distc, symObjAddr: 0x6942, symBinAddr: 0x1000DDA8E, symSize: 0x0 }
  - { offsetInCU: 0xE6, offset: 0xADDA5, size: 0x8, addend: 0x0, symName: __ZZ18stbi_zlib_compressE6disteb, symObjAddr: 0x6980, symBinAddr: 0x1000DDACC, symSize: 0x0 }
  - { offsetInCU: 0x2F8, offset: 0xADFB7, size: 0x8, addend: 0x0, symName: __ZL30stbi__flip_vertically_on_write, symObjAddr: 0x11564, symBinAddr: 0x1000E2D2C, symSize: 0x0 }
  - { offsetInCU: 0x306, offset: 0xADFC5, size: 0x8, addend: 0x0, symName: __ZL22stbiw__encode_png_linePhiiiiiiPa, symObjAddr: 0x2E80, symBinAddr: 0x1000428A4, symSize: 0x638 }
  - { offsetInCU: 0x32E, offset: 0xADFED, size: 0x8, addend: 0x0, symName: __ZZL22stbiw__encode_png_linePhiiiiiiPaE7mapping, symObjAddr: 0x69A0, symBinAddr: 0x1000DDAEC, symSize: 0x0 }
  - { offsetInCU: 0x345, offset: 0xAE004, size: 0x8, addend: 0x0, symName: __ZZL22stbiw__encode_png_linePhiiiiiiPaE8firstmap, symObjAddr: 0x69B4, symBinAddr: 0x1000DDB00, symSize: 0x0 }
  - { offsetInCU: 0x420, offset: 0xAE0DF, size: 0x8, addend: 0x0, symName: __ZL12stbiw__crc32Phi, symObjAddr: 0x5CE0, symBinAddr: 0x100045704, symSize: 0x84 }
  - { offsetInCU: 0x44C, offset: 0xAE10B, size: 0x8, addend: 0x0, symName: __ZZL12stbiw__crc32PhiE9crc_table, symObjAddr: 0x69C8, symBinAddr: 0x1000DDB14, symSize: 0x0 }
  - { offsetInCU: 0x4A8, offset: 0xAE167, size: 0x8, addend: 0x0, symName: __ZL19stbi_write_jpg_coreP19stbi__write_contextiiiPKvi, symObjAddr: 0x37EC, symBinAddr: 0x100043210, symSize: 0x117C }
  - { offsetInCU: 0x4D4, offset: 0xAE193, size: 0x8, addend: 0x0, symName: __ZZL19stbi_write_jpg_coreP19stbi__write_contextiiiPKviE24std_dc_luminance_nrcodes, symObjAddr: 0x6F97, symBinAddr: 0x1000B7B63, symSize: 0x0 }
  - { offsetInCU: 0x4EB, offset: 0xAE1AA, size: 0x8, addend: 0x0, symName: __ZZL19stbi_write_jpg_coreP19stbi__write_contextiiiPKviE23std_dc_luminance_values, symObjAddr: 0x6FA8, symBinAddr: 0x1000B7B74, symSize: 0x0 }
  - { offsetInCU: 0x502, offset: 0xAE1C1, size: 0x8, addend: 0x0, symName: __ZZL19stbi_write_jpg_coreP19stbi__write_contextiiiPKviE24std_ac_luminance_nrcodes, symObjAddr: 0x6FB4, symBinAddr: 0x1000B7B80, symSize: 0x0 }
  - { offsetInCU: 0x519, offset: 0xAE1D8, size: 0x8, addend: 0x0, symName: __ZZL19stbi_write_jpg_coreP19stbi__write_contextiiiPKviE23std_ac_luminance_values, symObjAddr: 0x6FC5, symBinAddr: 0x1000B7B91, symSize: 0x0 }
  - { offsetInCU: 0x530, offset: 0xAE1EF, size: 0x8, addend: 0x0, symName: __ZZL19stbi_write_jpg_coreP19stbi__write_contextiiiPKviE26std_dc_chrominance_nrcodes, symObjAddr: 0x7067, symBinAddr: 0x1000B7C33, symSize: 0x0 }
  - { offsetInCU: 0x547, offset: 0xAE206, size: 0x8, addend: 0x0, symName: __ZZL19stbi_write_jpg_coreP19stbi__write_contextiiiPKviE25std_dc_chrominance_values, symObjAddr: 0x7078, symBinAddr: 0x1000B7C44, symSize: 0x0 }
  - { offsetInCU: 0x55E, offset: 0xAE21D, size: 0x8, addend: 0x0, symName: __ZZL19stbi_write_jpg_coreP19stbi__write_contextiiiPKviE26std_ac_chrominance_nrcodes, symObjAddr: 0x7084, symBinAddr: 0x1000B7C50, symSize: 0x0 }
  - { offsetInCU: 0x575, offset: 0xAE234, size: 0x8, addend: 0x0, symName: __ZZL19stbi_write_jpg_coreP19stbi__write_contextiiiPKviE25std_ac_chrominance_values, symObjAddr: 0x7095, symBinAddr: 0x1000B7C61, symSize: 0x0 }
  - { offsetInCU: 0x58C, offset: 0xAE24B, size: 0x8, addend: 0x0, symName: __ZZL19stbi_write_jpg_coreP19stbi__write_contextiiiPKviE6YDC_HT, symObjAddr: 0x7138, symBinAddr: 0x1000B7D04, symSize: 0x0 }
  - { offsetInCU: 0x5A3, offset: 0xAE262, size: 0x8, addend: 0x0, symName: __ZZL19stbi_write_jpg_coreP19stbi__write_contextiiiPKviE7UVDC_HT, symObjAddr: 0x7538, symBinAddr: 0x1000B8104, symSize: 0x0 }
  - { offsetInCU: 0x5BA, offset: 0xAE279, size: 0x8, addend: 0x0, symName: __ZZL19stbi_write_jpg_coreP19stbi__write_contextiiiPKviE6YAC_HT, symObjAddr: 0x7938, symBinAddr: 0x1000B8504, symSize: 0x0 }
  - { offsetInCU: 0x5D1, offset: 0xAE290, size: 0x8, addend: 0x0, symName: __ZZL19stbi_write_jpg_coreP19stbi__write_contextiiiPKviE7UVAC_HT, symObjAddr: 0x7D38, symBinAddr: 0x1000B8904, symSize: 0x0 }
  - { offsetInCU: 0x5E8, offset: 0xAE2A7, size: 0x8, addend: 0x0, symName: __ZZL19stbi_write_jpg_coreP19stbi__write_contextiiiPKviE3YQT, symObjAddr: 0x8138, symBinAddr: 0x1000B8D04, symSize: 0x0 }
  - { offsetInCU: 0x5FF, offset: 0xAE2BE, size: 0x8, addend: 0x0, symName: __ZZL19stbi_write_jpg_coreP19stbi__write_contextiiiPKviE4UVQT, symObjAddr: 0x8238, symBinAddr: 0x1000B8E04, symSize: 0x0 }
  - { offsetInCU: 0x616, offset: 0xAE2D5, size: 0x8, addend: 0x0, symName: __ZZL19stbi_write_jpg_coreP19stbi__write_contextiiiPKviE4aasf, symObjAddr: 0x8338, symBinAddr: 0x1000B8F04, symSize: 0x0 }
  - { offsetInCU: 0x62D, offset: 0xAE2EC, size: 0x8, addend: 0x0, symName: __ZZL19stbi_write_jpg_coreP19stbi__write_contextiiiPKviE5head0, symObjAddr: 0x8398, symBinAddr: 0x1000B8F64, symSize: 0x0 }
  - { offsetInCU: 0x644, offset: 0xAE303, size: 0x8, addend: 0x0, symName: __ZZL19stbi_write_jpg_coreP19stbi__write_contextiiiPKviE5head2, symObjAddr: 0x83B1, symBinAddr: 0x1000B8F7D, symSize: 0x0 }
  - { offsetInCU: 0x65B, offset: 0xAE31A, size: 0x8, addend: 0x0, symName: __ZZL19stbi_write_jpg_coreP19stbi__write_contextiiiPKviE8fillBits, symObjAddr: 0x83C0, symBinAddr: 0x1000B8F8C, symSize: 0x0 }
  - { offsetInCU: 0xB07, offset: 0xAE7C6, size: 0x8, addend: 0x0, symName: __ZL17stbiw__jpg_ZigZag, symObjAddr: 0x8358, symBinAddr: 0x1000B8F24, symSize: 0x0 }
  - { offsetInCU: 0xDFB, offset: 0xAEABA, size: 0x8, addend: 0x0, symName: _stbi_flip_vertically_on_write, symObjAddr: 0x0, symBinAddr: 0x10003FA24, symSize: 0x1C }
  - { offsetInCU: 0xE22, offset: 0xAEAE1, size: 0x8, addend: 0x0, symName: _stbi_write_bmp_to_func, symObjAddr: 0x1C, symBinAddr: 0x10003FA40, symSize: 0xA8 }
  - { offsetInCU: 0xEA8, offset: 0xAEB67, size: 0x8, addend: 0x0, symName: __ZL27stbi__start_write_callbacksP19stbi__write_contextPFvPvS1_iES1_, symObjAddr: 0xC4, symBinAddr: 0x10003FAE8, symSize: 0x30 }
  - { offsetInCU: 0xEF1, offset: 0xAEBB0, size: 0x8, addend: 0x0, symName: __ZL19stbi_write_bmp_coreP19stbi__write_contextiiiPKv, symObjAddr: 0xF4, symBinAddr: 0x10003FB18, symSize: 0x25C }
  - { offsetInCU: 0xF7A, offset: 0xAEC39, size: 0x8, addend: 0x0, symName: _stbi_write_bmp, symObjAddr: 0x350, symBinAddr: 0x10003FD74, symSize: 0xDC }
  - { offsetInCU: 0x1010, offset: 0xAECCF, size: 0x8, addend: 0x0, symName: __ZL22stbi__start_write_fileP19stbi__write_contextPKc, symObjAddr: 0x42C, symBinAddr: 0x10003FE50, symSize: 0x58 }
  - { offsetInCU: 0x105D, offset: 0xAED1C, size: 0x8, addend: 0x0, symName: __ZL20stbi__end_write_fileP19stbi__write_context, symObjAddr: 0x484, symBinAddr: 0x10003FEA8, symSize: 0x28 }
  - { offsetInCU: 0x1088, offset: 0xAED47, size: 0x8, addend: 0x0, symName: _stbi_write_tga_to_func, symObjAddr: 0x4AC, symBinAddr: 0x10003FED0, symSize: 0xA8 }
  - { offsetInCU: 0x110E, offset: 0xAEDCD, size: 0x8, addend: 0x0, symName: __ZL19stbi_write_tga_coreP19stbi__write_contextiiiPv, symObjAddr: 0x554, symBinAddr: 0x10003FF78, symSize: 0x618 }
  - { offsetInCU: 0x12C1, offset: 0xAEF80, size: 0x8, addend: 0x0, symName: _stbi_write_tga, symObjAddr: 0xB6C, symBinAddr: 0x100040590, symSize: 0xDC }
  - { offsetInCU: 0x1357, offset: 0xAF016, size: 0x8, addend: 0x0, symName: _stbi_write_hdr_to_func, symObjAddr: 0xC48, symBinAddr: 0x10004066C, symSize: 0xA8 }
  - { offsetInCU: 0x13DD, offset: 0xAF09C, size: 0x8, addend: 0x0, symName: __ZL19stbi_write_hdr_coreP19stbi__write_contextiiiPf, symObjAddr: 0xCF0, symBinAddr: 0x100040714, symSize: 0x238 }
  - { offsetInCU: 0x14AC, offset: 0xAF16B, size: 0x8, addend: 0x0, symName: _stbi_write_hdr, symObjAddr: 0xF28, symBinAddr: 0x10004094C, symSize: 0xDC }
  - { offsetInCU: 0x1542, offset: 0xAF201, size: 0x8, addend: 0x0, symName: __ZL14stbiw__sbgrowfPPvii, symObjAddr: 0x2304, symBinAddr: 0x100041D28, symSize: 0x170 }
  - { offsetInCU: 0x15AD, offset: 0xAF26C, size: 0x8, addend: 0x0, symName: __ZL18stbiw__zlib_flushfPhPjPi, symObjAddr: 0x2474, symBinAddr: 0x100041E98, symSize: 0xDC }
  - { offsetInCU: 0x15FA, offset: 0xAF2B9, size: 0x8, addend: 0x0, symName: __ZL12stbiw__zhashPh, symObjAddr: 0x2550, symBinAddr: 0x100041F74, symSize: 0x98 }
  - { offsetInCU: 0x1638, offset: 0xAF2F7, size: 0x8, addend: 0x0, symName: __ZL18stbiw__zlib_countmPhS_i, symObjAddr: 0x25E8, symBinAddr: 0x10004200C, symSize: 0xA4 }
  - { offsetInCU: 0x1694, offset: 0xAF353, size: 0x8, addend: 0x0, symName: __ZL18stbiw__zlib_bitrevii, symObjAddr: 0x268C, symBinAddr: 0x1000420B0, symSize: 0x5C }
  - { offsetInCU: 0x16E1, offset: 0xAF3A0, size: 0x8, addend: 0x0, symName: _stbi_write_png_to_mem, symObjAddr: 0x26E8, symBinAddr: 0x10004210C, symSize: 0x798 }
  - { offsetInCU: 0x1863, offset: 0xAF522, size: 0x8, addend: 0x0, symName: __ZL12stbiw__wpcrcPPhi, symObjAddr: 0x34E8, symBinAddr: 0x100042F0C, symSize: 0xAC }
  - { offsetInCU: 0x18AC, offset: 0xAF56B, size: 0x8, addend: 0x0, symName: _stbi_write_png, symObjAddr: 0x3594, symBinAddr: 0x100042FB8, symSize: 0xD8 }
  - { offsetInCU: 0x194F, offset: 0xAF60E, size: 0x8, addend: 0x0, symName: __ZL12stbiw__fopenPKcS0_, symObjAddr: 0x366C, symBinAddr: 0x100043090, symSize: 0x34 }
  - { offsetInCU: 0x199C, offset: 0xAF65B, size: 0x8, addend: 0x0, symName: _stbi_write_png_to_func, symObjAddr: 0x36A0, symBinAddr: 0x1000430C4, symSize: 0x9C }
  - { offsetInCU: 0x1A3F, offset: 0xAF6FE, size: 0x8, addend: 0x0, symName: _stbi_write_jpg_to_func, symObjAddr: 0x373C, symBinAddr: 0x100043160, symSize: 0xB0 }
  - { offsetInCU: 0x1AD4, offset: 0xAF793, size: 0x8, addend: 0x0, symName: _stbi_write_jpg, symObjAddr: 0x4968, symBinAddr: 0x10004438C, symSize: 0xE4 }
  - { offsetInCU: 0x1B79, offset: 0xAF838, size: 0x8, addend: 0x0, symName: __ZL14stbiw__outfileP19stbi__write_contextiiiiiiPviiPKcz, symObjAddr: 0x4A4C, symBinAddr: 0x100044470, symSize: 0xE4 }
  - { offsetInCU: 0x1C5D, offset: 0xAF91C, size: 0x8, addend: 0x0, symName: __ZL14stbiw__writefvP19stbi__write_contextPKcPc, symObjAddr: 0x4B30, symBinAddr: 0x100044554, symSize: 0x1AC }
  - { offsetInCU: 0x1D1E, offset: 0xAF9DD, size: 0x8, addend: 0x0, symName: __ZL19stbiw__write_pixelsP19stbi__write_contextiiiiiPviii, symObjAddr: 0x4D30, symBinAddr: 0x100044754, symSize: 0x19C }
  - { offsetInCU: 0x1E2A, offset: 0xAFAE9, size: 0x8, addend: 0x0, symName: __ZL18stbiw__write_pixelP19stbi__write_contextiiiiPh, symObjAddr: 0x4ECC, symBinAddr: 0x1000448F0, symSize: 0x234 }
  - { offsetInCU: 0x1ECD, offset: 0xAFB8C, size: 0x8, addend: 0x0, symName: __ZL18stbiw__write_flushP19stbi__write_context, symObjAddr: 0x5100, symBinAddr: 0x100044B24, symSize: 0x64 }
  - { offsetInCU: 0x1EF8, offset: 0xAFBB7, size: 0x8, addend: 0x0, symName: __ZL13stbiw__write1P19stbi__write_contexth, symObjAddr: 0x5164, symBinAddr: 0x100044B88, symSize: 0x70 }
  - { offsetInCU: 0x1F32, offset: 0xAFBF1, size: 0x8, addend: 0x0, symName: __ZL13stbiw__write3P19stbi__write_contexthhh, symObjAddr: 0x51D4, symBinAddr: 0x100044BF8, symSize: 0xC0 }
  - { offsetInCU: 0x1F99, offset: 0xAFC58, size: 0x8, addend: 0x0, symName: __ZL17stbi__stdio_writePvS_i, symObjAddr: 0x5294, symBinAddr: 0x100044CB8, symSize: 0x38 }
  - { offsetInCU: 0x1FE2, offset: 0xAFCA1, size: 0x8, addend: 0x0, symName: __ZL13stbiw__writefP19stbi__write_contextPKcz, symObjAddr: 0x52CC, symBinAddr: 0x100044CF0, symSize: 0x3C }
  - { offsetInCU: 0x202C, offset: 0xAFCEB, size: 0x8, addend: 0x0, symName: __ZL25stbiw__write_hdr_scanlineP19stbi__write_contextiiPhPf, symObjAddr: 0x5308, symBinAddr: 0x100044D2C, symSize: 0x5C4 }
  - { offsetInCU: 0x2156, offset: 0xAFE15, size: 0x8, addend: 0x0, symName: __ZL21stbiw__linear_to_rgbePhPf, symObjAddr: 0x58CC, symBinAddr: 0x1000452F0, symSize: 0x1B8 }
  - { offsetInCU: 0x21CC, offset: 0xAFE8B, size: 0x8, addend: 0x0, symName: __ZL22stbiw__write_dump_dataP19stbi__write_contextiPh, symObjAddr: 0x5A84, symBinAddr: 0x1000454A8, symSize: 0x9C }
  - { offsetInCU: 0x2224, offset: 0xAFEE3, size: 0x8, addend: 0x0, symName: __ZL21stbiw__write_run_dataP19stbi__write_contextih, symObjAddr: 0x5B20, symBinAddr: 0x100045544, symSize: 0xAC }
  - { offsetInCU: 0x227C, offset: 0xAFF3B, size: 0x8, addend: 0x0, symName: __Z5frexpB8ue170006fPi, symObjAddr: 0x5BCC, symBinAddr: 0x1000455F0, symSize: 0x2C }
  - { offsetInCU: 0x22B9, offset: 0xAFF78, size: 0x8, addend: 0x0, symName: __ZL12stbiw__paethiii, symObjAddr: 0x5BF8, symBinAddr: 0x10004561C, symSize: 0xE8 }
  - { offsetInCU: 0x2342, offset: 0xB0001, size: 0x8, addend: 0x0, symName: __ZL11stbiw__putcP19stbi__write_contexth, symObjAddr: 0x5D64, symBinAddr: 0x100045788, symSize: 0x40 }
  - { offsetInCU: 0x237C, offset: 0xB003B, size: 0x8, addend: 0x0, symName: __ZL20stbiw__jpg_processDUP19stbi__write_contextPiS1_PfiS2_iPA2_KtS5_, symObjAddr: 0x5DA4, symBinAddr: 0x1000457C8, symSize: 0x664 }
  - { offsetInCU: 0x2585, offset: 0xB0244, size: 0x8, addend: 0x0, symName: __ZL20stbiw__jpg_writeBitsP19stbi__write_contextPiS1_PKt, symObjAddr: 0x6408, symBinAddr: 0x100045E2C, symSize: 0x104 }
  - { offsetInCU: 0x2619, offset: 0xB02D8, size: 0x8, addend: 0x0, symName: __ZL14stbiw__jpg_DCTPfS_S_S_S_S_S_S_, symObjAddr: 0x650C, symBinAddr: 0x100045F30, symSize: 0x2E4 }
  - { offsetInCU: 0x2856, offset: 0xB0515, size: 0x8, addend: 0x0, symName: __ZL19stbiw__jpg_calcBitsiPt, symObjAddr: 0x67F0, symBinAddr: 0x100046214, symSize: 0xEC }
  - { offsetInCU: 0x47D3, offset: 0xB4E5D, size: 0x8, addend: 0x0, symName: __ZN7TextureC2EPKcS1_jjj, symObjAddr: 0x0, symBinAddr: 0x100046300, symSize: 0x1FC }
  - { offsetInCU: 0x488A, offset: 0xB4F14, size: 0x8, addend: 0x0, symName: __ZN7TextureC1EPKcS1_jjj, symObjAddr: 0x2C8, symBinAddr: 0x1000464FC, symSize: 0x54 }
  - { offsetInCU: 0x48FA, offset: 0xB4F84, size: 0x8, addend: 0x0, symName: __ZN7TextureC2EPhiiiPKcjjj, symObjAddr: 0x31C, symBinAddr: 0x100046550, symSize: 0x2D8 }
  - { offsetInCU: 0x4994, offset: 0xB501E, size: 0x8, addend: 0x0, symName: __ZNSt16invalid_argumentC1B8ue170006EPKc, symObjAddr: 0x5F4, symBinAddr: 0x100046828, symSize: 0x34 }
  - { offsetInCU: 0x49CB, offset: 0xB5055, size: 0x8, addend: 0x0, symName: __ZN7TextureC1EPhiiiPKcjjj, symObjAddr: 0x628, symBinAddr: 0x10004685C, symSize: 0x78 }
  - { offsetInCU: 0x4A65, offset: 0xB50EF, size: 0x8, addend: 0x0, symName: __ZN7Texture7texUnitER6ShaderPKcj, symObjAddr: 0x6A0, symBinAddr: 0x1000468D4, symSize: 0xBC }
  - { offsetInCU: 0x4AD1, offset: 0xB515B, size: 0x8, addend: 0x0, symName: __ZN7Texture4BindEv, symObjAddr: 0x75C, symBinAddr: 0x100046990, symSize: 0xB0 }
  - { offsetInCU: 0x4B05, offset: 0xB518F, size: 0x8, addend: 0x0, symName: __ZN7Texture6UnbindEv, symObjAddr: 0x80C, symBinAddr: 0x100046A40, symSize: 0x34 }
  - { offsetInCU: 0x4B2B, offset: 0xB51B5, size: 0x8, addend: 0x0, symName: __ZN7Texture6DeleteEv, symObjAddr: 0x840, symBinAddr: 0x100046A74, symSize: 0x34 }
  - { offsetInCU: 0x4B51, offset: 0xB51DB, size: 0x8, addend: 0x0, symName: __ZN7TextureC2Ev, symObjAddr: 0x874, symBinAddr: 0x100046AA8, symSize: 0x1C }
  - { offsetInCU: 0x4B7C, offset: 0xB5206, size: 0x8, addend: 0x0, symName: __ZN7TextureC1Ev, symObjAddr: 0x890, symBinAddr: 0x100046AC4, symSize: 0x2C }
  - { offsetInCU: 0x4BA6, offset: 0xB5230, size: 0x8, addend: 0x0, symName: __ZNSt16invalid_argumentC2B8ue170006EPKc, symObjAddr: 0x8BC, symBinAddr: 0x100046AF0, symSize: 0x4C }
  - { offsetInCU: 0x26, offset: 0xB5297, size: 0x8, addend: 0x0, symName: _gladLoadGL, symObjAddr: 0x0, symBinAddr: 0x100046B3C, symSize: 0x4C }
  - { offsetInCU: 0x3F, offset: 0xB52B0, size: 0x8, addend: 0x0, symName: _GLVersion, symObjAddr: 0x18908, symBinAddr: 0x1000DE740, symSize: 0x0 }
  - { offsetInCU: 0x7E, offset: 0xB52EF, size: 0x8, addend: 0x0, symName: _GLAD_GL_VERSION_1_0, symObjAddr: 0x18910, symBinAddr: 0x1000DE748, symSize: 0x0 }
  - { offsetInCU: 0x95, offset: 0xB5306, size: 0x8, addend: 0x0, symName: _GLAD_GL_VERSION_1_1, symObjAddr: 0x18914, symBinAddr: 0x1000DE74C, symSize: 0x0 }
  - { offsetInCU: 0xAC, offset: 0xB531D, size: 0x8, addend: 0x0, symName: _GLAD_GL_VERSION_1_2, symObjAddr: 0x18918, symBinAddr: 0x1000DE750, symSize: 0x0 }
  - { offsetInCU: 0xC3, offset: 0xB5334, size: 0x8, addend: 0x0, symName: _GLAD_GL_VERSION_1_3, symObjAddr: 0x1891C, symBinAddr: 0x1000DE754, symSize: 0x0 }
  - { offsetInCU: 0xDA, offset: 0xB534B, size: 0x8, addend: 0x0, symName: _GLAD_GL_VERSION_1_4, symObjAddr: 0x18920, symBinAddr: 0x1000DE758, symSize: 0x0 }
  - { offsetInCU: 0xF1, offset: 0xB5362, size: 0x8, addend: 0x0, symName: _GLAD_GL_VERSION_1_5, symObjAddr: 0x18924, symBinAddr: 0x1000DE75C, symSize: 0x0 }
  - { offsetInCU: 0x108, offset: 0xB5379, size: 0x8, addend: 0x0, symName: _GLAD_GL_VERSION_2_0, symObjAddr: 0x18928, symBinAddr: 0x1000DE760, symSize: 0x0 }
  - { offsetInCU: 0x11F, offset: 0xB5390, size: 0x8, addend: 0x0, symName: _GLAD_GL_VERSION_2_1, symObjAddr: 0x1892C, symBinAddr: 0x1000DE764, symSize: 0x0 }
  - { offsetInCU: 0x136, offset: 0xB53A7, size: 0x8, addend: 0x0, symName: _GLAD_GL_VERSION_3_0, symObjAddr: 0x18930, symBinAddr: 0x1000DE768, symSize: 0x0 }
  - { offsetInCU: 0x14D, offset: 0xB53BE, size: 0x8, addend: 0x0, symName: _GLAD_GL_VERSION_3_1, symObjAddr: 0x18934, symBinAddr: 0x1000DE76C, symSize: 0x0 }
  - { offsetInCU: 0x164, offset: 0xB53D5, size: 0x8, addend: 0x0, symName: _GLAD_GL_VERSION_3_2, symObjAddr: 0x18938, symBinAddr: 0x1000DE770, symSize: 0x0 }
  - { offsetInCU: 0x17B, offset: 0xB53EC, size: 0x8, addend: 0x0, symName: _GLAD_GL_VERSION_3_3, symObjAddr: 0x1893C, symBinAddr: 0x1000DE774, symSize: 0x0 }
  - { offsetInCU: 0x192, offset: 0xB5403, size: 0x8, addend: 0x0, symName: _glad_glActiveTexture, symObjAddr: 0x18940, symBinAddr: 0x1000DE778, symSize: 0x0 }
  - { offsetInCU: 0x1C9, offset: 0xB543A, size: 0x8, addend: 0x0, symName: _glad_glAttachShader, symObjAddr: 0x18948, symBinAddr: 0x1000DE780, symSize: 0x0 }
  - { offsetInCU: 0x1FE, offset: 0xB546F, size: 0x8, addend: 0x0, symName: _glad_glBeginConditionalRender, symObjAddr: 0x18950, symBinAddr: 0x1000DE788, symSize: 0x0 }
  - { offsetInCU: 0x233, offset: 0xB54A4, size: 0x8, addend: 0x0, symName: _glad_glBeginQuery, symObjAddr: 0x18958, symBinAddr: 0x1000DE790, symSize: 0x0 }
  - { offsetInCU: 0x268, offset: 0xB54D9, size: 0x8, addend: 0x0, symName: _glad_glBeginTransformFeedback, symObjAddr: 0x18960, symBinAddr: 0x1000DE798, symSize: 0x0 }
  - { offsetInCU: 0x28B, offset: 0xB54FC, size: 0x8, addend: 0x0, symName: _glad_glBindAttribLocation, symObjAddr: 0x18968, symBinAddr: 0x1000DE7A0, symSize: 0x0 }
  - { offsetInCU: 0x2E1, offset: 0xB5552, size: 0x8, addend: 0x0, symName: _glad_glBindBuffer, symObjAddr: 0x18970, symBinAddr: 0x1000DE7A8, symSize: 0x0 }
  - { offsetInCU: 0x304, offset: 0xB5575, size: 0x8, addend: 0x0, symName: _glad_glBindBufferBase, symObjAddr: 0x18978, symBinAddr: 0x1000DE7B0, symSize: 0x0 }
  - { offsetInCU: 0x33E, offset: 0xB55AF, size: 0x8, addend: 0x0, symName: _glad_glBindBufferRange, symObjAddr: 0x18980, symBinAddr: 0x1000DE7B8, symSize: 0x0 }
  - { offsetInCU: 0x39F, offset: 0xB5610, size: 0x8, addend: 0x0, symName: _glad_glBindFragDataLocation, symObjAddr: 0x18988, symBinAddr: 0x1000DE7C0, symSize: 0x0 }
  - { offsetInCU: 0x3C2, offset: 0xB5633, size: 0x8, addend: 0x0, symName: _glad_glBindFragDataLocationIndexed, symObjAddr: 0x18990, symBinAddr: 0x1000DE7C8, symSize: 0x0 }
  - { offsetInCU: 0x401, offset: 0xB5672, size: 0x8, addend: 0x0, symName: _glad_glBindFramebuffer, symObjAddr: 0x18998, symBinAddr: 0x1000DE7D0, symSize: 0x0 }
  - { offsetInCU: 0x424, offset: 0xB5695, size: 0x8, addend: 0x0, symName: _glad_glBindRenderbuffer, symObjAddr: 0x189A0, symBinAddr: 0x1000DE7D8, symSize: 0x0 }
  - { offsetInCU: 0x447, offset: 0xB56B8, size: 0x8, addend: 0x0, symName: _glad_glBindSampler, symObjAddr: 0x189A8, symBinAddr: 0x1000DE7E0, symSize: 0x0 }
  - { offsetInCU: 0x46A, offset: 0xB56DB, size: 0x8, addend: 0x0, symName: _glad_glBindTexture, symObjAddr: 0x189B0, symBinAddr: 0x1000DE7E8, symSize: 0x0 }
  - { offsetInCU: 0x48D, offset: 0xB56FE, size: 0x8, addend: 0x0, symName: _glad_glBindVertexArray, symObjAddr: 0x189B8, symBinAddr: 0x1000DE7F0, symSize: 0x0 }
  - { offsetInCU: 0x4BD, offset: 0xB572E, size: 0x8, addend: 0x0, symName: _glad_glBlendColor, symObjAddr: 0x189C0, symBinAddr: 0x1000DE7F8, symSize: 0x0 }
  - { offsetInCU: 0x519, offset: 0xB578A, size: 0x8, addend: 0x0, symName: _glad_glBlendEquation, symObjAddr: 0x189C8, symBinAddr: 0x1000DE800, symSize: 0x0 }
  - { offsetInCU: 0x53C, offset: 0xB57AD, size: 0x8, addend: 0x0, symName: _glad_glBlendEquationSeparate, symObjAddr: 0x189D0, symBinAddr: 0x1000DE808, symSize: 0x0 }
  - { offsetInCU: 0x571, offset: 0xB57E2, size: 0x8, addend: 0x0, symName: _glad_glBlendFunc, symObjAddr: 0x189D8, symBinAddr: 0x1000DE810, symSize: 0x0 }
  - { offsetInCU: 0x594, offset: 0xB5805, size: 0x8, addend: 0x0, symName: _glad_glBlendFuncSeparate, symObjAddr: 0x189E0, symBinAddr: 0x1000DE818, symSize: 0x0 }
  - { offsetInCU: 0x5D3, offset: 0xB5844, size: 0x8, addend: 0x0, symName: _glad_glBlitFramebuffer, symObjAddr: 0x189E8, symBinAddr: 0x1000DE820, symSize: 0x0 }
  - { offsetInCU: 0x646, offset: 0xB58B7, size: 0x8, addend: 0x0, symName: _glad_glBufferData, symObjAddr: 0x189F0, symBinAddr: 0x1000DE828, symSize: 0x0 }
  - { offsetInCU: 0x68B, offset: 0xB58FC, size: 0x8, addend: 0x0, symName: _glad_glBufferSubData, symObjAddr: 0x189F8, symBinAddr: 0x1000DE830, symSize: 0x0 }
  - { offsetInCU: 0x6CA, offset: 0xB593B, size: 0x8, addend: 0x0, symName: _glad_glCheckFramebufferStatus, symObjAddr: 0x18A00, symBinAddr: 0x1000DE838, symSize: 0x0 }
  - { offsetInCU: 0x6FD, offset: 0xB596E, size: 0x8, addend: 0x0, symName: _glad_glClampColor, symObjAddr: 0x18A08, symBinAddr: 0x1000DE840, symSize: 0x0 }
  - { offsetInCU: 0x720, offset: 0xB5991, size: 0x8, addend: 0x0, symName: _glad_glClear, symObjAddr: 0x18A10, symBinAddr: 0x1000DE848, symSize: 0x0 }
  - { offsetInCU: 0x750, offset: 0xB59C1, size: 0x8, addend: 0x0, symName: _glad_glClearBufferfi, symObjAddr: 0x18A18, symBinAddr: 0x1000DE850, symSize: 0x0 }
  - { offsetInCU: 0x78F, offset: 0xB5A00, size: 0x8, addend: 0x0, symName: _glad_glClearBufferfv, symObjAddr: 0x18A20, symBinAddr: 0x1000DE858, symSize: 0x0 }
  - { offsetInCU: 0x7D3, offset: 0xB5A44, size: 0x8, addend: 0x0, symName: _glad_glClearBufferiv, symObjAddr: 0x18A28, symBinAddr: 0x1000DE860, symSize: 0x0 }
  - { offsetInCU: 0x817, offset: 0xB5A88, size: 0x8, addend: 0x0, symName: _glad_glClearBufferuiv, symObjAddr: 0x18A30, symBinAddr: 0x1000DE868, symSize: 0x0 }
  - { offsetInCU: 0x85B, offset: 0xB5ACC, size: 0x8, addend: 0x0, symName: _glad_glClearColor, symObjAddr: 0x18A38, symBinAddr: 0x1000DE870, symSize: 0x0 }
  - { offsetInCU: 0x87E, offset: 0xB5AEF, size: 0x8, addend: 0x0, symName: _glad_glClearDepth, symObjAddr: 0x18A40, symBinAddr: 0x1000DE878, symSize: 0x0 }
  - { offsetInCU: 0x8C0, offset: 0xB5B31, size: 0x8, addend: 0x0, symName: _glad_glClearStencil, symObjAddr: 0x18A48, symBinAddr: 0x1000DE880, symSize: 0x0 }
  - { offsetInCU: 0x8F0, offset: 0xB5B61, size: 0x8, addend: 0x0, symName: _glad_glClientWaitSync, symObjAddr: 0x18A50, symBinAddr: 0x1000DE888, symSize: 0x0 }
  - { offsetInCU: 0x95F, offset: 0xB5BD0, size: 0x8, addend: 0x0, symName: _glad_glColorMask, symObjAddr: 0x18A58, symBinAddr: 0x1000DE890, symSize: 0x0 }
  - { offsetInCU: 0x9B0, offset: 0xB5C21, size: 0x8, addend: 0x0, symName: _glad_glColorMaski, symObjAddr: 0x18A60, symBinAddr: 0x1000DE898, symSize: 0x0 }
  - { offsetInCU: 0x9F4, offset: 0xB5C65, size: 0x8, addend: 0x0, symName: _glad_glColorP3ui, symObjAddr: 0x18A68, symBinAddr: 0x1000DE8A0, symSize: 0x0 }
  - { offsetInCU: 0xA17, offset: 0xB5C88, size: 0x8, addend: 0x0, symName: _glad_glColorP3uiv, symObjAddr: 0x18A70, symBinAddr: 0x1000DE8A8, symSize: 0x0 }
  - { offsetInCU: 0xA4C, offset: 0xB5CBD, size: 0x8, addend: 0x0, symName: _glad_glColorP4ui, symObjAddr: 0x18A78, symBinAddr: 0x1000DE8B0, symSize: 0x0 }
  - { offsetInCU: 0xA6F, offset: 0xB5CE0, size: 0x8, addend: 0x0, symName: _glad_glColorP4uiv, symObjAddr: 0x18A80, symBinAddr: 0x1000DE8B8, symSize: 0x0 }
  - { offsetInCU: 0xA92, offset: 0xB5D03, size: 0x8, addend: 0x0, symName: _glad_glCompileShader, symObjAddr: 0x18A88, symBinAddr: 0x1000DE8C0, symSize: 0x0 }
  - { offsetInCU: 0xAB5, offset: 0xB5D26, size: 0x8, addend: 0x0, symName: _glad_glCompressedTexImage1D, symObjAddr: 0x18A90, symBinAddr: 0x1000DE8C8, symSize: 0x0 }
  - { offsetInCU: 0xB0E, offset: 0xB5D7F, size: 0x8, addend: 0x0, symName: _glad_glCompressedTexImage2D, symObjAddr: 0x18A98, symBinAddr: 0x1000DE8D0, symSize: 0x0 }
  - { offsetInCU: 0xB61, offset: 0xB5DD2, size: 0x8, addend: 0x0, symName: _glad_glCompressedTexImage3D, symObjAddr: 0x18AA0, symBinAddr: 0x1000DE8D8, symSize: 0x0 }
  - { offsetInCU: 0xBB9, offset: 0xB5E2A, size: 0x8, addend: 0x0, symName: _glad_glCompressedTexSubImage1D, symObjAddr: 0x18AA8, symBinAddr: 0x1000DE8E0, symSize: 0x0 }
  - { offsetInCU: 0xC07, offset: 0xB5E78, size: 0x8, addend: 0x0, symName: _glad_glCompressedTexSubImage2D, symObjAddr: 0x18AB0, symBinAddr: 0x1000DE8E8, symSize: 0x0 }
  - { offsetInCU: 0xC5F, offset: 0xB5ED0, size: 0x8, addend: 0x0, symName: _glad_glCompressedTexSubImage3D, symObjAddr: 0x18AB8, symBinAddr: 0x1000DE8F0, symSize: 0x0 }
  - { offsetInCU: 0xCC1, offset: 0xB5F32, size: 0x8, addend: 0x0, symName: _glad_glCopyBufferSubData, symObjAddr: 0x18AC0, symBinAddr: 0x1000DE8F8, symSize: 0x0 }
  - { offsetInCU: 0xD05, offset: 0xB5F76, size: 0x8, addend: 0x0, symName: _glad_glCopyTexImage1D, symObjAddr: 0x18AC8, symBinAddr: 0x1000DE900, symSize: 0x0 }
  - { offsetInCU: 0xD53, offset: 0xB5FC4, size: 0x8, addend: 0x0, symName: _glad_glCopyTexImage2D, symObjAddr: 0x18AD0, symBinAddr: 0x1000DE908, symSize: 0x0 }
  - { offsetInCU: 0xDA6, offset: 0xB6017, size: 0x8, addend: 0x0, symName: _glad_glCopyTexSubImage1D, symObjAddr: 0x18AD8, symBinAddr: 0x1000DE910, symSize: 0x0 }
  - { offsetInCU: 0xDEF, offset: 0xB6060, size: 0x8, addend: 0x0, symName: _glad_glCopyTexSubImage2D, symObjAddr: 0x18AE0, symBinAddr: 0x1000DE918, symSize: 0x0 }
  - { offsetInCU: 0xE42, offset: 0xB60B3, size: 0x8, addend: 0x0, symName: _glad_glCopyTexSubImage3D, symObjAddr: 0x18AE8, symBinAddr: 0x1000DE920, symSize: 0x0 }
  - { offsetInCU: 0xE9A, offset: 0xB610B, size: 0x8, addend: 0x0, symName: _glad_glCreateProgram, symObjAddr: 0x18AF0, symBinAddr: 0x1000DE928, symSize: 0x0 }
  - { offsetInCU: 0xEC8, offset: 0xB6139, size: 0x8, addend: 0x0, symName: _glad_glCreateShader, symObjAddr: 0x18AF8, symBinAddr: 0x1000DE930, symSize: 0x0 }
  - { offsetInCU: 0xEFB, offset: 0xB616C, size: 0x8, addend: 0x0, symName: _glad_glCullFace, symObjAddr: 0x18B00, symBinAddr: 0x1000DE938, symSize: 0x0 }
  - { offsetInCU: 0xF1E, offset: 0xB618F, size: 0x8, addend: 0x0, symName: _glad_glDeleteBuffers, symObjAddr: 0x18B08, symBinAddr: 0x1000DE940, symSize: 0x0 }
  - { offsetInCU: 0xF53, offset: 0xB61C4, size: 0x8, addend: 0x0, symName: _glad_glDeleteFramebuffers, symObjAddr: 0x18B10, symBinAddr: 0x1000DE948, symSize: 0x0 }
  - { offsetInCU: 0xF76, offset: 0xB61E7, size: 0x8, addend: 0x0, symName: _glad_glDeleteProgram, symObjAddr: 0x18B18, symBinAddr: 0x1000DE950, symSize: 0x0 }
  - { offsetInCU: 0xF99, offset: 0xB620A, size: 0x8, addend: 0x0, symName: _glad_glDeleteQueries, symObjAddr: 0x18B20, symBinAddr: 0x1000DE958, symSize: 0x0 }
  - { offsetInCU: 0xFBC, offset: 0xB622D, size: 0x8, addend: 0x0, symName: _glad_glDeleteRenderbuffers, symObjAddr: 0x18B28, symBinAddr: 0x1000DE960, symSize: 0x0 }
  - { offsetInCU: 0xFDF, offset: 0xB6250, size: 0x8, addend: 0x0, symName: _glad_glDeleteSamplers, symObjAddr: 0x18B30, symBinAddr: 0x1000DE968, symSize: 0x0 }
  - { offsetInCU: 0x1002, offset: 0xB6273, size: 0x8, addend: 0x0, symName: _glad_glDeleteShader, symObjAddr: 0x18B38, symBinAddr: 0x1000DE970, symSize: 0x0 }
  - { offsetInCU: 0x1025, offset: 0xB6296, size: 0x8, addend: 0x0, symName: _glad_glDeleteSync, symObjAddr: 0x18B40, symBinAddr: 0x1000DE978, symSize: 0x0 }
  - { offsetInCU: 0x1055, offset: 0xB62C6, size: 0x8, addend: 0x0, symName: _glad_glDeleteTextures, symObjAddr: 0x18B48, symBinAddr: 0x1000DE980, symSize: 0x0 }
  - { offsetInCU: 0x1078, offset: 0xB62E9, size: 0x8, addend: 0x0, symName: _glad_glDeleteVertexArrays, symObjAddr: 0x18B50, symBinAddr: 0x1000DE988, symSize: 0x0 }
  - { offsetInCU: 0x109B, offset: 0xB630C, size: 0x8, addend: 0x0, symName: _glad_glDepthFunc, symObjAddr: 0x18B58, symBinAddr: 0x1000DE990, symSize: 0x0 }
  - { offsetInCU: 0x10BE, offset: 0xB632F, size: 0x8, addend: 0x0, symName: _glad_glDepthMask, symObjAddr: 0x18B60, symBinAddr: 0x1000DE998, symSize: 0x0 }
  - { offsetInCU: 0x10EE, offset: 0xB635F, size: 0x8, addend: 0x0, symName: _glad_glDepthRange, symObjAddr: 0x18B68, symBinAddr: 0x1000DE9A0, symSize: 0x0 }
  - { offsetInCU: 0x1123, offset: 0xB6394, size: 0x8, addend: 0x0, symName: _glad_glDetachShader, symObjAddr: 0x18B70, symBinAddr: 0x1000DE9A8, symSize: 0x0 }
  - { offsetInCU: 0x1146, offset: 0xB63B7, size: 0x8, addend: 0x0, symName: _glad_glDisable, symObjAddr: 0x18B78, symBinAddr: 0x1000DE9B0, symSize: 0x0 }
  - { offsetInCU: 0x1169, offset: 0xB63DA, size: 0x8, addend: 0x0, symName: _glad_glDisableVertexAttribArray, symObjAddr: 0x18B80, symBinAddr: 0x1000DE9B8, symSize: 0x0 }
  - { offsetInCU: 0x118C, offset: 0xB63FD, size: 0x8, addend: 0x0, symName: _glad_glDisablei, symObjAddr: 0x18B88, symBinAddr: 0x1000DE9C0, symSize: 0x0 }
  - { offsetInCU: 0x11AF, offset: 0xB6420, size: 0x8, addend: 0x0, symName: _glad_glDrawArrays, symObjAddr: 0x18B90, symBinAddr: 0x1000DE9C8, symSize: 0x0 }
  - { offsetInCU: 0x11E9, offset: 0xB645A, size: 0x8, addend: 0x0, symName: _glad_glDrawArraysInstanced, symObjAddr: 0x18B98, symBinAddr: 0x1000DE9D0, symSize: 0x0 }
  - { offsetInCU: 0x1228, offset: 0xB6499, size: 0x8, addend: 0x0, symName: _glad_glDrawBuffer, symObjAddr: 0x18BA0, symBinAddr: 0x1000DE9D8, symSize: 0x0 }
  - { offsetInCU: 0x124B, offset: 0xB64BC, size: 0x8, addend: 0x0, symName: _glad_glDrawBuffers, symObjAddr: 0x18BA8, symBinAddr: 0x1000DE9E0, symSize: 0x0 }
  - { offsetInCU: 0x128A, offset: 0xB64FB, size: 0x8, addend: 0x0, symName: _glad_glDrawElements, symObjAddr: 0x18BB0, symBinAddr: 0x1000DE9E8, symSize: 0x0 }
  - { offsetInCU: 0x12C9, offset: 0xB653A, size: 0x8, addend: 0x0, symName: _glad_glDrawElementsBaseVertex, symObjAddr: 0x18BB8, symBinAddr: 0x1000DE9F0, symSize: 0x0 }
  - { offsetInCU: 0x130D, offset: 0xB657E, size: 0x8, addend: 0x0, symName: _glad_glDrawElementsInstanced, symObjAddr: 0x18BC0, symBinAddr: 0x1000DE9F8, symSize: 0x0 }
  - { offsetInCU: 0x1351, offset: 0xB65C2, size: 0x8, addend: 0x0, symName: _glad_glDrawElementsInstancedBaseVertex, symObjAddr: 0x18BC8, symBinAddr: 0x1000DEA00, symSize: 0x0 }
  - { offsetInCU: 0x139A, offset: 0xB660B, size: 0x8, addend: 0x0, symName: _glad_glDrawRangeElements, symObjAddr: 0x18BD0, symBinAddr: 0x1000DEA08, symSize: 0x0 }
  - { offsetInCU: 0x13E3, offset: 0xB6654, size: 0x8, addend: 0x0, symName: _glad_glDrawRangeElementsBaseVertex, symObjAddr: 0x18BD8, symBinAddr: 0x1000DEA10, symSize: 0x0 }
  - { offsetInCU: 0x1431, offset: 0xB66A2, size: 0x8, addend: 0x0, symName: _glad_glEnable, symObjAddr: 0x18BE0, symBinAddr: 0x1000DEA18, symSize: 0x0 }
  - { offsetInCU: 0x1454, offset: 0xB66C5, size: 0x8, addend: 0x0, symName: _glad_glEnableVertexAttribArray, symObjAddr: 0x18BE8, symBinAddr: 0x1000DEA20, symSize: 0x0 }
  - { offsetInCU: 0x1477, offset: 0xB66E8, size: 0x8, addend: 0x0, symName: _glad_glEnablei, symObjAddr: 0x18BF0, symBinAddr: 0x1000DEA28, symSize: 0x0 }
  - { offsetInCU: 0x149A, offset: 0xB670B, size: 0x8, addend: 0x0, symName: _glad_glEndConditionalRender, symObjAddr: 0x18BF8, symBinAddr: 0x1000DEA30, symSize: 0x0 }
  - { offsetInCU: 0x14C3, offset: 0xB6734, size: 0x8, addend: 0x0, symName: _glad_glEndQuery, symObjAddr: 0x18C00, symBinAddr: 0x1000DEA38, symSize: 0x0 }
  - { offsetInCU: 0x14E6, offset: 0xB6757, size: 0x8, addend: 0x0, symName: _glad_glEndTransformFeedback, symObjAddr: 0x18C08, symBinAddr: 0x1000DEA40, symSize: 0x0 }
  - { offsetInCU: 0x1509, offset: 0xB677A, size: 0x8, addend: 0x0, symName: _glad_glFenceSync, symObjAddr: 0x18C10, symBinAddr: 0x1000DEA48, symSize: 0x0 }
  - { offsetInCU: 0x1541, offset: 0xB67B2, size: 0x8, addend: 0x0, symName: _glad_glFinish, symObjAddr: 0x18C18, symBinAddr: 0x1000DEA50, symSize: 0x0 }
  - { offsetInCU: 0x1564, offset: 0xB67D5, size: 0x8, addend: 0x0, symName: _glad_glFlush, symObjAddr: 0x18C20, symBinAddr: 0x1000DEA58, symSize: 0x0 }
  - { offsetInCU: 0x1587, offset: 0xB67F8, size: 0x8, addend: 0x0, symName: _glad_glFlushMappedBufferRange, symObjAddr: 0x18C28, symBinAddr: 0x1000DEA60, symSize: 0x0 }
  - { offsetInCU: 0x15C1, offset: 0xB6832, size: 0x8, addend: 0x0, symName: _glad_glFramebufferRenderbuffer, symObjAddr: 0x18C30, symBinAddr: 0x1000DEA68, symSize: 0x0 }
  - { offsetInCU: 0x1600, offset: 0xB6871, size: 0x8, addend: 0x0, symName: _glad_glFramebufferTexture, symObjAddr: 0x18C38, symBinAddr: 0x1000DEA70, symSize: 0x0 }
  - { offsetInCU: 0x163F, offset: 0xB68B0, size: 0x8, addend: 0x0, symName: _glad_glFramebufferTexture1D, symObjAddr: 0x18C40, symBinAddr: 0x1000DEA78, symSize: 0x0 }
  - { offsetInCU: 0x1683, offset: 0xB68F4, size: 0x8, addend: 0x0, symName: _glad_glFramebufferTexture2D, symObjAddr: 0x18C48, symBinAddr: 0x1000DEA80, symSize: 0x0 }
  - { offsetInCU: 0x16A6, offset: 0xB6917, size: 0x8, addend: 0x0, symName: _glad_glFramebufferTexture3D, symObjAddr: 0x18C50, symBinAddr: 0x1000DEA88, symSize: 0x0 }
  - { offsetInCU: 0x16EF, offset: 0xB6960, size: 0x8, addend: 0x0, symName: _glad_glFramebufferTextureLayer, symObjAddr: 0x18C58, symBinAddr: 0x1000DEA90, symSize: 0x0 }
  - { offsetInCU: 0x1733, offset: 0xB69A4, size: 0x8, addend: 0x0, symName: _glad_glFrontFace, symObjAddr: 0x18C60, symBinAddr: 0x1000DEA98, symSize: 0x0 }
  - { offsetInCU: 0x1756, offset: 0xB69C7, size: 0x8, addend: 0x0, symName: _glad_glGenBuffers, symObjAddr: 0x18C68, symBinAddr: 0x1000DEAA0, symSize: 0x0 }
  - { offsetInCU: 0x1790, offset: 0xB6A01, size: 0x8, addend: 0x0, symName: _glad_glGenFramebuffers, symObjAddr: 0x18C70, symBinAddr: 0x1000DEAA8, symSize: 0x0 }
  - { offsetInCU: 0x17B3, offset: 0xB6A24, size: 0x8, addend: 0x0, symName: _glad_glGenQueries, symObjAddr: 0x18C78, symBinAddr: 0x1000DEAB0, symSize: 0x0 }
  - { offsetInCU: 0x17D6, offset: 0xB6A47, size: 0x8, addend: 0x0, symName: _glad_glGenRenderbuffers, symObjAddr: 0x18C80, symBinAddr: 0x1000DEAB8, symSize: 0x0 }
  - { offsetInCU: 0x17F9, offset: 0xB6A6A, size: 0x8, addend: 0x0, symName: _glad_glGenSamplers, symObjAddr: 0x18C88, symBinAddr: 0x1000DEAC0, symSize: 0x0 }
  - { offsetInCU: 0x181C, offset: 0xB6A8D, size: 0x8, addend: 0x0, symName: _glad_glGenTextures, symObjAddr: 0x18C90, symBinAddr: 0x1000DEAC8, symSize: 0x0 }
  - { offsetInCU: 0x183F, offset: 0xB6AB0, size: 0x8, addend: 0x0, symName: _glad_glGenVertexArrays, symObjAddr: 0x18C98, symBinAddr: 0x1000DEAD0, symSize: 0x0 }
  - { offsetInCU: 0x1862, offset: 0xB6AD3, size: 0x8, addend: 0x0, symName: _glad_glGenerateMipmap, symObjAddr: 0x18CA0, symBinAddr: 0x1000DEAD8, symSize: 0x0 }
  - { offsetInCU: 0x1885, offset: 0xB6AF6, size: 0x8, addend: 0x0, symName: _glad_glGetActiveAttrib, symObjAddr: 0x18CA8, symBinAddr: 0x1000DEAE0, symSize: 0x0 }
  - { offsetInCU: 0x18E7, offset: 0xB6B58, size: 0x8, addend: 0x0, symName: _glad_glGetActiveUniform, symObjAddr: 0x18CB0, symBinAddr: 0x1000DEAE8, symSize: 0x0 }
  - { offsetInCU: 0x190A, offset: 0xB6B7B, size: 0x8, addend: 0x0, symName: _glad_glGetActiveUniformBlockName, symObjAddr: 0x18CB8, symBinAddr: 0x1000DEAF0, symSize: 0x0 }
  - { offsetInCU: 0x194E, offset: 0xB6BBF, size: 0x8, addend: 0x0, symName: _glad_glGetActiveUniformBlockiv, symObjAddr: 0x18CC0, symBinAddr: 0x1000DEAF8, symSize: 0x0 }
  - { offsetInCU: 0x198D, offset: 0xB6BFE, size: 0x8, addend: 0x0, symName: _glad_glGetActiveUniformName, symObjAddr: 0x18CC8, symBinAddr: 0x1000DEB00, symSize: 0x0 }
  - { offsetInCU: 0x19B0, offset: 0xB6C21, size: 0x8, addend: 0x0, symName: _glad_glGetActiveUniformsiv, symObjAddr: 0x18CD0, symBinAddr: 0x1000DEB08, symSize: 0x0 }
  - { offsetInCU: 0x19F4, offset: 0xB6C65, size: 0x8, addend: 0x0, symName: _glad_glGetAttachedShaders, symObjAddr: 0x18CD8, symBinAddr: 0x1000DEB10, symSize: 0x0 }
  - { offsetInCU: 0x1A33, offset: 0xB6CA4, size: 0x8, addend: 0x0, symName: _glad_glGetAttribLocation, symObjAddr: 0x18CE0, symBinAddr: 0x1000DEB18, symSize: 0x0 }
  - { offsetInCU: 0x1A6B, offset: 0xB6CDC, size: 0x8, addend: 0x0, symName: _glad_glGetBooleani_v, symObjAddr: 0x18CE8, symBinAddr: 0x1000DEB20, symSize: 0x0 }
  - { offsetInCU: 0x1AAA, offset: 0xB6D1B, size: 0x8, addend: 0x0, symName: _glad_glGetBooleanv, symObjAddr: 0x18CF0, symBinAddr: 0x1000DEB28, symSize: 0x0 }
  - { offsetInCU: 0x1ADF, offset: 0xB6D50, size: 0x8, addend: 0x0, symName: _glad_glGetBufferParameteri64v, symObjAddr: 0x18CF8, symBinAddr: 0x1000DEB30, symSize: 0x0 }
  - { offsetInCU: 0x1B3B, offset: 0xB6DAC, size: 0x8, addend: 0x0, symName: _glad_glGetBufferParameteriv, symObjAddr: 0x18D00, symBinAddr: 0x1000DEB38, symSize: 0x0 }
  - { offsetInCU: 0x1B75, offset: 0xB6DE6, size: 0x8, addend: 0x0, symName: _glad_glGetBufferPointerv, symObjAddr: 0x18D08, symBinAddr: 0x1000DEB40, symSize: 0x0 }
  - { offsetInCU: 0x1BB5, offset: 0xB6E26, size: 0x8, addend: 0x0, symName: _glad_glGetBufferSubData, symObjAddr: 0x18D10, symBinAddr: 0x1000DEB48, symSize: 0x0 }
  - { offsetInCU: 0x1BF4, offset: 0xB6E65, size: 0x8, addend: 0x0, symName: _glad_glGetCompressedTexImage, symObjAddr: 0x18D18, symBinAddr: 0x1000DEB50, symSize: 0x0 }
  - { offsetInCU: 0x1C2E, offset: 0xB6E9F, size: 0x8, addend: 0x0, symName: _glad_glGetDoublev, symObjAddr: 0x18D20, symBinAddr: 0x1000DEB58, symSize: 0x0 }
  - { offsetInCU: 0x1C68, offset: 0xB6ED9, size: 0x8, addend: 0x0, symName: _glad_glGetError, symObjAddr: 0x18D28, symBinAddr: 0x1000DEB60, symSize: 0x0 }
  - { offsetInCU: 0x1C96, offset: 0xB6F07, size: 0x8, addend: 0x0, symName: _glad_glGetFloatv, symObjAddr: 0x18D30, symBinAddr: 0x1000DEB68, symSize: 0x0 }
  - { offsetInCU: 0x1CD0, offset: 0xB6F41, size: 0x8, addend: 0x0, symName: _glad_glGetFragDataIndex, symObjAddr: 0x18D38, symBinAddr: 0x1000DEB70, symSize: 0x0 }
  - { offsetInCU: 0x1CF3, offset: 0xB6F64, size: 0x8, addend: 0x0, symName: _glad_glGetFragDataLocation, symObjAddr: 0x18D40, symBinAddr: 0x1000DEB78, symSize: 0x0 }
  - { offsetInCU: 0x1D16, offset: 0xB6F87, size: 0x8, addend: 0x0, symName: _glad_glGetFramebufferAttachmentParameteriv, symObjAddr: 0x18D48, symBinAddr: 0x1000DEB80, symSize: 0x0 }
  - { offsetInCU: 0x1D55, offset: 0xB6FC6, size: 0x8, addend: 0x0, symName: _glad_glGetInteger64i_v, symObjAddr: 0x18D50, symBinAddr: 0x1000DEB88, symSize: 0x0 }
  - { offsetInCU: 0x1D8F, offset: 0xB7000, size: 0x8, addend: 0x0, symName: _glad_glGetInteger64v, symObjAddr: 0x18D58, symBinAddr: 0x1000DEB90, symSize: 0x0 }
  - { offsetInCU: 0x1DC4, offset: 0xB7035, size: 0x8, addend: 0x0, symName: _glad_glGetIntegeri_v, symObjAddr: 0x18D60, symBinAddr: 0x1000DEB98, symSize: 0x0 }
  - { offsetInCU: 0x1DFE, offset: 0xB706F, size: 0x8, addend: 0x0, symName: _glad_glGetIntegerv, symObjAddr: 0x18D68, symBinAddr: 0x1000DEBA0, symSize: 0x0 }
  - { offsetInCU: 0x1E33, offset: 0xB70A4, size: 0x8, addend: 0x0, symName: _glad_glGetMultisamplefv, symObjAddr: 0x18D70, symBinAddr: 0x1000DEBA8, symSize: 0x0 }
  - { offsetInCU: 0x1E6D, offset: 0xB70DE, size: 0x8, addend: 0x0, symName: _glad_glGetProgramInfoLog, symObjAddr: 0x18D78, symBinAddr: 0x1000DEBB0, symSize: 0x0 }
  - { offsetInCU: 0x1EAC, offset: 0xB711D, size: 0x8, addend: 0x0, symName: _glad_glGetProgramiv, symObjAddr: 0x18D80, symBinAddr: 0x1000DEBB8, symSize: 0x0 }
  - { offsetInCU: 0x1EE6, offset: 0xB7157, size: 0x8, addend: 0x0, symName: _glad_glGetQueryObjecti64v, symObjAddr: 0x18D88, symBinAddr: 0x1000DEBC0, symSize: 0x0 }
  - { offsetInCU: 0x1F20, offset: 0xB7191, size: 0x8, addend: 0x0, symName: _glad_glGetQueryObjectiv, symObjAddr: 0x18D90, symBinAddr: 0x1000DEBC8, symSize: 0x0 }
  - { offsetInCU: 0x1F43, offset: 0xB71B4, size: 0x8, addend: 0x0, symName: _glad_glGetQueryObjectui64v, symObjAddr: 0x18D98, symBinAddr: 0x1000DEBD0, symSize: 0x0 }
  - { offsetInCU: 0x1F82, offset: 0xB71F3, size: 0x8, addend: 0x0, symName: _glad_glGetQueryObjectuiv, symObjAddr: 0x18DA0, symBinAddr: 0x1000DEBD8, symSize: 0x0 }
  - { offsetInCU: 0x1FBC, offset: 0xB722D, size: 0x8, addend: 0x0, symName: _glad_glGetQueryiv, symObjAddr: 0x18DA8, symBinAddr: 0x1000DEBE0, symSize: 0x0 }
  - { offsetInCU: 0x1FDF, offset: 0xB7250, size: 0x8, addend: 0x0, symName: _glad_glGetRenderbufferParameteriv, symObjAddr: 0x18DB0, symBinAddr: 0x1000DEBE8, symSize: 0x0 }
  - { offsetInCU: 0x2002, offset: 0xB7273, size: 0x8, addend: 0x0, symName: _glad_glGetSamplerParameterIiv, symObjAddr: 0x18DB8, symBinAddr: 0x1000DEBF0, symSize: 0x0 }
  - { offsetInCU: 0x2025, offset: 0xB7296, size: 0x8, addend: 0x0, symName: _glad_glGetSamplerParameterIuiv, symObjAddr: 0x18DC0, symBinAddr: 0x1000DEBF8, symSize: 0x0 }
  - { offsetInCU: 0x2048, offset: 0xB72B9, size: 0x8, addend: 0x0, symName: _glad_glGetSamplerParameterfv, symObjAddr: 0x18DC8, symBinAddr: 0x1000DEC00, symSize: 0x0 }
  - { offsetInCU: 0x2082, offset: 0xB72F3, size: 0x8, addend: 0x0, symName: _glad_glGetSamplerParameteriv, symObjAddr: 0x18DD0, symBinAddr: 0x1000DEC08, symSize: 0x0 }
  - { offsetInCU: 0x20A5, offset: 0xB7316, size: 0x8, addend: 0x0, symName: _glad_glGetShaderInfoLog, symObjAddr: 0x18DD8, symBinAddr: 0x1000DEC10, symSize: 0x0 }
  - { offsetInCU: 0x20C8, offset: 0xB7339, size: 0x8, addend: 0x0, symName: _glad_glGetShaderSource, symObjAddr: 0x18DE0, symBinAddr: 0x1000DEC18, symSize: 0x0 }
  - { offsetInCU: 0x20EB, offset: 0xB735C, size: 0x8, addend: 0x0, symName: _glad_glGetShaderiv, symObjAddr: 0x18DE8, symBinAddr: 0x1000DEC20, symSize: 0x0 }
  - { offsetInCU: 0x210E, offset: 0xB737F, size: 0x8, addend: 0x0, symName: _glad_glGetString, symObjAddr: 0x18DF0, symBinAddr: 0x1000DEC28, symSize: 0x0 }
  - { offsetInCU: 0x2161, offset: 0xB73D2, size: 0x8, addend: 0x0, symName: _glad_glGetStringi, symObjAddr: 0x18DF8, symBinAddr: 0x1000DEC30, symSize: 0x0 }
  - { offsetInCU: 0x2199, offset: 0xB740A, size: 0x8, addend: 0x0, symName: _glad_glGetSynciv, symObjAddr: 0x18E00, symBinAddr: 0x1000DEC38, symSize: 0x0 }
  - { offsetInCU: 0x21DD, offset: 0xB744E, size: 0x8, addend: 0x0, symName: _glad_glGetTexImage, symObjAddr: 0x18E08, symBinAddr: 0x1000DEC40, symSize: 0x0 }
  - { offsetInCU: 0x2221, offset: 0xB7492, size: 0x8, addend: 0x0, symName: _glad_glGetTexLevelParameterfv, symObjAddr: 0x18E10, symBinAddr: 0x1000DEC48, symSize: 0x0 }
  - { offsetInCU: 0x2260, offset: 0xB74D1, size: 0x8, addend: 0x0, symName: _glad_glGetTexLevelParameteriv, symObjAddr: 0x18E18, symBinAddr: 0x1000DEC50, symSize: 0x0 }
  - { offsetInCU: 0x229F, offset: 0xB7510, size: 0x8, addend: 0x0, symName: _glad_glGetTexParameterIiv, symObjAddr: 0x18E20, symBinAddr: 0x1000DEC58, symSize: 0x0 }
  - { offsetInCU: 0x22C2, offset: 0xB7533, size: 0x8, addend: 0x0, symName: _glad_glGetTexParameterIuiv, symObjAddr: 0x18E28, symBinAddr: 0x1000DEC60, symSize: 0x0 }
  - { offsetInCU: 0x22FC, offset: 0xB756D, size: 0x8, addend: 0x0, symName: _glad_glGetTexParameterfv, symObjAddr: 0x18E30, symBinAddr: 0x1000DEC68, symSize: 0x0 }
  - { offsetInCU: 0x2336, offset: 0xB75A7, size: 0x8, addend: 0x0, symName: _glad_glGetTexParameteriv, symObjAddr: 0x18E38, symBinAddr: 0x1000DEC70, symSize: 0x0 }
  - { offsetInCU: 0x2359, offset: 0xB75CA, size: 0x8, addend: 0x0, symName: _glad_glGetTransformFeedbackVarying, symObjAddr: 0x18E40, symBinAddr: 0x1000DEC78, symSize: 0x0 }
  - { offsetInCU: 0x23A7, offset: 0xB7618, size: 0x8, addend: 0x0, symName: _glad_glGetUniformBlockIndex, symObjAddr: 0x18E48, symBinAddr: 0x1000DEC80, symSize: 0x0 }
  - { offsetInCU: 0x23DF, offset: 0xB7650, size: 0x8, addend: 0x0, symName: _glad_glGetUniformIndices, symObjAddr: 0x18E50, symBinAddr: 0x1000DEC88, symSize: 0x0 }
  - { offsetInCU: 0x2428, offset: 0xB7699, size: 0x8, addend: 0x0, symName: _glad_glGetUniformLocation, symObjAddr: 0x18E58, symBinAddr: 0x1000DEC90, symSize: 0x0 }
  - { offsetInCU: 0x244B, offset: 0xB76BC, size: 0x8, addend: 0x0, symName: _glad_glGetUniformfv, symObjAddr: 0x18E60, symBinAddr: 0x1000DEC98, symSize: 0x0 }
  - { offsetInCU: 0x2485, offset: 0xB76F6, size: 0x8, addend: 0x0, symName: _glad_glGetUniformiv, symObjAddr: 0x18E68, symBinAddr: 0x1000DECA0, symSize: 0x0 }
  - { offsetInCU: 0x24BF, offset: 0xB7730, size: 0x8, addend: 0x0, symName: _glad_glGetUniformuiv, symObjAddr: 0x18E70, symBinAddr: 0x1000DECA8, symSize: 0x0 }
  - { offsetInCU: 0x24F9, offset: 0xB776A, size: 0x8, addend: 0x0, symName: _glad_glGetVertexAttribIiv, symObjAddr: 0x18E78, symBinAddr: 0x1000DECB0, symSize: 0x0 }
  - { offsetInCU: 0x251C, offset: 0xB778D, size: 0x8, addend: 0x0, symName: _glad_glGetVertexAttribIuiv, symObjAddr: 0x18E80, symBinAddr: 0x1000DECB8, symSize: 0x0 }
  - { offsetInCU: 0x253F, offset: 0xB77B0, size: 0x8, addend: 0x0, symName: _glad_glGetVertexAttribPointerv, symObjAddr: 0x18E88, symBinAddr: 0x1000DECC0, symSize: 0x0 }
  - { offsetInCU: 0x2579, offset: 0xB77EA, size: 0x8, addend: 0x0, symName: _glad_glGetVertexAttribdv, symObjAddr: 0x18E90, symBinAddr: 0x1000DECC8, symSize: 0x0 }
  - { offsetInCU: 0x25B3, offset: 0xB7824, size: 0x8, addend: 0x0, symName: _glad_glGetVertexAttribfv, symObjAddr: 0x18E98, symBinAddr: 0x1000DECD0, symSize: 0x0 }
  - { offsetInCU: 0x25D6, offset: 0xB7847, size: 0x8, addend: 0x0, symName: _glad_glGetVertexAttribiv, symObjAddr: 0x18EA0, symBinAddr: 0x1000DECD8, symSize: 0x0 }
  - { offsetInCU: 0x25F9, offset: 0xB786A, size: 0x8, addend: 0x0, symName: _glad_glHint, symObjAddr: 0x18EA8, symBinAddr: 0x1000DECE0, symSize: 0x0 }
  - { offsetInCU: 0x261C, offset: 0xB788D, size: 0x8, addend: 0x0, symName: _glad_glIsBuffer, symObjAddr: 0x18EB0, symBinAddr: 0x1000DECE8, symSize: 0x0 }
  - { offsetInCU: 0x264F, offset: 0xB78C0, size: 0x8, addend: 0x0, symName: _glad_glIsEnabled, symObjAddr: 0x18EB8, symBinAddr: 0x1000DECF0, symSize: 0x0 }
  - { offsetInCU: 0x2682, offset: 0xB78F3, size: 0x8, addend: 0x0, symName: _glad_glIsEnabledi, symObjAddr: 0x18EC0, symBinAddr: 0x1000DECF8, symSize: 0x0 }
  - { offsetInCU: 0x26BA, offset: 0xB792B, size: 0x8, addend: 0x0, symName: _glad_glIsFramebuffer, symObjAddr: 0x18EC8, symBinAddr: 0x1000DED00, symSize: 0x0 }
  - { offsetInCU: 0x26DD, offset: 0xB794E, size: 0x8, addend: 0x0, symName: _glad_glIsProgram, symObjAddr: 0x18ED0, symBinAddr: 0x1000DED08, symSize: 0x0 }
  - { offsetInCU: 0x2700, offset: 0xB7971, size: 0x8, addend: 0x0, symName: _glad_glIsQuery, symObjAddr: 0x18ED8, symBinAddr: 0x1000DED10, symSize: 0x0 }
  - { offsetInCU: 0x2723, offset: 0xB7994, size: 0x8, addend: 0x0, symName: _glad_glIsRenderbuffer, symObjAddr: 0x18EE0, symBinAddr: 0x1000DED18, symSize: 0x0 }
  - { offsetInCU: 0x2746, offset: 0xB79B7, size: 0x8, addend: 0x0, symName: _glad_glIsSampler, symObjAddr: 0x18EE8, symBinAddr: 0x1000DED20, symSize: 0x0 }
  - { offsetInCU: 0x2769, offset: 0xB79DA, size: 0x8, addend: 0x0, symName: _glad_glIsShader, symObjAddr: 0x18EF0, symBinAddr: 0x1000DED28, symSize: 0x0 }
  - { offsetInCU: 0x278C, offset: 0xB79FD, size: 0x8, addend: 0x0, symName: _glad_glIsSync, symObjAddr: 0x18EF8, symBinAddr: 0x1000DED30, symSize: 0x0 }
  - { offsetInCU: 0x27BF, offset: 0xB7A30, size: 0x8, addend: 0x0, symName: _glad_glIsTexture, symObjAddr: 0x18F00, symBinAddr: 0x1000DED38, symSize: 0x0 }
  - { offsetInCU: 0x27E2, offset: 0xB7A53, size: 0x8, addend: 0x0, symName: _glad_glIsVertexArray, symObjAddr: 0x18F08, symBinAddr: 0x1000DED40, symSize: 0x0 }
  - { offsetInCU: 0x2805, offset: 0xB7A76, size: 0x8, addend: 0x0, symName: _glad_glLineWidth, symObjAddr: 0x18F10, symBinAddr: 0x1000DED48, symSize: 0x0 }
  - { offsetInCU: 0x2835, offset: 0xB7AA6, size: 0x8, addend: 0x0, symName: _glad_glLinkProgram, symObjAddr: 0x18F18, symBinAddr: 0x1000DED50, symSize: 0x0 }
  - { offsetInCU: 0x2858, offset: 0xB7AC9, size: 0x8, addend: 0x0, symName: _glad_glLogicOp, symObjAddr: 0x18F20, symBinAddr: 0x1000DED58, symSize: 0x0 }
  - { offsetInCU: 0x287B, offset: 0xB7AEC, size: 0x8, addend: 0x0, symName: _glad_glMapBuffer, symObjAddr: 0x18F28, symBinAddr: 0x1000DED60, symSize: 0x0 }
  - { offsetInCU: 0x28B3, offset: 0xB7B24, size: 0x8, addend: 0x0, symName: _glad_glMapBufferRange, symObjAddr: 0x18F30, symBinAddr: 0x1000DED68, symSize: 0x0 }
  - { offsetInCU: 0x28F5, offset: 0xB7B66, size: 0x8, addend: 0x0, symName: _glad_glMultiDrawArrays, symObjAddr: 0x18F38, symBinAddr: 0x1000DED70, symSize: 0x0 }
  - { offsetInCU: 0x293E, offset: 0xB7BAF, size: 0x8, addend: 0x0, symName: _glad_glMultiDrawElements, symObjAddr: 0x18F40, symBinAddr: 0x1000DED78, symSize: 0x0 }
  - { offsetInCU: 0x298C, offset: 0xB7BFD, size: 0x8, addend: 0x0, symName: _glad_glMultiDrawElementsBaseVertex, symObjAddr: 0x18F48, symBinAddr: 0x1000DED80, symSize: 0x0 }
  - { offsetInCU: 0x29D5, offset: 0xB7C46, size: 0x8, addend: 0x0, symName: _glad_glMultiTexCoordP1ui, symObjAddr: 0x18F50, symBinAddr: 0x1000DED88, symSize: 0x0 }
  - { offsetInCU: 0x2A0F, offset: 0xB7C80, size: 0x8, addend: 0x0, symName: _glad_glMultiTexCoordP1uiv, symObjAddr: 0x18F58, symBinAddr: 0x1000DED90, symSize: 0x0 }
  - { offsetInCU: 0x2A49, offset: 0xB7CBA, size: 0x8, addend: 0x0, symName: _glad_glMultiTexCoordP2ui, symObjAddr: 0x18F60, symBinAddr: 0x1000DED98, symSize: 0x0 }
  - { offsetInCU: 0x2A6C, offset: 0xB7CDD, size: 0x8, addend: 0x0, symName: _glad_glMultiTexCoordP2uiv, symObjAddr: 0x18F68, symBinAddr: 0x1000DEDA0, symSize: 0x0 }
  - { offsetInCU: 0x2A8F, offset: 0xB7D00, size: 0x8, addend: 0x0, symName: _glad_glMultiTexCoordP3ui, symObjAddr: 0x18F70, symBinAddr: 0x1000DEDA8, symSize: 0x0 }
  - { offsetInCU: 0x2AB2, offset: 0xB7D23, size: 0x8, addend: 0x0, symName: _glad_glMultiTexCoordP3uiv, symObjAddr: 0x18F78, symBinAddr: 0x1000DEDB0, symSize: 0x0 }
  - { offsetInCU: 0x2AD5, offset: 0xB7D46, size: 0x8, addend: 0x0, symName: _glad_glMultiTexCoordP4ui, symObjAddr: 0x18F80, symBinAddr: 0x1000DEDB8, symSize: 0x0 }
  - { offsetInCU: 0x2AF8, offset: 0xB7D69, size: 0x8, addend: 0x0, symName: _glad_glMultiTexCoordP4uiv, symObjAddr: 0x18F88, symBinAddr: 0x1000DEDC0, symSize: 0x0 }
  - { offsetInCU: 0x2B1B, offset: 0xB7D8C, size: 0x8, addend: 0x0, symName: _glad_glNormalP3ui, symObjAddr: 0x18F90, symBinAddr: 0x1000DEDC8, symSize: 0x0 }
  - { offsetInCU: 0x2B3E, offset: 0xB7DAF, size: 0x8, addend: 0x0, symName: _glad_glNormalP3uiv, symObjAddr: 0x18F98, symBinAddr: 0x1000DEDD0, symSize: 0x0 }
  - { offsetInCU: 0x2B61, offset: 0xB7DD2, size: 0x8, addend: 0x0, symName: _glad_glPixelStoref, symObjAddr: 0x18FA0, symBinAddr: 0x1000DEDD8, symSize: 0x0 }
  - { offsetInCU: 0x2B96, offset: 0xB7E07, size: 0x8, addend: 0x0, symName: _glad_glPixelStorei, symObjAddr: 0x18FA8, symBinAddr: 0x1000DEDE0, symSize: 0x0 }
  - { offsetInCU: 0x2BCB, offset: 0xB7E3C, size: 0x8, addend: 0x0, symName: _glad_glPointParameterf, symObjAddr: 0x18FB0, symBinAddr: 0x1000DEDE8, symSize: 0x0 }
  - { offsetInCU: 0x2BEE, offset: 0xB7E5F, size: 0x8, addend: 0x0, symName: _glad_glPointParameterfv, symObjAddr: 0x18FB8, symBinAddr: 0x1000DEDF0, symSize: 0x0 }
  - { offsetInCU: 0x2C23, offset: 0xB7E94, size: 0x8, addend: 0x0, symName: _glad_glPointParameteri, symObjAddr: 0x18FC0, symBinAddr: 0x1000DEDF8, symSize: 0x0 }
  - { offsetInCU: 0x2C46, offset: 0xB7EB7, size: 0x8, addend: 0x0, symName: _glad_glPointParameteriv, symObjAddr: 0x18FC8, symBinAddr: 0x1000DEE00, symSize: 0x0 }
  - { offsetInCU: 0x2C7B, offset: 0xB7EEC, size: 0x8, addend: 0x0, symName: _glad_glPointSize, symObjAddr: 0x18FD0, symBinAddr: 0x1000DEE08, symSize: 0x0 }
  - { offsetInCU: 0x2C9E, offset: 0xB7F0F, size: 0x8, addend: 0x0, symName: _glad_glPolygonMode, symObjAddr: 0x18FD8, symBinAddr: 0x1000DEE10, symSize: 0x0 }
  - { offsetInCU: 0x2CC1, offset: 0xB7F32, size: 0x8, addend: 0x0, symName: _glad_glPolygonOffset, symObjAddr: 0x18FE0, symBinAddr: 0x1000DEE18, symSize: 0x0 }
  - { offsetInCU: 0x2CF6, offset: 0xB7F67, size: 0x8, addend: 0x0, symName: _glad_glPrimitiveRestartIndex, symObjAddr: 0x18FE8, symBinAddr: 0x1000DEE20, symSize: 0x0 }
  - { offsetInCU: 0x2D19, offset: 0xB7F8A, size: 0x8, addend: 0x0, symName: _glad_glProvokingVertex, symObjAddr: 0x18FF0, symBinAddr: 0x1000DEE28, symSize: 0x0 }
  - { offsetInCU: 0x2D3C, offset: 0xB7FAD, size: 0x8, addend: 0x0, symName: _glad_glQueryCounter, symObjAddr: 0x18FF8, symBinAddr: 0x1000DEE30, symSize: 0x0 }
  - { offsetInCU: 0x2D5F, offset: 0xB7FD0, size: 0x8, addend: 0x0, symName: _glad_glReadBuffer, symObjAddr: 0x19000, symBinAddr: 0x1000DEE38, symSize: 0x0 }
  - { offsetInCU: 0x2D82, offset: 0xB7FF3, size: 0x8, addend: 0x0, symName: _glad_glReadPixels, symObjAddr: 0x19008, symBinAddr: 0x1000DEE40, symSize: 0x0 }
  - { offsetInCU: 0x2DD0, offset: 0xB8041, size: 0x8, addend: 0x0, symName: _glad_glRenderbufferStorage, symObjAddr: 0x19010, symBinAddr: 0x1000DEE48, symSize: 0x0 }
  - { offsetInCU: 0x2E0F, offset: 0xB8080, size: 0x8, addend: 0x0, symName: _glad_glRenderbufferStorageMultisample, symObjAddr: 0x19018, symBinAddr: 0x1000DEE50, symSize: 0x0 }
  - { offsetInCU: 0x2E53, offset: 0xB80C4, size: 0x8, addend: 0x0, symName: _glad_glSampleCoverage, symObjAddr: 0x19020, symBinAddr: 0x1000DEE58, symSize: 0x0 }
  - { offsetInCU: 0x2E88, offset: 0xB80F9, size: 0x8, addend: 0x0, symName: _glad_glSampleMaski, symObjAddr: 0x19028, symBinAddr: 0x1000DEE60, symSize: 0x0 }
  - { offsetInCU: 0x2EBD, offset: 0xB812E, size: 0x8, addend: 0x0, symName: _glad_glSamplerParameterIiv, symObjAddr: 0x19030, symBinAddr: 0x1000DEE68, symSize: 0x0 }
  - { offsetInCU: 0x2EF7, offset: 0xB8168, size: 0x8, addend: 0x0, symName: _glad_glSamplerParameterIuiv, symObjAddr: 0x19038, symBinAddr: 0x1000DEE70, symSize: 0x0 }
  - { offsetInCU: 0x2F31, offset: 0xB81A2, size: 0x8, addend: 0x0, symName: _glad_glSamplerParameterf, symObjAddr: 0x19040, symBinAddr: 0x1000DEE78, symSize: 0x0 }
  - { offsetInCU: 0x2F6B, offset: 0xB81DC, size: 0x8, addend: 0x0, symName: _glad_glSamplerParameterfv, symObjAddr: 0x19048, symBinAddr: 0x1000DEE80, symSize: 0x0 }
  - { offsetInCU: 0x2FA5, offset: 0xB8216, size: 0x8, addend: 0x0, symName: _glad_glSamplerParameteri, symObjAddr: 0x19050, symBinAddr: 0x1000DEE88, symSize: 0x0 }
  - { offsetInCU: 0x2FDF, offset: 0xB8250, size: 0x8, addend: 0x0, symName: _glad_glSamplerParameteriv, symObjAddr: 0x19058, symBinAddr: 0x1000DEE90, symSize: 0x0 }
  - { offsetInCU: 0x3002, offset: 0xB8273, size: 0x8, addend: 0x0, symName: _glad_glScissor, symObjAddr: 0x19060, symBinAddr: 0x1000DEE98, symSize: 0x0 }
  - { offsetInCU: 0x3041, offset: 0xB82B2, size: 0x8, addend: 0x0, symName: _glad_glSecondaryColorP3ui, symObjAddr: 0x19068, symBinAddr: 0x1000DEEA0, symSize: 0x0 }
  - { offsetInCU: 0x3064, offset: 0xB82D5, size: 0x8, addend: 0x0, symName: _glad_glSecondaryColorP3uiv, symObjAddr: 0x19070, symBinAddr: 0x1000DEEA8, symSize: 0x0 }
  - { offsetInCU: 0x3087, offset: 0xB82F8, size: 0x8, addend: 0x0, symName: _glad_glShaderSource, symObjAddr: 0x19078, symBinAddr: 0x1000DEEB0, symSize: 0x0 }
  - { offsetInCU: 0x30C6, offset: 0xB8337, size: 0x8, addend: 0x0, symName: _glad_glStencilFunc, symObjAddr: 0x19080, symBinAddr: 0x1000DEEB8, symSize: 0x0 }
  - { offsetInCU: 0x3100, offset: 0xB8371, size: 0x8, addend: 0x0, symName: _glad_glStencilFuncSeparate, symObjAddr: 0x19088, symBinAddr: 0x1000DEEC0, symSize: 0x0 }
  - { offsetInCU: 0x313F, offset: 0xB83B0, size: 0x8, addend: 0x0, symName: _glad_glStencilMask, symObjAddr: 0x19090, symBinAddr: 0x1000DEEC8, symSize: 0x0 }
  - { offsetInCU: 0x3162, offset: 0xB83D3, size: 0x8, addend: 0x0, symName: _glad_glStencilMaskSeparate, symObjAddr: 0x19098, symBinAddr: 0x1000DEED0, symSize: 0x0 }
  - { offsetInCU: 0x3185, offset: 0xB83F6, size: 0x8, addend: 0x0, symName: _glad_glStencilOp, symObjAddr: 0x190A0, symBinAddr: 0x1000DEED8, symSize: 0x0 }
  - { offsetInCU: 0x31BF, offset: 0xB8430, size: 0x8, addend: 0x0, symName: _glad_glStencilOpSeparate, symObjAddr: 0x190A8, symBinAddr: 0x1000DEEE0, symSize: 0x0 }
  - { offsetInCU: 0x31E2, offset: 0xB8453, size: 0x8, addend: 0x0, symName: _glad_glTexBuffer, symObjAddr: 0x190B0, symBinAddr: 0x1000DEEE8, symSize: 0x0 }
  - { offsetInCU: 0x3205, offset: 0xB8476, size: 0x8, addend: 0x0, symName: _glad_glTexCoordP1ui, symObjAddr: 0x190B8, symBinAddr: 0x1000DEEF0, symSize: 0x0 }
  - { offsetInCU: 0x3228, offset: 0xB8499, size: 0x8, addend: 0x0, symName: _glad_glTexCoordP1uiv, symObjAddr: 0x190C0, symBinAddr: 0x1000DEEF8, symSize: 0x0 }
  - { offsetInCU: 0x324B, offset: 0xB84BC, size: 0x8, addend: 0x0, symName: _glad_glTexCoordP2ui, symObjAddr: 0x190C8, symBinAddr: 0x1000DEF00, symSize: 0x0 }
  - { offsetInCU: 0x326E, offset: 0xB84DF, size: 0x8, addend: 0x0, symName: _glad_glTexCoordP2uiv, symObjAddr: 0x190D0, symBinAddr: 0x1000DEF08, symSize: 0x0 }
  - { offsetInCU: 0x3291, offset: 0xB8502, size: 0x8, addend: 0x0, symName: _glad_glTexCoordP3ui, symObjAddr: 0x190D8, symBinAddr: 0x1000DEF10, symSize: 0x0 }
  - { offsetInCU: 0x32B4, offset: 0xB8525, size: 0x8, addend: 0x0, symName: _glad_glTexCoordP3uiv, symObjAddr: 0x190E0, symBinAddr: 0x1000DEF18, symSize: 0x0 }
  - { offsetInCU: 0x32D7, offset: 0xB8548, size: 0x8, addend: 0x0, symName: _glad_glTexCoordP4ui, symObjAddr: 0x190E8, symBinAddr: 0x1000DEF20, symSize: 0x0 }
  - { offsetInCU: 0x32FA, offset: 0xB856B, size: 0x8, addend: 0x0, symName: _glad_glTexCoordP4uiv, symObjAddr: 0x190F0, symBinAddr: 0x1000DEF28, symSize: 0x0 }
  - { offsetInCU: 0x331D, offset: 0xB858E, size: 0x8, addend: 0x0, symName: _glad_glTexImage1D, symObjAddr: 0x190F8, symBinAddr: 0x1000DEF30, symSize: 0x0 }
  - { offsetInCU: 0x3370, offset: 0xB85E1, size: 0x8, addend: 0x0, symName: _glad_glTexImage2D, symObjAddr: 0x19100, symBinAddr: 0x1000DEF38, symSize: 0x0 }
  - { offsetInCU: 0x33C8, offset: 0xB8639, size: 0x8, addend: 0x0, symName: _glad_glTexImage2DMultisample, symObjAddr: 0x19108, symBinAddr: 0x1000DEF40, symSize: 0x0 }
  - { offsetInCU: 0x3411, offset: 0xB8682, size: 0x8, addend: 0x0, symName: _glad_glTexImage3D, symObjAddr: 0x19110, symBinAddr: 0x1000DEF48, symSize: 0x0 }
  - { offsetInCU: 0x346E, offset: 0xB86DF, size: 0x8, addend: 0x0, symName: _glad_glTexImage3DMultisample, symObjAddr: 0x19118, symBinAddr: 0x1000DEF50, symSize: 0x0 }
  - { offsetInCU: 0x34BC, offset: 0xB872D, size: 0x8, addend: 0x0, symName: _glad_glTexParameterIiv, symObjAddr: 0x19120, symBinAddr: 0x1000DEF58, symSize: 0x0 }
  - { offsetInCU: 0x34F6, offset: 0xB8767, size: 0x8, addend: 0x0, symName: _glad_glTexParameterIuiv, symObjAddr: 0x19128, symBinAddr: 0x1000DEF60, symSize: 0x0 }
  - { offsetInCU: 0x3519, offset: 0xB878A, size: 0x8, addend: 0x0, symName: _glad_glTexParameterf, symObjAddr: 0x19130, symBinAddr: 0x1000DEF68, symSize: 0x0 }
  - { offsetInCU: 0x3553, offset: 0xB87C4, size: 0x8, addend: 0x0, symName: _glad_glTexParameterfv, symObjAddr: 0x19138, symBinAddr: 0x1000DEF70, symSize: 0x0 }
  - { offsetInCU: 0x358D, offset: 0xB87FE, size: 0x8, addend: 0x0, symName: _glad_glTexParameteri, symObjAddr: 0x19140, symBinAddr: 0x1000DEF78, symSize: 0x0 }
  - { offsetInCU: 0x35C7, offset: 0xB8838, size: 0x8, addend: 0x0, symName: _glad_glTexParameteriv, symObjAddr: 0x19148, symBinAddr: 0x1000DEF80, symSize: 0x0 }
  - { offsetInCU: 0x35EA, offset: 0xB885B, size: 0x8, addend: 0x0, symName: _glad_glTexSubImage1D, symObjAddr: 0x19150, symBinAddr: 0x1000DEF88, symSize: 0x0 }
  - { offsetInCU: 0x3638, offset: 0xB88A9, size: 0x8, addend: 0x0, symName: _glad_glTexSubImage2D, symObjAddr: 0x19158, symBinAddr: 0x1000DEF90, symSize: 0x0 }
  - { offsetInCU: 0x3690, offset: 0xB8901, size: 0x8, addend: 0x0, symName: _glad_glTexSubImage3D, symObjAddr: 0x19160, symBinAddr: 0x1000DEF98, symSize: 0x0 }
  - { offsetInCU: 0x36F2, offset: 0xB8963, size: 0x8, addend: 0x0, symName: _glad_glTransformFeedbackVaryings, symObjAddr: 0x19168, symBinAddr: 0x1000DEFA0, symSize: 0x0 }
  - { offsetInCU: 0x3731, offset: 0xB89A2, size: 0x8, addend: 0x0, symName: _glad_glUniform1f, symObjAddr: 0x19170, symBinAddr: 0x1000DEFA8, symSize: 0x0 }
  - { offsetInCU: 0x3766, offset: 0xB89D7, size: 0x8, addend: 0x0, symName: _glad_glUniform1fv, symObjAddr: 0x19178, symBinAddr: 0x1000DEFB0, symSize: 0x0 }
  - { offsetInCU: 0x37A0, offset: 0xB8A11, size: 0x8, addend: 0x0, symName: _glad_glUniform1i, symObjAddr: 0x19180, symBinAddr: 0x1000DEFB8, symSize: 0x0 }
  - { offsetInCU: 0x37D5, offset: 0xB8A46, size: 0x8, addend: 0x0, symName: _glad_glUniform1iv, symObjAddr: 0x19188, symBinAddr: 0x1000DEFC0, symSize: 0x0 }
  - { offsetInCU: 0x380F, offset: 0xB8A80, size: 0x8, addend: 0x0, symName: _glad_glUniform1ui, symObjAddr: 0x19190, symBinAddr: 0x1000DEFC8, symSize: 0x0 }
  - { offsetInCU: 0x3844, offset: 0xB8AB5, size: 0x8, addend: 0x0, symName: _glad_glUniform1uiv, symObjAddr: 0x19198, symBinAddr: 0x1000DEFD0, symSize: 0x0 }
  - { offsetInCU: 0x387E, offset: 0xB8AEF, size: 0x8, addend: 0x0, symName: _glad_glUniform2f, symObjAddr: 0x191A0, symBinAddr: 0x1000DEFD8, symSize: 0x0 }
  - { offsetInCU: 0x38B8, offset: 0xB8B29, size: 0x8, addend: 0x0, symName: _glad_glUniform2fv, symObjAddr: 0x191A8, symBinAddr: 0x1000DEFE0, symSize: 0x0 }
  - { offsetInCU: 0x38DB, offset: 0xB8B4C, size: 0x8, addend: 0x0, symName: _glad_glUniform2i, symObjAddr: 0x191B0, symBinAddr: 0x1000DEFE8, symSize: 0x0 }
  - { offsetInCU: 0x3915, offset: 0xB8B86, size: 0x8, addend: 0x0, symName: _glad_glUniform2iv, symObjAddr: 0x191B8, symBinAddr: 0x1000DEFF0, symSize: 0x0 }
  - { offsetInCU: 0x3938, offset: 0xB8BA9, size: 0x8, addend: 0x0, symName: _glad_glUniform2ui, symObjAddr: 0x191C0, symBinAddr: 0x1000DEFF8, symSize: 0x0 }
  - { offsetInCU: 0x3972, offset: 0xB8BE3, size: 0x8, addend: 0x0, symName: _glad_glUniform2uiv, symObjAddr: 0x191C8, symBinAddr: 0x1000DF000, symSize: 0x0 }
  - { offsetInCU: 0x3995, offset: 0xB8C06, size: 0x8, addend: 0x0, symName: _glad_glUniform3f, symObjAddr: 0x191D0, symBinAddr: 0x1000DF008, symSize: 0x0 }
  - { offsetInCU: 0x39D4, offset: 0xB8C45, size: 0x8, addend: 0x0, symName: _glad_glUniform3fv, symObjAddr: 0x191D8, symBinAddr: 0x1000DF010, symSize: 0x0 }
  - { offsetInCU: 0x39F7, offset: 0xB8C68, size: 0x8, addend: 0x0, symName: _glad_glUniform3i, symObjAddr: 0x191E0, symBinAddr: 0x1000DF018, symSize: 0x0 }
  - { offsetInCU: 0x3A36, offset: 0xB8CA7, size: 0x8, addend: 0x0, symName: _glad_glUniform3iv, symObjAddr: 0x191E8, symBinAddr: 0x1000DF020, symSize: 0x0 }
  - { offsetInCU: 0x3A59, offset: 0xB8CCA, size: 0x8, addend: 0x0, symName: _glad_glUniform3ui, symObjAddr: 0x191F0, symBinAddr: 0x1000DF028, symSize: 0x0 }
  - { offsetInCU: 0x3A98, offset: 0xB8D09, size: 0x8, addend: 0x0, symName: _glad_glUniform3uiv, symObjAddr: 0x191F8, symBinAddr: 0x1000DF030, symSize: 0x0 }
  - { offsetInCU: 0x3ABB, offset: 0xB8D2C, size: 0x8, addend: 0x0, symName: _glad_glUniform4f, symObjAddr: 0x19200, symBinAddr: 0x1000DF038, symSize: 0x0 }
  - { offsetInCU: 0x3AFF, offset: 0xB8D70, size: 0x8, addend: 0x0, symName: _glad_glUniform4fv, symObjAddr: 0x19208, symBinAddr: 0x1000DF040, symSize: 0x0 }
  - { offsetInCU: 0x3B22, offset: 0xB8D93, size: 0x8, addend: 0x0, symName: _glad_glUniform4i, symObjAddr: 0x19210, symBinAddr: 0x1000DF048, symSize: 0x0 }
  - { offsetInCU: 0x3B66, offset: 0xB8DD7, size: 0x8, addend: 0x0, symName: _glad_glUniform4iv, symObjAddr: 0x19218, symBinAddr: 0x1000DF050, symSize: 0x0 }
  - { offsetInCU: 0x3B89, offset: 0xB8DFA, size: 0x8, addend: 0x0, symName: _glad_glUniform4ui, symObjAddr: 0x19220, symBinAddr: 0x1000DF058, symSize: 0x0 }
  - { offsetInCU: 0x3BCD, offset: 0xB8E3E, size: 0x8, addend: 0x0, symName: _glad_glUniform4uiv, symObjAddr: 0x19228, symBinAddr: 0x1000DF060, symSize: 0x0 }
  - { offsetInCU: 0x3BF0, offset: 0xB8E61, size: 0x8, addend: 0x0, symName: _glad_glUniformBlockBinding, symObjAddr: 0x19230, symBinAddr: 0x1000DF068, symSize: 0x0 }
  - { offsetInCU: 0x3C2A, offset: 0xB8E9B, size: 0x8, addend: 0x0, symName: _glad_glUniformMatrix2fv, symObjAddr: 0x19238, symBinAddr: 0x1000DF070, symSize: 0x0 }
  - { offsetInCU: 0x3C69, offset: 0xB8EDA, size: 0x8, addend: 0x0, symName: _glad_glUniformMatrix2x3fv, symObjAddr: 0x19240, symBinAddr: 0x1000DF078, symSize: 0x0 }
  - { offsetInCU: 0x3C8C, offset: 0xB8EFD, size: 0x8, addend: 0x0, symName: _glad_glUniformMatrix2x4fv, symObjAddr: 0x19248, symBinAddr: 0x1000DF080, symSize: 0x0 }
  - { offsetInCU: 0x3CAF, offset: 0xB8F20, size: 0x8, addend: 0x0, symName: _glad_glUniformMatrix3fv, symObjAddr: 0x19250, symBinAddr: 0x1000DF088, symSize: 0x0 }
  - { offsetInCU: 0x3CD2, offset: 0xB8F43, size: 0x8, addend: 0x0, symName: _glad_glUniformMatrix3x2fv, symObjAddr: 0x19258, symBinAddr: 0x1000DF090, symSize: 0x0 }
  - { offsetInCU: 0x3CF5, offset: 0xB8F66, size: 0x8, addend: 0x0, symName: _glad_glUniformMatrix3x4fv, symObjAddr: 0x19260, symBinAddr: 0x1000DF098, symSize: 0x0 }
  - { offsetInCU: 0x3D18, offset: 0xB8F89, size: 0x8, addend: 0x0, symName: _glad_glUniformMatrix4fv, symObjAddr: 0x19268, symBinAddr: 0x1000DF0A0, symSize: 0x0 }
  - { offsetInCU: 0x3D3B, offset: 0xB8FAC, size: 0x8, addend: 0x0, symName: _glad_glUniformMatrix4x2fv, symObjAddr: 0x19270, symBinAddr: 0x1000DF0A8, symSize: 0x0 }
  - { offsetInCU: 0x3D5E, offset: 0xB8FCF, size: 0x8, addend: 0x0, symName: _glad_glUniformMatrix4x3fv, symObjAddr: 0x19278, symBinAddr: 0x1000DF0B0, symSize: 0x0 }
  - { offsetInCU: 0x3D81, offset: 0xB8FF2, size: 0x8, addend: 0x0, symName: _glad_glUnmapBuffer, symObjAddr: 0x19280, symBinAddr: 0x1000DF0B8, symSize: 0x0 }
  - { offsetInCU: 0x3DA4, offset: 0xB9015, size: 0x8, addend: 0x0, symName: _glad_glUseProgram, symObjAddr: 0x19288, symBinAddr: 0x1000DF0C0, symSize: 0x0 }
  - { offsetInCU: 0x3DC7, offset: 0xB9038, size: 0x8, addend: 0x0, symName: _glad_glValidateProgram, symObjAddr: 0x19290, symBinAddr: 0x1000DF0C8, symSize: 0x0 }
  - { offsetInCU: 0x3DEA, offset: 0xB905B, size: 0x8, addend: 0x0, symName: _glad_glVertexAttrib1d, symObjAddr: 0x19298, symBinAddr: 0x1000DF0D0, symSize: 0x0 }
  - { offsetInCU: 0x3E1F, offset: 0xB9090, size: 0x8, addend: 0x0, symName: _glad_glVertexAttrib1dv, symObjAddr: 0x192A0, symBinAddr: 0x1000DF0D8, symSize: 0x0 }
  - { offsetInCU: 0x3E5E, offset: 0xB90CF, size: 0x8, addend: 0x0, symName: _glad_glVertexAttrib1f, symObjAddr: 0x192A8, symBinAddr: 0x1000DF0E0, symSize: 0x0 }
  - { offsetInCU: 0x3E93, offset: 0xB9104, size: 0x8, addend: 0x0, symName: _glad_glVertexAttrib1fv, symObjAddr: 0x192B0, symBinAddr: 0x1000DF0E8, symSize: 0x0 }
  - { offsetInCU: 0x3EC8, offset: 0xB9139, size: 0x8, addend: 0x0, symName: _glad_glVertexAttrib1s, symObjAddr: 0x192B8, symBinAddr: 0x1000DF0F0, symSize: 0x0 }
  - { offsetInCU: 0x3F1A, offset: 0xB918B, size: 0x8, addend: 0x0, symName: _glad_glVertexAttrib1sv, symObjAddr: 0x192C0, symBinAddr: 0x1000DF0F8, symSize: 0x0 }
  - { offsetInCU: 0x3F59, offset: 0xB91CA, size: 0x8, addend: 0x0, symName: _glad_glVertexAttrib2d, symObjAddr: 0x192C8, symBinAddr: 0x1000DF100, symSize: 0x0 }
  - { offsetInCU: 0x3F93, offset: 0xB9204, size: 0x8, addend: 0x0, symName: _glad_glVertexAttrib2dv, symObjAddr: 0x192D0, symBinAddr: 0x1000DF108, symSize: 0x0 }
  - { offsetInCU: 0x3FB6, offset: 0xB9227, size: 0x8, addend: 0x0, symName: _glad_glVertexAttrib2f, symObjAddr: 0x192D8, symBinAddr: 0x1000DF110, symSize: 0x0 }
  - { offsetInCU: 0x3FF0, offset: 0xB9261, size: 0x8, addend: 0x0, symName: _glad_glVertexAttrib2fv, symObjAddr: 0x192E0, symBinAddr: 0x1000DF118, symSize: 0x0 }
  - { offsetInCU: 0x4013, offset: 0xB9284, size: 0x8, addend: 0x0, symName: _glad_glVertexAttrib2s, symObjAddr: 0x192E8, symBinAddr: 0x1000DF120, symSize: 0x0 }
  - { offsetInCU: 0x404D, offset: 0xB92BE, size: 0x8, addend: 0x0, symName: _glad_glVertexAttrib2sv, symObjAddr: 0x192F0, symBinAddr: 0x1000DF128, symSize: 0x0 }
  - { offsetInCU: 0x4070, offset: 0xB92E1, size: 0x8, addend: 0x0, symName: _glad_glVertexAttrib3d, symObjAddr: 0x192F8, symBinAddr: 0x1000DF130, symSize: 0x0 }
  - { offsetInCU: 0x40AF, offset: 0xB9320, size: 0x8, addend: 0x0, symName: _glad_glVertexAttrib3dv, symObjAddr: 0x19300, symBinAddr: 0x1000DF138, symSize: 0x0 }
  - { offsetInCU: 0x40D2, offset: 0xB9343, size: 0x8, addend: 0x0, symName: _glad_glVertexAttrib3f, symObjAddr: 0x19308, symBinAddr: 0x1000DF140, symSize: 0x0 }
  - { offsetInCU: 0x4111, offset: 0xB9382, size: 0x8, addend: 0x0, symName: _glad_glVertexAttrib3fv, symObjAddr: 0x19310, symBinAddr: 0x1000DF148, symSize: 0x0 }
  - { offsetInCU: 0x4134, offset: 0xB93A5, size: 0x8, addend: 0x0, symName: _glad_glVertexAttrib3s, symObjAddr: 0x19318, symBinAddr: 0x1000DF150, symSize: 0x0 }
  - { offsetInCU: 0x4173, offset: 0xB93E4, size: 0x8, addend: 0x0, symName: _glad_glVertexAttrib3sv, symObjAddr: 0x19320, symBinAddr: 0x1000DF158, symSize: 0x0 }
  - { offsetInCU: 0x4196, offset: 0xB9407, size: 0x8, addend: 0x0, symName: _glad_glVertexAttrib4Nbv, symObjAddr: 0x19328, symBinAddr: 0x1000DF160, symSize: 0x0 }
  - { offsetInCU: 0x41F2, offset: 0xB9463, size: 0x8, addend: 0x0, symName: _glad_glVertexAttrib4Niv, symObjAddr: 0x19330, symBinAddr: 0x1000DF168, symSize: 0x0 }
  - { offsetInCU: 0x4227, offset: 0xB9498, size: 0x8, addend: 0x0, symName: _glad_glVertexAttrib4Nsv, symObjAddr: 0x19338, symBinAddr: 0x1000DF170, symSize: 0x0 }
  - { offsetInCU: 0x424A, offset: 0xB94BB, size: 0x8, addend: 0x0, symName: _glad_glVertexAttrib4Nub, symObjAddr: 0x19340, symBinAddr: 0x1000DF178, symSize: 0x0 }
  - { offsetInCU: 0x428E, offset: 0xB94FF, size: 0x8, addend: 0x0, symName: _glad_glVertexAttrib4Nubv, symObjAddr: 0x19348, symBinAddr: 0x1000DF180, symSize: 0x0 }
  - { offsetInCU: 0x42C3, offset: 0xB9534, size: 0x8, addend: 0x0, symName: _glad_glVertexAttrib4Nuiv, symObjAddr: 0x19350, symBinAddr: 0x1000DF188, symSize: 0x0 }
  - { offsetInCU: 0x42F8, offset: 0xB9569, size: 0x8, addend: 0x0, symName: _glad_glVertexAttrib4Nusv, symObjAddr: 0x19358, symBinAddr: 0x1000DF190, symSize: 0x0 }
  - { offsetInCU: 0x4354, offset: 0xB95C5, size: 0x8, addend: 0x0, symName: _glad_glVertexAttrib4bv, symObjAddr: 0x19360, symBinAddr: 0x1000DF198, symSize: 0x0 }
  - { offsetInCU: 0x4377, offset: 0xB95E8, size: 0x8, addend: 0x0, symName: _glad_glVertexAttrib4d, symObjAddr: 0x19368, symBinAddr: 0x1000DF1A0, symSize: 0x0 }
  - { offsetInCU: 0x43BB, offset: 0xB962C, size: 0x8, addend: 0x0, symName: _glad_glVertexAttrib4dv, symObjAddr: 0x19370, symBinAddr: 0x1000DF1A8, symSize: 0x0 }
  - { offsetInCU: 0x43DE, offset: 0xB964F, size: 0x8, addend: 0x0, symName: _glad_glVertexAttrib4f, symObjAddr: 0x19378, symBinAddr: 0x1000DF1B0, symSize: 0x0 }
  - { offsetInCU: 0x4422, offset: 0xB9693, size: 0x8, addend: 0x0, symName: _glad_glVertexAttrib4fv, symObjAddr: 0x19380, symBinAddr: 0x1000DF1B8, symSize: 0x0 }
  - { offsetInCU: 0x4445, offset: 0xB96B6, size: 0x8, addend: 0x0, symName: _glad_glVertexAttrib4iv, symObjAddr: 0x19388, symBinAddr: 0x1000DF1C0, symSize: 0x0 }
  - { offsetInCU: 0x4468, offset: 0xB96D9, size: 0x8, addend: 0x0, symName: _glad_glVertexAttrib4s, symObjAddr: 0x19390, symBinAddr: 0x1000DF1C8, symSize: 0x0 }
  - { offsetInCU: 0x44AC, offset: 0xB971D, size: 0x8, addend: 0x0, symName: _glad_glVertexAttrib4sv, symObjAddr: 0x19398, symBinAddr: 0x1000DF1D0, symSize: 0x0 }
  - { offsetInCU: 0x44CF, offset: 0xB9740, size: 0x8, addend: 0x0, symName: _glad_glVertexAttrib4ubv, symObjAddr: 0x193A0, symBinAddr: 0x1000DF1D8, symSize: 0x0 }
  - { offsetInCU: 0x44F2, offset: 0xB9763, size: 0x8, addend: 0x0, symName: _glad_glVertexAttrib4uiv, symObjAddr: 0x193A8, symBinAddr: 0x1000DF1E0, symSize: 0x0 }
  - { offsetInCU: 0x4515, offset: 0xB9786, size: 0x8, addend: 0x0, symName: _glad_glVertexAttrib4usv, symObjAddr: 0x193B0, symBinAddr: 0x1000DF1E8, symSize: 0x0 }
  - { offsetInCU: 0x4538, offset: 0xB97A9, size: 0x8, addend: 0x0, symName: _glad_glVertexAttribDivisor, symObjAddr: 0x193B8, symBinAddr: 0x1000DF1F0, symSize: 0x0 }
  - { offsetInCU: 0x455B, offset: 0xB97CC, size: 0x8, addend: 0x0, symName: _glad_glVertexAttribI1i, symObjAddr: 0x193C0, symBinAddr: 0x1000DF1F8, symSize: 0x0 }
  - { offsetInCU: 0x4590, offset: 0xB9801, size: 0x8, addend: 0x0, symName: _glad_glVertexAttribI1iv, symObjAddr: 0x193C8, symBinAddr: 0x1000DF200, symSize: 0x0 }
  - { offsetInCU: 0x45B3, offset: 0xB9824, size: 0x8, addend: 0x0, symName: _glad_glVertexAttribI1ui, symObjAddr: 0x193D0, symBinAddr: 0x1000DF208, symSize: 0x0 }
  - { offsetInCU: 0x45D6, offset: 0xB9847, size: 0x8, addend: 0x0, symName: _glad_glVertexAttribI1uiv, symObjAddr: 0x193D8, symBinAddr: 0x1000DF210, symSize: 0x0 }
  - { offsetInCU: 0x45F9, offset: 0xB986A, size: 0x8, addend: 0x0, symName: _glad_glVertexAttribI2i, symObjAddr: 0x193E0, symBinAddr: 0x1000DF218, symSize: 0x0 }
  - { offsetInCU: 0x4633, offset: 0xB98A4, size: 0x8, addend: 0x0, symName: _glad_glVertexAttribI2iv, symObjAddr: 0x193E8, symBinAddr: 0x1000DF220, symSize: 0x0 }
  - { offsetInCU: 0x4656, offset: 0xB98C7, size: 0x8, addend: 0x0, symName: _glad_glVertexAttribI2ui, symObjAddr: 0x193F0, symBinAddr: 0x1000DF228, symSize: 0x0 }
  - { offsetInCU: 0x4679, offset: 0xB98EA, size: 0x8, addend: 0x0, symName: _glad_glVertexAttribI2uiv, symObjAddr: 0x193F8, symBinAddr: 0x1000DF230, symSize: 0x0 }
  - { offsetInCU: 0x469C, offset: 0xB990D, size: 0x8, addend: 0x0, symName: _glad_glVertexAttribI3i, symObjAddr: 0x19400, symBinAddr: 0x1000DF238, symSize: 0x0 }
  - { offsetInCU: 0x46DB, offset: 0xB994C, size: 0x8, addend: 0x0, symName: _glad_glVertexAttribI3iv, symObjAddr: 0x19408, symBinAddr: 0x1000DF240, symSize: 0x0 }
  - { offsetInCU: 0x46FE, offset: 0xB996F, size: 0x8, addend: 0x0, symName: _glad_glVertexAttribI3ui, symObjAddr: 0x19410, symBinAddr: 0x1000DF248, symSize: 0x0 }
  - { offsetInCU: 0x473D, offset: 0xB99AE, size: 0x8, addend: 0x0, symName: _glad_glVertexAttribI3uiv, symObjAddr: 0x19418, symBinAddr: 0x1000DF250, symSize: 0x0 }
  - { offsetInCU: 0x4760, offset: 0xB99D1, size: 0x8, addend: 0x0, symName: _glad_glVertexAttribI4bv, symObjAddr: 0x19420, symBinAddr: 0x1000DF258, symSize: 0x0 }
  - { offsetInCU: 0x4783, offset: 0xB99F4, size: 0x8, addend: 0x0, symName: _glad_glVertexAttribI4i, symObjAddr: 0x19428, symBinAddr: 0x1000DF260, symSize: 0x0 }
  - { offsetInCU: 0x47C7, offset: 0xB9A38, size: 0x8, addend: 0x0, symName: _glad_glVertexAttribI4iv, symObjAddr: 0x19430, symBinAddr: 0x1000DF268, symSize: 0x0 }
  - { offsetInCU: 0x47EA, offset: 0xB9A5B, size: 0x8, addend: 0x0, symName: _glad_glVertexAttribI4sv, symObjAddr: 0x19438, symBinAddr: 0x1000DF270, symSize: 0x0 }
  - { offsetInCU: 0x480D, offset: 0xB9A7E, size: 0x8, addend: 0x0, symName: _glad_glVertexAttribI4ubv, symObjAddr: 0x19440, symBinAddr: 0x1000DF278, symSize: 0x0 }
  - { offsetInCU: 0x4830, offset: 0xB9AA1, size: 0x8, addend: 0x0, symName: _glad_glVertexAttribI4ui, symObjAddr: 0x19448, symBinAddr: 0x1000DF280, symSize: 0x0 }
  - { offsetInCU: 0x4874, offset: 0xB9AE5, size: 0x8, addend: 0x0, symName: _glad_glVertexAttribI4uiv, symObjAddr: 0x19450, symBinAddr: 0x1000DF288, symSize: 0x0 }
  - { offsetInCU: 0x4897, offset: 0xB9B08, size: 0x8, addend: 0x0, symName: _glad_glVertexAttribI4usv, symObjAddr: 0x19458, symBinAddr: 0x1000DF290, symSize: 0x0 }
  - { offsetInCU: 0x48BA, offset: 0xB9B2B, size: 0x8, addend: 0x0, symName: _glad_glVertexAttribIPointer, symObjAddr: 0x19460, symBinAddr: 0x1000DF298, symSize: 0x0 }
  - { offsetInCU: 0x48FE, offset: 0xB9B6F, size: 0x8, addend: 0x0, symName: _glad_glVertexAttribP1ui, symObjAddr: 0x19468, symBinAddr: 0x1000DF2A0, symSize: 0x0 }
  - { offsetInCU: 0x493D, offset: 0xB9BAE, size: 0x8, addend: 0x0, symName: _glad_glVertexAttribP1uiv, symObjAddr: 0x19470, symBinAddr: 0x1000DF2A8, symSize: 0x0 }
  - { offsetInCU: 0x497C, offset: 0xB9BED, size: 0x8, addend: 0x0, symName: _glad_glVertexAttribP2ui, symObjAddr: 0x19478, symBinAddr: 0x1000DF2B0, symSize: 0x0 }
  - { offsetInCU: 0x499F, offset: 0xB9C10, size: 0x8, addend: 0x0, symName: _glad_glVertexAttribP2uiv, symObjAddr: 0x19480, symBinAddr: 0x1000DF2B8, symSize: 0x0 }
  - { offsetInCU: 0x49C2, offset: 0xB9C33, size: 0x8, addend: 0x0, symName: _glad_glVertexAttribP3ui, symObjAddr: 0x19488, symBinAddr: 0x1000DF2C0, symSize: 0x0 }
  - { offsetInCU: 0x49E5, offset: 0xB9C56, size: 0x8, addend: 0x0, symName: _glad_glVertexAttribP3uiv, symObjAddr: 0x19490, symBinAddr: 0x1000DF2C8, symSize: 0x0 }
  - { offsetInCU: 0x4A08, offset: 0xB9C79, size: 0x8, addend: 0x0, symName: _glad_glVertexAttribP4ui, symObjAddr: 0x19498, symBinAddr: 0x1000DF2D0, symSize: 0x0 }
  - { offsetInCU: 0x4A2B, offset: 0xB9C9C, size: 0x8, addend: 0x0, symName: _glad_glVertexAttribP4uiv, symObjAddr: 0x194A0, symBinAddr: 0x1000DF2D8, symSize: 0x0 }
  - { offsetInCU: 0x4A4E, offset: 0xB9CBF, size: 0x8, addend: 0x0, symName: _glad_glVertexAttribPointer, symObjAddr: 0x194A8, symBinAddr: 0x1000DF2E0, symSize: 0x0 }
  - { offsetInCU: 0x4A97, offset: 0xB9D08, size: 0x8, addend: 0x0, symName: _glad_glVertexP2ui, symObjAddr: 0x194B0, symBinAddr: 0x1000DF2E8, symSize: 0x0 }
  - { offsetInCU: 0x4ABA, offset: 0xB9D2B, size: 0x8, addend: 0x0, symName: _glad_glVertexP2uiv, symObjAddr: 0x194B8, symBinAddr: 0x1000DF2F0, symSize: 0x0 }
  - { offsetInCU: 0x4ADD, offset: 0xB9D4E, size: 0x8, addend: 0x0, symName: _glad_glVertexP3ui, symObjAddr: 0x194C0, symBinAddr: 0x1000DF2F8, symSize: 0x0 }
  - { offsetInCU: 0x4B00, offset: 0xB9D71, size: 0x8, addend: 0x0, symName: _glad_glVertexP3uiv, symObjAddr: 0x194C8, symBinAddr: 0x1000DF300, symSize: 0x0 }
  - { offsetInCU: 0x4B23, offset: 0xB9D94, size: 0x8, addend: 0x0, symName: _glad_glVertexP4ui, symObjAddr: 0x194D0, symBinAddr: 0x1000DF308, symSize: 0x0 }
  - { offsetInCU: 0x4B46, offset: 0xB9DB7, size: 0x8, addend: 0x0, symName: _glad_glVertexP4uiv, symObjAddr: 0x194D8, symBinAddr: 0x1000DF310, symSize: 0x0 }
  - { offsetInCU: 0x4B69, offset: 0xB9DDA, size: 0x8, addend: 0x0, symName: _glad_glViewport, symObjAddr: 0x194E0, symBinAddr: 0x1000DF318, symSize: 0x0 }
  - { offsetInCU: 0x4B8C, offset: 0xB9DFD, size: 0x8, addend: 0x0, symName: _glad_glWaitSync, symObjAddr: 0x194E8, symBinAddr: 0x1000DF320, symSize: 0x0 }
  - { offsetInCU: 0x4BC5, offset: 0xB9E36, size: 0x8, addend: 0x0, symName: __ZL7open_glv, symObjAddr: 0x4C, symBinAddr: 0x100046B88, symSize: 0x9C }
  - { offsetInCU: 0x4BEF, offset: 0xB9E60, size: 0x8, addend: 0x0, symName: __ZZL7open_glvE5NAMES, symObjAddr: 0x4E50, symBinAddr: 0x1000DDF18, symSize: 0x0 }
  - { offsetInCU: 0x4C25, offset: 0xB9E96, size: 0x8, addend: 0x0, symName: __ZL5libGL, symObjAddr: 0x194F0, symBinAddr: 0x1000E2D30, symSize: 0x0 }
  - { offsetInCU: 0x4C3F, offset: 0xB9EB0, size: 0x8, addend: 0x0, symName: __ZL16max_loaded_major, symObjAddr: 0x194F8, symBinAddr: 0x1000E2D38, symSize: 0x0 }
  - { offsetInCU: 0x4C59, offset: 0xB9ECA, size: 0x8, addend: 0x0, symName: __ZL16max_loaded_minor, symObjAddr: 0x194FC, symBinAddr: 0x1000E2D3C, symSize: 0x0 }
  - { offsetInCU: 0x4C73, offset: 0xB9EE4, size: 0x8, addend: 0x0, symName: __ZL4exts, symObjAddr: 0x19500, symBinAddr: 0x1000E2D40, symSize: 0x0 }
  - { offsetInCU: 0x4C8D, offset: 0xB9EFE, size: 0x8, addend: 0x0, symName: __ZL10num_exts_i, symObjAddr: 0x19508, symBinAddr: 0x1000E2D48, symSize: 0x0 }
  - { offsetInCU: 0x4CA7, offset: 0xB9F18, size: 0x8, addend: 0x0, symName: __ZL6exts_i, symObjAddr: 0x19510, symBinAddr: 0x1000E2D50, symSize: 0x0 }
  - { offsetInCU: 0x4CC6, offset: 0xB9F37, size: 0x8, addend: 0x0, symName: _gladLoadGL, symObjAddr: 0x0, symBinAddr: 0x100046B3C, symSize: 0x4C }
  - { offsetInCU: 0x4CEF, offset: 0xB9F60, size: 0x8, addend: 0x0, symName: _gladLoadGLLoader, symObjAddr: 0xE8, symBinAddr: 0x100046C24, symSize: 0x15C }
  - { offsetInCU: 0x4D1A, offset: 0xB9F8B, size: 0x8, addend: 0x0, symName: __ZL8get_procPKc, symObjAddr: 0x244, symBinAddr: 0x100046D80, symSize: 0x7C }
  - { offsetInCU: 0x4D55, offset: 0xB9FC6, size: 0x8, addend: 0x0, symName: __ZL8close_glv, symObjAddr: 0x2C0, symBinAddr: 0x100046DFC, symSize: 0x4C }
  - { offsetInCU: 0x4D6F, offset: 0xB9FE0, size: 0x8, addend: 0x0, symName: __ZL11find_coreGLv, symObjAddr: 0x30C, symBinAddr: 0x100046E48, symSize: 0x5CC }
  - { offsetInCU: 0x4DF6, offset: 0xBA067, size: 0x8, addend: 0x0, symName: __ZL19load_GL_VERSION_1_0PFPvPKcE, symObjAddr: 0x8D8, symBinAddr: 0x100047414, symSize: 0x4BC }
  - { offsetInCU: 0x4E21, offset: 0xBA092, size: 0x8, addend: 0x0, symName: __ZL19load_GL_VERSION_1_1PFPvPKcE, symObjAddr: 0xD94, symBinAddr: 0x1000478D0, symSize: 0x174 }
  - { offsetInCU: 0x4E4C, offset: 0xBA0BD, size: 0x8, addend: 0x0, symName: __ZL19load_GL_VERSION_1_2PFPvPKcE, symObjAddr: 0xF08, symBinAddr: 0x100047A44, symSize: 0x9C }
  - { offsetInCU: 0x4E77, offset: 0xBA0E8, size: 0x8, addend: 0x0, symName: __ZL19load_GL_VERSION_1_3PFPvPKcE, symObjAddr: 0xFA4, symBinAddr: 0x100047AE0, symSize: 0x114 }
  - { offsetInCU: 0x4EA2, offset: 0xBA113, size: 0x8, addend: 0x0, symName: __ZL19load_GL_VERSION_1_4PFPvPKcE, symObjAddr: 0x10B8, symBinAddr: 0x100047BF4, symSize: 0x114 }
  - { offsetInCU: 0x4ECD, offset: 0xBA13E, size: 0x8, addend: 0x0, symName: __ZL19load_GL_VERSION_1_5PFPvPKcE, symObjAddr: 0x11CC, symBinAddr: 0x100047D08, symSize: 0x204 }
  - { offsetInCU: 0x4EF8, offset: 0xBA169, size: 0x8, addend: 0x0, symName: __ZL19load_GL_VERSION_2_0PFPvPKcE, symObjAddr: 0x13D0, symBinAddr: 0x100047F0C, symSize: 0x8F4 }
  - { offsetInCU: 0x4F23, offset: 0xBA194, size: 0x8, addend: 0x0, symName: __ZL19load_GL_VERSION_2_1PFPvPKcE, symObjAddr: 0x1CC4, symBinAddr: 0x100048800, symSize: 0xCC }
  - { offsetInCU: 0x4F4E, offset: 0xBA1BF, size: 0x8, addend: 0x0, symName: __ZL19load_GL_VERSION_3_0PFPvPKcE, symObjAddr: 0x1D90, symBinAddr: 0x1000488CC, symSize: 0x81C }
  - { offsetInCU: 0x4F79, offset: 0xBA1EA, size: 0x8, addend: 0x0, symName: __ZL19load_GL_VERSION_3_1PFPvPKcE, symObjAddr: 0x25AC, symBinAddr: 0x1000490E8, symSize: 0x1A4 }
  - { offsetInCU: 0x4FA4, offset: 0xBA215, size: 0x8, addend: 0x0, symName: __ZL19load_GL_VERSION_3_2PFPvPKcE, symObjAddr: 0x2750, symBinAddr: 0x10004928C, symSize: 0x204 }
  - { offsetInCU: 0x4FCF, offset: 0xBA240, size: 0x8, addend: 0x0, symName: __ZL19load_GL_VERSION_3_3PFPvPKcE, symObjAddr: 0x2954, symBinAddr: 0x100049490, symSize: 0x5AC }
  - { offsetInCU: 0x4FFA, offset: 0xBA26B, size: 0x8, addend: 0x0, symName: __ZL17find_extensionsGLv, symObjAddr: 0x2F00, symBinAddr: 0x100049A3C, symSize: 0x48 }
  - { offsetInCU: 0x5019, offset: 0xBA28A, size: 0x8, addend: 0x0, symName: __ZL8get_extsv, symObjAddr: 0x2F48, symBinAddr: 0x100049A84, symSize: 0x18C }
  - { offsetInCU: 0x508E, offset: 0xBA2FF, size: 0x8, addend: 0x0, symName: __ZL7has_extPKc, symObjAddr: 0x30D4, symBinAddr: 0x100049C10, symSize: 0x1F4 }
  - { offsetInCU: 0x512E, offset: 0xBA39F, size: 0x8, addend: 0x0, symName: __ZL9free_extsv, symObjAddr: 0x32C8, symBinAddr: 0x100049E04, symSize: 0x98 }
  - { offsetInCU: 0x5166, offset: 0xBA3D7, size: 0x8, addend: 0x0, symName: __Z6strstrB8ue170006Ua9enable_ifIXLb1EEEPKcS0_, symObjAddr: 0x3360, symBinAddr: 0x100049E9C, symSize: 0x2C }
...
